ccopy_reg
_reconstructor
p1
(cpuzzle
Pack
p2
c__builtin__
object
p3
NtRp4
(dp5
S'uuid'
p6
S'5c0eec3a-c72d-49e3-b317-58cc4839cf56'
p7
sS'author_name'
p8
Vferns
p9
sS'name'
p10
Vcrappy ass 5x5s
p11
sS'puzzles'
p12
(dp13
S'0001.puz'
p14
(lp15
VRobin
p16
aI5
aI5
asS'0003.puz'
p17
(lp18
VClock
p19
aI5
aI5
asS'0002.puz'
p20
(lp21
VPirate Ship
p22
aI5
aI5
assS'author_id'
p23
S'dc4d7a02-662f-404d-9bc5-d6dda5513a63'
p24
sS'order'
p25
(lp26
g14
ag20
ag17
asS'freemode'
p27
I00
sb.