ccopy_reg
_reconstructor
p1
(cpuzzle
Puzzle
p2
c__builtin__
object
p3
NtRp4
(dp5
S'row_numbers'
p6
(lp7
(I25
tp8
a(I6
I9
I2
tp9
a(I19
I3
tp10
a(I6
I1
I10
I2
tp11
a(I6
I9
I2
tp12
a(I6
I12
I2
tp13
a(I5
I10
I1
tp14
a(I4
I8
tp15
a(I4
I11
tp16
a(I7
I1
I4
tp17
a(I3
I1
I1
I1
I3
tp18
a(I1
I2
I4
I1
tp19
a(I4
I3
I6
tp20
a(I6
I3
I6
tp21
a(I4
I1
I1
I4
tp22
a(I2
I1
I1
I4
tp23
a(I2
I1
I1
I6
I1
tp24
a(I1
I2
I1
I1
I1
I4
I2
tp25
a(I2
I1
I3
I2
tp26
a(I11
I2
tp27
a(I2
I11
I4
tp28
a(I5
I11
I6
tp29
a(I5
I9
I6
tp30
a(I5
I6
I6
tp31
a(I3
I6
I4
tp32
asS'name'
p33
VPoker Game
p34
sS'cells'
p35
(lp36
(lp37
(I01
(lp38
F0
aF0
aF0.109375
atp39
a(I01
g38
tp40
a(I01
g38
tp41
a(I01
g38
tp42
a(I01
g38
tp43
a(I01
g38
tp44
a(I01
g38
tp45
a(I01
g38
tp46
a(I01
g38
tp47
a(I01
g38
tp48
a(I01
g38
tp49
a(I01
g38
tp50
a(I01
g38
tp51
a(I01
g38
tp52
a(I01
g38
tp53
a(I01
g38
tp54
a(I01
g38
tp55
a(I01
g38
tp56
a(I01
g38
tp57
a(I01
g38
tp58
a(I01
g38
tp59
a(I01
g38
tp60
a(I01
g38
tp61
a(I01
g38
tp62
a(I01
g38
tp63
aa(lp64
(I01
g38
tp65
a(I01
g38
tp66
a(I01
g38
tp67
a(I01
g38
tp68
a(I01
g38
tp69
a(I01
g38
tp70
a(N(lp71
F0.11392405063291139
aF0.4453125
aF0.671875
atp72
a(N(lp73
F0.11392405063291139
aF0.4453125
aF0.9609375
atp74
a(N(lp75
F0.11392405063291139
aF0.4453125
aF0.9609375
atp76
a(N(lp77
F0.11392405063291139
aF0.4453125
aF0.9609375
atp78
a(I01
g38
tp79
a(I01
g38
tp80
a(I01
g38
tp81
a(I01
g38
tp82
a(I01
g38
tp83
a(I01
g38
tp84
a(I01
g38
tp85
a(I01
g38
tp86
a(I01
g38
tp87
a(N(lp88
F0.10126582278481013
aF0.453125
aF0.7109375
atp89
a(N(lp90
F0.10126582278481013
aF0.453125
aF0.7109375
atp91
a(N(lp92
F0.10126582278481013
aF0.453125
aF0.7109375
atp93
a(N(lp94
F0.10126582278481013
aF0.453125
aF0.5390625
atp95
a(I01
g38
tp96
a(I01
g38
tp97
aa(lp98
(I01
g38
tp99
a(I01
g38
tp100
a(I01
g38
tp101
a(I01
g38
tp102
a(I01
g38
tp103
a(I01
g38
tp104
a(I01
(lp105
F0
aF0
aF0.109375
atp106
a(I01
(lp107
F0
aF0
aF0.2421875
atp108
a(I01
(lp109
F0
aF0
aF0.2421875
atp110
a(I01
(lp111
F0
aF0
aF0.2421875
atp112
a(I01
g38
tp113
a(I01
g38
tp114
a(I01
g38
tp115
a(I01
g38
tp116
a(I01
g38
tp117
a(I01
g38
tp118
a(I01
g38
tp119
a(I01
g38
tp120
a(I01
g38
tp121
a(N(lp122
F0.10126582278481013
aF0.453125
aF0.7109375
atp123
a(N(lp124
F0.10126582278481013
aF0.453125
aF0.7109375
atp125
a(N(lp126
F0.10126582278481013
aF0.453125
aF0.7109375
atp127
a(I01
(lp128
F0.11392405063291139
aF0.21875
aF0.4140625
atp129
a(I01
g38
tp130
a(I01
g38
tp131
aa(lp132
(I01
g38
tp133
a(I01
g38
tp134
a(I01
g38
tp135
a(I01
g38
tp136
a(I01
g38
tp137
a(I01
g38
tp138
a(N(lp139
F0.11392405063291139
aF0.4453125
aF0.671875
atp140
a(I01
(lp141
F0
aF0
aF0.2421875
atp142
a(N(lp143
F0.11392405063291139
aF0.4453125
aF0.9609375
atp144
a(I01
(lp145
F0
aF0
aF0.2421875
atp146
a(I01
g38
tp147
a(I01
g38
tp148
a(I01
g38
tp149
a(I01
g38
tp150
a(I01
g38
tp151
a(I01
g38
tp152
a(I01
g38
tp153
a(I01
g38
tp154
a(I01
g38
tp155
a(N(lp156
F0.10126582278481013
aF0.453125
aF0.7109375
atp157
a(N(lp158
F0.10126582278481013
aF0.453125
aF0.7109375
atp159
a(N(lp160
F0.10126582278481013
aF0.453125
aF0.7109375
atp161
a(N(lp162
F0.10126582278481013
aF0.453125
aF0.5390625
atp163
a(I01
g38
tp164
a(I01
g38
tp165
aa(lp166
(I01
g38
tp167
a(I01
g38
tp168
a(I01
g38
tp169
a(I01
g38
tp170
a(I01
g38
tp171
a(I01
g38
tp172
a(N(lp173
F0.11392405063291139
aF0.4453125
aF0.671875
atp174
a(N(lp175
F0.11392405063291139
aF0.4453125
aF0.9609375
atp176
a(N(lp177
F0.11392405063291139
aF0.4453125
aF0.9609375
atp178
a(N(lp179
F0.11392405063291139
aF0.4453125
aF0.9609375
atp180
a(I01
g38
tp181
a(I01
g38
tp182
a(I01
g38
tp183
a(I01
g38
tp184
a(I01
g38
tp185
a(I01
g38
tp186
a(I01
g38
tp187
a(I01
g38
tp188
a(I01
g38
tp189
a(N(lp190
F0.10126582278481013
aF0.453125
aF0.7109375
atp191
a(N(lp192
F0.10126582278481013
aF0.453125
aF0.7109375
atp193
a(N(lp194
F0.10126582278481013
aF0.453125
aF0.7109375
atp195
a(N(lp196
F0.10126582278481013
aF0.453125
aF0.5390625
atp197
a(I01
g38
tp198
a(I01
g38
tp199
aa(lp200
(I01
g38
tp201
a(I01
g38
tp202
a(I01
g38
tp203
a(I01
g38
tp204
a(I01
g38
tp205
a(I01
g38
tp206
a(N(lp207
F0.11392405063291139
aF0.4453125
aF0.671875
atp208
a(N(lp209
F0.11392405063291139
aF0.4453125
aF0.9609375
atp210
a(N(lp211
F0.11392405063291139
aF0.4453125
aF0.9609375
atp212
a(I01
g38
tp213
a(I01
g38
tp214
a(I01
g38
tp215
a(I01
g38
tp216
a(I01
g38
tp217
a(I01
g38
tp218
a(I01
g38
tp219
a(I01
g38
tp220
a(I01
g38
tp221
a(I01
g38
tp222
a(I01
g38
tp223
a(I01
g38
tp224
a(N(lp225
F0.10126582278481013
aF0.453125
aF0.7109375
atp226
a(N(lp227
F0.10126582278481013
aF0.453125
aF0.5390625
atp228
a(I01
g38
tp229
a(I01
g38
tp230
aa(lp231
(I01
g38
tp232
a(I01
g38
tp233
a(I01
g38
tp234
a(I01
g38
tp235
a(I01
g38
tp236
a(N(lp237
F0.51582278481012656
aF0.1953125
aF0.3984375
atp238
a(N(lp239
F0.51582278481012656
aF0.1953125
aF0.6171875
atp240
a(N(lp241
F0.51582278481012656
aF0.1953125
aF0.6171875
atp242
a(N(lp243
F0.51582278481012656
aF0.1953125
aF0.6171875
atp244
a(N(lp245
F0.51582278481012656
aF0.1953125
aF0.6171875
atp246
a(I01
g38
tp247
a(I01
g38
tp248
a(I01
g38
tp249
a(I01
g38
tp250
a(I01
g38
tp251
a(I01
g38
tp252
a(I01
g38
tp253
a(I01
g38
tp254
a(I01
g38
tp255
a(I01
g38
tp256
a(N(lp257
F0.041139240506329111
aF0.546875
aF0.6328125
atp258
a(N(lp259
F0.10126582278481013
aF0.453125
aF0.7109375
atp260
a(Ng257
tp261
a(Ng257
tp262
a(I01
g38
tp263
aa(lp264
(I01
g38
tp265
a(I01
g38
tp266
a(I01
g38
tp267
a(I01
g38
tp268
a(N(lp269
F0.51582278481012656
aF0.1953125
aF0.3984375
atp270
a(N(lp271
F0.51582278481012656
aF0.1953125
aF0.6171875
atp272
a(N(lp273
F0.51582278481012656
aF0.1953125
aF0.6171875
atp274
a(N(lp275
F0.51582278481012656
aF0.1953125
aF0.6171875
atp276
a(N(lp277
F0.51582278481012656
aF0.1953125
aF0.6171875
atp278
a(N(lp279
F0.51582278481012656
aF0.1953125
aF0.6171875
atp280
a(N(lp281
F0.51582278481012656
aF0.1953125
aF0.6171875
atp282
a(I01
g38
tp283
a(I01
g38
tp284
a(I01
g38
tp285
a(I01
g38
tp286
a(I01
g38
tp287
a(I01
g38
tp288
a(I01
g38
tp289
a(I01
g38
tp290
a(Ng257
tp291
a(Ng257
tp292
a(N(lp293
F0.10126582278481013
aF0.453125
aF0.7109375
atp294
a(Ng257
tp295
a(Ng257
tp296
a(N(lp297
F0.041139240506329111
aF0.546875
aF0.3515625
atp298
aa(lp299
(I01
g38
tp300
a(I01
g38
tp301
a(I01
g38
tp302
a(I01
g38
tp303
a(N(lp304
F0.51582278481012656
aF0.1953125
aF0.3984375
atp305
a(N(lp306
F0.51582278481012656
aF0.1953125
aF0.6171875
atp307
a(N(lp308
F0.51582278481012656
aF0.1953125
aF0.6171875
atp309
a(I01
(lp310
F0.27215189873417722
aF0.6875
aF0.375
atp311
a(I01
(lp312
F0.27215189873417722
aF0.6875
aF0.375
atp313
a(I01
(lp314
F0.27215189873417722
aF0.6875
aF0.375
atp315
a(I01
(lp316
F0.27215189873417722
aF0.6875
aF0.375
atp317
a(I01
(lp318
F0.27215189873417722
aF0.6875
aF0.375
atp319
a(I01
(lp320
F0.27215189873417722
aF0.6875
aF0.375
atp321
a(I01
(lp322
F0.27215189873417722
aF0.6875
aF0.375
atp323
a(I01
(lp324
F0.27215189873417722
aF0.6875
aF0.375
atp325
a(I01
(lp326
F0.27215189873417722
aF0.6875
aF0.375
atp327
a(I01
(lp328
F0.27215189873417722
aF0.6875
aF0.375
atp329
a(I01
(lp330
F0.27215189873417722
aF0.6875
aF0.375
atp331
a(Ng257
tp332
a(Ng257
tp333
a(Ng257
tp334
a(Ng257
tp335
a(Ng257
tp336
a(Ng257
tp337
a(N(lp338
F0.041139240506329111
aF0.546875
aF0.3515625
atp339
aa(lp340
(I01
g38
tp341
a(I01
g38
tp342
a(I01
g38
tp343
a(I01
(lp344
F0.27215189873417722
aF0.6875
aF0.375
atp345
a(I01
(lp346
F0.27215189873417722
aF0.6875
aF0.375
atp347
a(I01
(lp348
F0.27215189873417722
aF0.6875
aF0.375
atp349
a(I01
(lp350
F0.27215189873417722
aF0.6875
aF0.375
atp351
a(N(lp352
F0.27215189873417722
aF0.6875
aF0.53125
atp353
a(N(lp354
F0.27215189873417722
aF0.6875
aF0.53125
atp355
a(I01
(lp356
F0.58860759493670889
aF0.6328125
aF0.4296875
atp357
a(N(lp358
F0.27215189873417722
aF0.6875
aF0.53125
atp359
a(N(lp360
F0.27215189873417722
aF0.6875
aF0.53125
atp361
a(N(lp362
F0.27215189873417722
aF0.6875
aF0.53125
atp363
a(N(lp364
F0.27215189873417722
aF0.6875
aF0.53125
atp365
a(N(lp366
F0.27215189873417722
aF0.6875
aF0.53125
atp367
a(N(lp368
F0.27215189873417722
aF0.6875
aF0.53125
atp369
a(N(lp370
F0.27215189873417722
aF0.6875
aF0.53125
atp371
a(N(lp372
F0.27215189873417722
aF0.6875
aF0.53125
atp373
a(I01
(lp374
F0.27215189873417722
aF0.6875
aF0.375
atp375
a(I01
(lp376
F0.27215189873417722
aF0.6875
aF0.375
atp377
a(I01
(lp378
F0.27215189873417722
aF0.6875
aF0.375
atp379
a(I01
(lp380
F0.27215189873417722
aF0.6875
aF0.375
atp381
a(Ng257
tp382
a(Ng257
tp383
a(N(lp384
F0.041139240506329111
aF0.546875
aF0.3515625
atp385
aa(lp386
(I01
g38
tp387
a(I01
(lp388
F0.27215189873417722
aF0.6875
aF0.375
atp389
a(I01
(lp390
F0.27215189873417722
aF0.6875
aF0.375
atp391
a(N(lp392
F0.27215189873417722
aF0.6875
aF0.53125
atp393
a(N(lp394
F0.27215189873417722
aF0.6875
aF0.53125
atp395
a(N(lp396
F0.27215189873417722
aF0.6875
aF0.53125
atp397
a(N(lp398
F0.27215189873417722
aF0.6875
aF0.6875
atp399
a(Ng398
tp400
a(Ng398
tp401
a(I01
(lp402
F0.58860759493670889
aF0.6328125
aF0.4296875
atp403
a(N(lp404
F0.27215189873417722
aF0.6875
aF0.53125
atp405
a(Ng398
tp406
a(I01
(lp407
F0.58860759493670889
aF0.6328125
aF0.4296875
atp408
a(Ng398
tp409
a(Ng398
tp410
a(Ng398
tp411
a(Ng398
tp412
a(Ng398
tp413
a(Ng398
tp414
a(I01
(lp415
F0.58860759493670889
aF0.6328125
aF0.4296875
atp416
a(N(lp417
F0.27215189873417722
aF0.6875
aF0.53125
atp418
a(N(lp419
F0.27215189873417722
aF0.6875
aF0.53125
atp420
a(I01
(lp421
F0.27215189873417722
aF0.6875
aF0.375
atp422
a(I01
(lp423
F0.27215189873417722
aF0.6875
aF0.375
atp424
a(I01
(lp425
F0.041139240506329111
aF0.546875
aF0.3515625
atp426
aa(lp427
(I01
(lp428
F0.27215189873417722
aF0.6875
aF0.375
atp429
a(N(lp430
F0.27215189873417722
aF0.6875
aF0.53125
atp431
a(N(lp432
F0.27215189873417722
aF0.6875
aF0.53125
atp433
a(N(lp434
F0.27215189873417722
aF0.6875
aF0.53125
atp435
a(Ng398
tp436
a(Ng398
tp437
a(Ng398
tp438
a(Ng398
tp439
a(Ng398
tp440
a(Ng398
tp441
a(Ng398
tp442
a(Ng398
tp443
a(I01
g407
tp444
a(I01
g407
tp445
a(Ng398
tp446
a(Ng398
tp447
a(Ng398
tp448
a(I01
(lp449
F0.27215189873417722
aF0.6875
aF0.6875
atp450
a(I01
(lp451
F0.27215189873417722
aF0.6875
aF0.6875
atp452
a(I01
(lp453
F0.27215189873417722
aF0.6875
aF0.6875
atp454
a(I01
(lp455
F0.27215189873417722
aF0.6875
aF0.6875
atp456
a(N(lp457
F0.27215189873417722
aF0.6875
aF0.53125
atp458
a(N(lp459
F0.27215189873417722
aF0.6875
aF0.53125
atp460
a(N(lp461
F0.27215189873417722
aF0.6875
aF0.53125
atp462
a(I01
(lp463
F0.27215189873417722
aF0.6875
aF0.375
atp464
aa(lp465
(N(lp466
F0.27215189873417722
aF0.6875
aF0.53125
atp467
a(N(lp468
F0.27215189873417722
aF0.6875
aF0.53125
atp469
a(I01
(lp470
F0.27215189873417722
aF0.6875
aF0.53125
atp471
a(I01
(lp472
F0.27215189873417722
aF0.6875
aF0.6875
atp473
a(I01
(lp474
F0.27215189873417722
aF0.6875
aF0.6875
atp475
a(I01
(lp476
F0.27215189873417722
aF0.6875
aF0.6875
atp477
a(Ng398
tp478
a(Ng398
tp479
a(Ng398
tp480
a(Ng398
tp481
a(Ng398
tp482
a(I01
g407
tp483
a(I01
(lp484
F0.015822784810126583
aF0.640625
aF0.4296875
atp485
a(I01
g407
tp486
a(Ng398
tp487
a(Ng398
tp488
a(I01
(lp489
F0.27215189873417722
aF0.6875
aF0.6875
atp490
a(I01
(lp491
F0.041139240506329111
aF0.640625
aF0.390625
atp492
a(I01
(lp493
F0.041139240506329111
aF0.640625
aF0.390625
atp494
a(I01
(lp495
F0.041139240506329111
aF0.640625
aF0.390625
atp496
a(I01
(lp497
F0.041139240506329111
aF0.640625
aF0.1796875
atp498
a(I01
(lp499
F0.27215189873417722
aF0.6875
aF0.6875
atp500
a(N(lp501
F0.27215189873417722
aF0.6875
aF0.53125
atp502
a(N(lp503
F0.27215189873417722
aF0.6875
aF0.53125
atp504
a(N(lp505
F0.27215189873417722
aF0.6875
aF0.53125
atp506
aa(lp507
(N(lp508
F0.27215189873417722
aF0.6875
aF0.53125
atp509
a(I01
(lp510
F0.27215189873417722
aF0.6875
aF0.53125
atp511
a(I01
(lp512
F0.066455696202531639
aF0.3828125
aF0.1796875
atp513
a(I01
(lp514
F0.066455696202531639
aF0.3828125
aF0.1796875
atp515
a(I01
(lp516
F0.066455696202531639
aF0.3828125
aF0.1796875
atp517
a(I01
(lp518
F0.066455696202531639
aF0.3828125
aF0.265625
atp519
a(I01
(lp520
F0.27215189873417722
aF0.6875
aF0.6875
atp521
a(Ng398
tp522
a(Ng398
tp523
a(Ng398
tp524
a(Ng398
tp525
a(I01
(lp526
F0.015822784810126583
aF0.640625
aF0.4296875
atp527
a(I01
(lp528
F0.015822784810126583
aF0.640625
aF0.4296875
atp529
a(I01
g407
tp530
a(N(lp531
F0.27215189873417722
aF0.6875
aF0.53125
atp532
a(Ng398
tp533
a(I01
(lp534
F0.27215189873417722
aF0.6875
aF0.6875
atp535
a(I01
(lp536
F0.041139240506329111
aF0.640625
aF0.390625
atp537
a(I01
(lp538
F0.041139240506329111
aF0.640625
aF0.390625
atp539
a(I01
(lp540
F0.041139240506329111
aF0.640625
aF0.1796875
atp541
a(I01
(lp542
F0.041139240506329111
aF0.640625
aF0.1796875
atp543
a(I01
(lp544
F0.041139240506329111
aF0.640625
aF0.1796875
atp545
a(N(lp546
F0.27215189873417722
aF0.6875
aF0.53125
atp547
a(N(lp548
F0.27215189873417722
aF0.6875
aF0.53125
atp549
a(N(lp550
F0.27215189873417722
aF0.6875
aF0.53125
atp551
aa(lp552
(N(lp553
F0.27215189873417722
aF0.6875
aF0.53125
atp554
a(I01
(lp555
F0.27215189873417722
aF0.6875
aF0.53125
atp556
a(I01
(lp557
F0.066455696202531639
aF0.3828125
aF0.1796875
atp558
a(I01
(lp559
F0.066455696202531639
aF0.3828125
aF0.1796875
atp560
a(I01
(lp561
F0.066455696202531639
aF0.3828125
aF0.1796875
atp562
a(N(lp563
F0.079113924050632917
aF0.5703125
aF0.6640625
atp564
a(I01
(lp565
F0.27215189873417722
aF0.6875
aF0.6875
atp566
a(Ng398
tp567
a(Ng398
tp568
a(Ng398
tp569
a(Ng398
tp570
a(Ng398
tp571
a(Ng398
tp572
a(Ng398
tp573
a(Ng398
tp574
a(Ng398
tp575
a(I01
(lp576
F0.27215189873417722
aF0.6875
aF0.6875
atp577
a(N(lp578
F0.091772151898734181
aF0.3125
aF0.9609375
atp579
a(I01
(lp580
F0.041139240506329111
aF0.640625
aF0.390625
atp581
a(I01
(lp582
F0.041139240506329111
aF0.640625
aF0.1796875
atp583
a(I01
(lp584
F0.041139240506329111
aF0.640625
aF0.1796875
atp585
a(I01
(lp586
F0.041139240506329111
aF0.640625
aF0.1796875
atp587
a(N(lp588
F0.27215189873417722
aF0.6875
aF0.53125
atp589
a(N(lp590
F0.27215189873417722
aF0.6875
aF0.53125
atp591
a(N(lp592
F0.27215189873417722
aF0.6875
aF0.53125
atp593
aa(lp594
(I01
(lp595
F0.27215189873417722
aF0.6875
aF0.53125
atp596
a(I01
(lp597
F0.27215189873417722
aF0.6875
aF0.53125
atp598
a(N(lp599
F0.079113924050632917
aF0.5703125
aF0.4375
atp600
a(N(lp601
F0.079113924050632917
aF0.5703125
aF0.4375
atp602
a(N(lp603
F0.079113924050632917
aF0.5703125
aF0.4375
atp604
a(N(lp605
F0.079113924050632917
aF0.5703125
aF0.6640625
atp606
a(I01
(lp607
F0.27215189873417722
aF0.6875
aF0.6875
atp608
a(Ng398
tp609
a(N(lp610
F0.27215189873417722
aF0.6875
aF0.6875
atp611
a(Ng398
tp612
a(Ng398
tp613
a(Ng398
tp614
a(Ng398
tp615
a(Ng398
tp616
a(Ng398
tp617
a(Ng398
tp618
a(I01
(lp619
F0.27215189873417722
aF0.6875
aF0.6875
atp620
a(N(lp621
F0.091772151898734181
aF0.3125
aF0.9609375
atp622
a(I01
(lp623
F0.041139240506329111
aF0.640625
aF0.390625
atp624
a(I01
(lp625
F0.041139240506329111
aF0.640625
aF0.1796875
atp626
a(I01
(lp627
F0.041139240506329111
aF0.640625
aF0.1796875
atp628
a(I01
(lp629
F0.041139240506329111
aF0.640625
aF0.1796875
atp630
a(N(lp631
F0.27215189873417722
aF0.6875
aF0.53125
atp632
a(N(lp633
F0.27215189873417722
aF0.6875
aF0.53125
atp634
a(N(lp635
F0.27215189873417722
aF0.6875
aF0.53125
atp636
aa(lp637
(I01
(lp638
F0.27215189873417722
aF0.6875
aF0.53125
atp639
a(I01
(lp640
F0.27215189873417722
aF0.6875
aF0.53125
atp641
a(N(lp642
F0.079113924050632917
aF0.5703125
aF0.4375
atp643
a(N(lp644
F0.079113924050632917
aF0.5703125
aF0.4375
atp645
a(N(lp646
F0.079113924050632917
aF0.5703125
aF0.4375
atp647
a(N(lp648
F0.079113924050632917
aF0.5703125
aF0.6640625
atp649
a(I01
(lp650
F0.27215189873417722
aF0.6875
aF0.6875
atp651
a(Ng398
tp652
a(I01
(lp653
F0.58860759493670889
aF0.6328125
aF0.4296875
atp654
a(Ng398
tp655
a(Ng398
tp656
a(Ng398
tp657
a(Ng398
tp658
a(Ng398
tp659
a(N(lp660
F0.27215189873417722
aF0.6875
aF0.6875
atp661
a(Ng398
tp662
a(Ng398
tp663
a(I01
(lp664
F0.27215189873417722
aF0.6875
aF0.6875
atp665
a(I01
(lp666
F0.041139240506329111
aF0.640625
aF0.390625
atp667
a(I01
(lp668
F0.041139240506329111
aF0.640625
aF0.1796875
atp669
a(I01
(lp670
F0.041139240506329111
aF0.640625
aF0.1796875
atp671
a(I01
(lp672
F0.041139240506329111
aF0.640625
aF0.1796875
atp673
a(I01
(lp674
F0.27215189873417722
aF0.6875
aF0.53125
atp675
a(N(lp676
F0.27215189873417722
aF0.6875
aF0.53125
atp677
a(I01
(lp678
F0.27215189873417722
aF0.6875
aF0.375
atp679
aa(lp680
(I01
(lp681
F0.27215189873417722
aF0.6875
aF0.375
atp682
a(N(lp683
F0.16139240506329114
aF0.5390625
aF0.5234375
atp684
a(N(lp685
F0.16139240506329114
aF0.5390625
aF0.5234375
atp686
a(N(lp687
F0.16139240506329114
aF0.5390625
aF0.5234375
atp688
a(I01
(lp689
F0.27215189873417722
aF0.6875
aF0.53125
atp690
a(I01
(lp691
F0.27215189873417722
aF0.6875
aF0.53125
atp692
a(Ng398
tp693
a(Ng398
tp694
a(I01
g653
tp695
a(N(lp696
F0.27215189873417722
aF0.6875
aF0.53125
atp697
a(N(lp698
F0.27215189873417722
aF0.6875
aF0.6875
atp699
a(Ng398
tp700
a(Ng398
tp701
a(Ng398
tp702
a(I01
(lp703
F0.015822784810126583
aF0.640625
aF0.4296875
atp704
a(Ng398
tp705
a(I01
(lp706
F0.27215189873417722
aF0.6875
aF0.6875
atp707
a(N(lp708
F0.76582278481012656
aF0.3046875
aF0.9609375
atp709
a(I01
(lp710
F0.041139240506329111
aF0.640625
aF0.390625
atp711
a(I01
(lp712
F0.041139240506329111
aF0.640625
aF0.1796875
atp713
a(I01
(lp714
F0.041139240506329111
aF0.640625
aF0.1796875
atp715
a(I01
(lp716
F0.041139240506329111
aF0.640625
aF0.1796875
atp717
a(N(lp718
F0.76582278481012656
aF0.3046875
aF0.53125
atp719
a(I01
(lp720
F0.27215189873417722
aF0.6875
aF0.375
atp721
a(I01
(lp722
F0
aF0
aF0.109375
atp723
aa(lp724
(N(lp725
F0.16139240506329114
aF0.5390625
aF0.5234375
atp726
a(N(lp727
F0.16139240506329114
aF0.5390625
aF0.5234375
atp728
a(N(lp729
F0.16139240506329114
aF0.5390625
aF0.5234375
atp730
a(N(lp731
F0.16139240506329114
aF0.5390625
aF0.5234375
atp732
a(N(lp733
F0.16139240506329114
aF0.5390625
aF0.7421875
atp734
a(I01
(lp735
F0.27215189873417722
aF0.6875
aF0.375
atp736
a(I01
(lp737
F0.27215189873417722
aF0.6875
aF0.375
atp738
a(N(lp739
F0.27215189873417722
aF0.6875
aF0.53125
atp740
a(N(lp741
F0.27215189873417722
aF0.6875
aF0.53125
atp742
a(N(lp743
F0.27215189873417722
aF0.6875
aF0.53125
atp744
a(N(lp745
F0.27215189873417722
aF0.6875
aF0.53125
atp746
a(N(lp747
F0.27215189873417722
aF0.6875
aF0.53125
atp748
a(N(lp749
F0.27215189873417722
aF0.6875
aF0.53125
atp750
a(N(lp751
F0.27215189873417722
aF0.6875
aF0.53125
atp752
a(N(lp753
F0.27215189873417722
aF0.6875
aF0.53125
atp754
a(N(lp755
F0.27215189873417722
aF0.6875
aF0.53125
atp756
a(I01
(lp757
F0.27215189873417722
aF0.6875
aF0.53125
atp758
a(N(lp759
F0.76582278481012656
aF0.3046875
aF0.9609375
atp760
a(N(lp761
F0.76582278481012656
aF0.3046875
aF0.9609375
atp762
a(I01
(lp763
F0.041139240506329111
aF0.640625
aF0.1796875
atp764
a(I01
(lp765
F0.041139240506329111
aF0.640625
aF0.1796875
atp766
a(I01
(lp767
F0.041139240506329111
aF0.640625
aF0.1796875
atp768
a(N(lp769
F0.76582278481012656
aF0.3046875
aF0.53125
atp770
a(I01
g722
tp771
a(I01
g722
tp772
aa(lp773
(N(lp774
F0.16139240506329114
aF0.5390625
aF0.5234375
atp775
a(N(lp776
F0.16139240506329114
aF0.5390625
aF0.5234375
atp777
a(N(lp778
F0.16139240506329114
aF0.5390625
aF0.5234375
atp779
a(N(lp780
F0.16139240506329114
aF0.5390625
aF0.5234375
atp781
a(N(lp782
F0.16139240506329114
aF0.5390625
aF0.5234375
atp783
a(N(lp784
F0.16139240506329114
aF0.5390625
aF0.7421875
atp785
a(I01
(lp786
F0
aF0
aF0.109375
atp787
a(I01
(lp788
F0.27215189873417722
aF0.6875
aF0.375
atp789
a(I01
(lp790
F0.27215189873417722
aF0.6875
aF0.375
atp791
a(I01
(lp792
F0.27215189873417722
aF0.6875
aF0.375
atp793
a(I01
(lp794
F0.27215189873417722
aF0.6875
aF0.375
atp795
a(I01
(lp796
F0.27215189873417722
aF0.6875
aF0.375
atp797
a(I01
(lp798
F0.27215189873417722
aF0.6875
aF0.375
atp799
a(I01
(lp800
F0.27215189873417722
aF0.6875
aF0.375
atp801
a(I01
(lp802
F0.27215189873417722
aF0.6875
aF0.375
atp803
a(I01
(lp804
F0.27215189873417722
aF0.6875
aF0.375
atp805
a(I01
(lp806
F0.27215189873417722
aF0.6875
aF0.375
atp807
a(N(lp808
F0.76582278481012656
aF0.3046875
aF0.9609375
atp809
a(N(lp810
F0.76582278481012656
aF0.3046875
aF0.53125
atp811
a(N(lp812
F0.76582278481012656
aF0.3046875
aF0.53125
atp813
a(N(lp814
F0.76582278481012656
aF0.3046875
aF0.53125
atp815
a(N(lp816
F0.76582278481012656
aF0.3046875
aF0.53125
atp817
a(N(lp818
F0.76582278481012656
aF0.3046875
aF0.53125
atp819
a(I01
g722
tp820
a(I01
g722
tp821
aa(lp822
(I01
(lp823
F0
aF0
aF0.2421875
atp824
a(I01
(lp825
F0
aF0
aF0.2421875
atp826
a(N(lp827
F0.16139240506329114
aF0.5390625
aF0.5234375
atp828
a(N(lp829
F0.16139240506329114
aF0.5390625
aF0.5234375
atp830
a(N(lp831
F0.16139240506329114
aF0.5390625
aF0.5234375
atp832
a(N(lp833
F0.16139240506329114
aF0.5390625
aF0.7421875
atp834
a(I01
g786
tp835
a(I01
g786
tp836
a(I01
g786
tp837
a(I01
g786
tp838
a(I01
g786
tp839
a(I01
g786
tp840
a(I01
g786
tp841
a(I01
g786
tp842
a(I01
g786
tp843
a(I01
g786
tp844
a(I01
g786
tp845
a(N(lp846
F0.76582278481012656
aF0.3046875
aF0.53125
atp847
a(N(lp848
F0.76582278481012656
aF0.3046875
aF0.53125
atp849
a(N(lp850
F0.76582278481012656
aF0.3046875
aF0.53125
atp851
a(N(lp852
F0.76582278481012656
aF0.3046875
aF0.53125
atp853
a(I01
(lp854
F0
aF0
aF0.2421875
atp855
a(I01
(lp856
F0
aF0
aF0.2421875
atp857
a(I01
(lp858
F0
aF0
aF0.2421875
atp859
a(I01
g722
tp860
aa(lp861
(I01
(lp862
F0
aF0
aF0.2421875
atp863
a(I01
(lp864
F0
aF0
aF0.2421875
atp865
a(I01
(lp866
F0
aF0
aF0.2421875
atp867
a(I01
(lp868
F0
aF0
aF0.2421875
atp869
a(I01
(lp870
F0
aF0
aF0.2421875
atp871
a(N(lp872
F0.16139240506329114
aF0.5390625
aF0.5234375
atp873
a(N(lp874
F0.16139240506329114
aF0.5390625
aF0.7421875
atp875
a(I01
g786
tp876
a(I01
g786
tp877
a(I01
g786
tp878
a(I01
g786
tp879
a(I01
g786
tp880
a(I01
g786
tp881
a(I01
g786
tp882
a(I01
g786
tp883
a(I01
g786
tp884
a(I01
g786
tp885
a(I01
g786
tp886
a(N(lp887
F0.76582278481012656
aF0.3046875
aF0.53125
atp888
a(I01
(lp889
F0
aF0
aF0.2421875
atp890
a(I01
(lp891
F0
aF0
aF0.2421875
atp892
a(I01
(lp893
F0
aF0
aF0.2421875
atp894
a(I01
(lp895
F0
aF0
aF0.2421875
atp896
a(I01
(lp897
F0
aF0
aF0.2421875
atp898
a(I01
g722
tp899
aa(lp900
(I01
(lp901
F0
aF0
aF0.2421875
atp902
a(I01
(lp903
F0
aF0
aF0.2421875
atp904
a(I01
(lp905
F0
aF0
aF0.2421875
atp906
a(I01
(lp907
F0
aF0
aF0.2421875
atp908
a(I01
(lp909
F0
aF0
aF0.2421875
atp910
a(N(lp911
F0.16139240506329114
aF0.5390625
aF0.5234375
atp912
a(N(lp913
F0.16139240506329114
aF0.5390625
aF0.7421875
atp914
a(I01
g786
tp915
a(I01
g786
tp916
a(I01
g786
tp917
a(I01
g786
tp918
a(I01
g786
tp919
a(I01
g786
tp920
a(I01
g786
tp921
a(I01
g786
tp922
a(I01
g786
tp923
a(N(lp924
F0.55696202531645567
aF0.2578125
aF0.40625
atp925
a(N(lp926
F0.55696202531645567
aF0.2578125
aF0.40625
atp927
a(N(lp928
F0.76582278481012656
aF0.3046875
aF0.53125
atp929
a(I01
(lp930
F0
aF0
aF0.2421875
atp931
a(I01
(lp932
F0
aF0
aF0.2421875
atp933
a(I01
(lp934
F0
aF0
aF0.2421875
atp935
a(I01
(lp936
F0
aF0
aF0.2421875
atp937
a(I01
(lp938
F0
aF0
aF0.2421875
atp939
a(I01
g722
tp940
aa(lp941
(I01
(lp942
F0
aF0
aF0.2421875
atp943
a(I01
(lp944
F0
aF0
aF0.2421875
atp945
a(I01
(lp946
F0
aF0
aF0.2421875
atp947
a(I01
(lp948
F0
aF0
aF0.2421875
atp949
a(I01
(lp950
F0
aF0
aF0.2421875
atp951
a(N(lp952
F0.16139240506329114
aF0.5390625
aF0.5234375
atp953
a(N(lp954
F0.075949367088607597
aF0.5
aF0.421875
atp955
a(N(lp956
F0.075949367088607597
aF0.5
aF0.421875
atp957
a(N(lp958
F0.075949367088607597
aF0.5
aF0.421875
atp959
a(I01
g786
tp960
a(I01
g786
tp961
a(I01
g786
tp962
a(I01
g786
tp963
a(I01
g786
tp964
a(I01
g786
tp965
a(N(lp966
F0.55696202531645567
aF0.2578125
aF0.40625
atp967
a(N(lp968
F0.55696202531645567
aF0.2578125
aF0.40625
atp969
a(N(lp970
F0.55696202531645567
aF0.2578125
aF0.40625
atp971
a(N(lp972
F0.55696202531645567
aF0.2578125
aF0.40625
atp973
a(I01
(lp974
F0
aF0
aF0.2421875
atp975
a(I01
(lp976
F0
aF0
aF0.2421875
atp977
a(I01
(lp978
F0
aF0
aF0.2421875
atp979
a(I01
(lp980
F0
aF0
aF0.2421875
atp981
a(I01
(lp982
F0
aF0
aF0.2421875
atp983
a(I01
g722
tp984
aa(lp985
(I01
(lp986
F0.075949367088607597
aF0.5
aF0.421875
atp987
a(I01
(lp988
F0
aF0
aF0.2421875
atp989
a(I01
(lp990
F0
aF0
aF0.2421875
atp991
a(N(lp992
F0.075949367088607597
aF0.5
aF0.421875
atp993
a(N(lp994
F0.075949367088607597
aF0.5
aF0.421875
atp995
a(N(lp996
F0.075949367088607597
aF0.5
aF0.421875
atp997
a(N(lp998
F0.075949367088607597
aF0.5
aF0.421875
atp999
a(N(lp1000
F0.075949367088607597
aF0.5
aF0.421875
atp1001
a(N(lp1002
F0.075949367088607597
aF0.5
aF0.421875
atp1003
a(I01
g786
tp1004
a(I01
g786
tp1005
a(I01
g786
tp1006
a(I01
g786
tp1007
a(I01
g786
tp1008
a(I01
g786
tp1009
a(N(lp1010
F0.55696202531645567
aF0.2578125
aF0.40625
atp1011
a(N(lp1012
F0.55696202531645567
aF0.2578125
aF0.40625
atp1013
a(N(lp1014
F0.55696202531645567
aF0.2578125
aF0.40625
atp1015
a(N(lp1016
F0.55696202531645567
aF0.2578125
aF0.40625
atp1017
a(N(lp1018
F0.55696202531645567
aF0.2578125
aF0.40625
atp1019
a(N(lp1020
F0.55696202531645567
aF0.2578125
aF0.40625
atp1021
a(I01
(lp1022
F0
aF0
aF0.2421875
atp1023
a(I01
(lp1024
F0
aF0
aF0.2421875
atp1025
a(I01
g722
tp1026
a(I01
g722
tp1027
aasS'height'
p1028
I25
sS'width'
p1029
I25
sS'column_numbers'
p1030
(lp1031
(I12
I3
I5
tp1032
a(I11
I4
I5
tp1033
a(I11
I3
I4
tp1034
a(I10
I3
I3
tp1035
a(I7
I1
I3
I1
I3
tp1036
a(I6
I1
I2
I2
tp1037
a(I1
I1
I1
I4
I3
tp1038
a(I1
I2
I1
I4
tp1039
a(I1
I1
I1
I2
I4
tp1040
a(I1
I2
I1
I3
I6
tp1041
a(I7
I1
I6
tp1042
a(I9
I2
I6
tp1043
a(I9
I4
I6
tp1044
a(I9
I3
I6
tp1045
a(I9
I1
I6
tp1046
a(I9
I4
tp1047
a(I9
I4
I5
tp1048
a(I9
I3
I1
I1
tp1049
a(I8
I1
I7
tp1050
a(I1
I2
I10
I3
tp1051
a(I1
I1
I1
I8
I3
tp1052
a(I1
I1
I7
I5
tp1053
a(I1
I1
I1
I1
I5
tp1054
a(I6
I1
I8
tp1055
a(I7
I2
I9
tp1056
asS'background'
p1057
S'blue'
p1058
sb.