ccopy_reg
_reconstructor
p1
(cpuzzle
Puzzle
p2
c__builtin__
object
p3
NtRp4
(dp5
S'row_numbers'
p6
(lp7
(I12
tp8
a(I2
I1
I2
tp9
a(I1
I1
I1
tp10
a(I3
I1
I3
tp11
a(I1
I11
I1
tp12
a(I1
I1
tp13
a(I1
I1
I6
I1
tp14
a(I1
I2
I2
I1
tp15
a(I1
I1
I1
I1
tp16
a(I1
I2
I1
I1
tp17
a(I1
I1
I1
I1
tp18
a(I1
I6
I1
I1
tp19
a(I1
I6
I2
I1
tp20
a(I1
I7
I1
tp21
a(I1
I3
I5
I1
tp22
a(I3
I3
tp23
a(I1
I5
I2
tp24
a(I3
I3
I5
tp25
a(I16
tp26
a(I11
tp27
asS'name'
p28
VBrain in a Jar
p29
sS'cells'
p30
(lp31
(lp32
(I00
(lp33
F0.560126582278481
aF0.078125
aF0.9765625
atp34
a(I00
g33
tp35
a(I00
g33
tp36
a(Ng33
tp37
a(I01
(lp38
F0.55696202531645567
aF0.1796875
aF0.65625
atp39
a(I01
(lp40
F0.55696202531645567
aF0.1796875
aF0.65625
atp41
a(I01
(lp42
F0.55696202531645567
aF0.1796875
aF0.65625
atp43
a(I01
(lp44
F0.55696202531645567
aF0.1796875
aF0.65625
atp45
a(I01
(lp46
F0.55696202531645567
aF0.1796875
aF0.65625
atp47
a(I01
(lp48
F0.55696202531645567
aF0.1796875
aF0.65625
atp49
a(I01
(lp50
F0.55696202531645567
aF0.1796875
aF0.65625
atp51
a(I01
(lp52
F0.55696202531645567
aF0.1796875
aF0.65625
atp53
a(I01
(lp54
F0.55696202531645567
aF0.1796875
aF0.65625
atp55
a(I01
(lp56
F0.55696202531645567
aF0.1796875
aF0.65625
atp57
a(I01
(lp58
F0.55696202531645567
aF0.1796875
aF0.65625
atp59
a(I01
(lp60
F0.560126582278481
aF0.078125
aF0.9765625
atp61
a(I00
g60
tp62
a(I00
g60
tp63
a(Ng60
tp64
a(Ng60
tp65
aa(lp66
(Ng33
tp67
a(Ng33
tp68
a(I01
(lp69
F0.55696202531645567
aF0.1796875
aF0.65625
atp70
a(I01
(lp71
F0.55696202531645567
aF0.1796875
aF0.65625
atp72
a(N(lp73
F0.45253164556962028
aF0.265625
aF0.8046875
atp74
a(Ng73
tp75
a(I00
g73
tp76
a(I00
g73
tp77
a(I00
g73
tp78
a(Ng73
tp79
a(I01
(lp80
F0.44936708860759494
aF0.1171875
aF0.9296875
atp81
a(I00
g73
tp82
a(I00
g73
tp83
a(I00
g73
tp84
a(Ng73
tp85
a(I01
(lp86
F0.55696202531645567
aF0.1796875
aF0.65625
atp87
a(I01
(lp88
F0.55696202531645567
aF0.1796875
aF0.65625
atp89
a(Ng60
tp90
a(Ng60
tp91
a(Ng60
tp92
aa(lp93
(Ng33
tp94
a(I01
(lp95
F0.55696202531645567
aF0.1796875
aF0.65625
atp96
a(Ng73
tp97
a(Ng73
tp98
a(I00
g73
tp99
a(I01
(lp100
F0.45253164556962028
aF0.1640625
aF0.890625
atp101
a(Ng73
tp102
a(I00
g73
tp103
a(I00
g73
tp104
a(I00
g73
tp105
a(Ng73
tp106
a(I00
g73
tp107
a(Ng73
tp108
a(Ng73
tp109
a(I00
g73
tp110
a(I00
g73
tp111
a(Ng73
tp112
a(I01
(lp113
F0.59810126582278478
aF0.2421875
aF0.5390625
atp114
a(Ng60
tp115
a(Ng60
tp116
aa(lp117
(Ng33
tp118
a(I01
(lp119
F0.55696202531645567
aF0.1796875
aF0.65625
atp120
a(I01
(lp121
F0.55696202531645567
aF0.1796875
aF0.65625
atp122
a(I01
(lp123
F0.55696202531645567
aF0.1796875
aF0.65625
atp124
a(Ng73
tp125
a(I00
g73
tp126
a(I00
g73
tp127
a(Ng73
tp128
a(Ng73
tp129
a(Ng73
tp130
a(Ng73
tp131
a(Ng73
tp132
a(I01
(lp133
F0.45253164556962028
aF0.0546875
aF0.953125
atp134
a(I00
g73
tp135
a(Ng73
tp136
a(I01
(lp137
F0.59810126582278478
aF0.2421875
aF0.5390625
atp138
a(I01
(lp139
F0.59810126582278478
aF0.2421875
aF0.5390625
atp140
a(I01
(lp141
F0.59810126582278478
aF0.2421875
aF0.5390625
atp142
a(Ng60
tp143
a(Ng60
tp144
aa(lp145
(Ng33
tp146
a(I01
(lp147
F0.55696202531645567
aF0.1796875
aF0.65625
atp148
a(N(lp149
F0.45253164556962028
aF0.265625
aF0.8046875
atp150
a(Ng149
tp151
a(I01
(lp152
F0.59810126582278478
aF0.2421875
aF0.5390625
atp153
a(I01
(lp154
F0.59810126582278478
aF0.2421875
aF0.5390625
atp155
a(I01
(lp156
F0.59810126582278478
aF0.2421875
aF0.5390625
atp157
a(I01
(lp158
F0.59810126582278478
aF0.2421875
aF0.5390625
atp159
a(I01
(lp160
F0.59810126582278478
aF0.2421875
aF0.5390625
atp161
a(I01
(lp162
F0.59810126582278478
aF0.2421875
aF0.5390625
atp163
a(I01
(lp164
F0.59810126582278478
aF0.2421875
aF0.5390625
atp165
a(I01
(lp166
F0.59810126582278478
aF0.2421875
aF0.5390625
atp167
a(I01
(lp168
F0.59810126582278478
aF0.2421875
aF0.5390625
atp169
a(I01
(lp170
F0.59810126582278478
aF0.2421875
aF0.5390625
atp171
a(I01
(lp172
F0.59810126582278478
aF0.2421875
aF0.5390625
atp173
a(Ng149
tp174
a(I00
g149
tp175
a(I01
(lp176
F0.59810126582278478
aF0.2421875
aF0.5390625
atp177
a(Ng60
tp178
a(Ng60
tp179
aa(lp180
(Ng33
tp181
a(I01
(lp182
F0.55696202531645567
aF0.1796875
aF0.65625
atp183
a(Ng149
tp184
a(Ng149
tp185
a(I00
g149
tp186
a(Ng149
tp187
a(Ng149
tp188
a(I00
g149
tp189
a(I00
g149
tp190
a(I00
g149
tp191
a(I00
(lp192
F0.45253164556962028
aF0.265625
aF0.8046875
atp193
a(I00
(lp194
F0.45253164556962028
aF0.265625
aF0.8046875
atp195
a(I00
(lp196
F0.45253164556962028
aF0.265625
aF0.8046875
atp197
a(I00
g149
tp198
a(Ng149
tp199
a(Ng149
tp200
a(I00
g149
tp201
a(I01
(lp202
F0.59810126582278478
aF0.2421875
aF0.5390625
atp203
a(Ng60
tp204
a(Ng60
tp205
aa(lp206
(N(lp207
F0.560126582278481
aF0.078125
aF0.9765625
atp208
a(I01
(lp209
F0.55696202531645567
aF0.1796875
aF0.65625
atp210
a(Ng149
tp211
a(I01
(lp212
F0.45253164556962028
aF0.0546875
aF0.953125
atp213
a(Ng149
tp214
a(Ng149
tp215
a(Ng149
tp216
a(I01
(lp217
F0.18354430379746836
aF0.1875
aF0.5546875
atp218
a(I01
(lp219
F0.18354430379746836
aF0.1875
aF0.5546875
atp220
a(I01
(lp221
F0.18354430379746836
aF0.1875
aF0.5546875
atp222
a(I01
(lp223
F0.18354430379746836
aF0.1875
aF0.5546875
atp224
a(I01
(lp225
F0.18354430379746836
aF0.1875
aF0.5546875
atp226
a(I01
(lp227
F0.18354430379746836
aF0.1875
aF0.5546875
atp228
a(Ng149
tp229
a(Ng149
tp230
a(Ng149
tp231
a(I00
g149
tp232
a(I01
(lp233
F0.59810126582278478
aF0.2421875
aF0.5390625
atp234
a(N(lp235
F0.560126582278481
aF0.078125
aF0.9765625
atp236
a(N(lp237
F0.560126582278481
aF0.078125
aF0.9765625
atp238
aa(lp239
(N(lp240
F0.560126582278481
aF0.078125
aF0.9765625
atp241
a(I01
(lp242
F0.55696202531645567
aF0.1796875
aF0.65625
atp243
a(Ng149
tp244
a(Ng149
tp245
a(Ng149
tp246
a(I01
(lp247
F0.18354430379746836
aF0.1875
aF0.5546875
atp248
a(I01
(lp249
F0.18354430379746836
aF0.1875
aF0.5546875
atp250
a(N(lp251
F0.18354430379746836
aF0.1875
aF0.6796875
atp252
a(N(lp253
F0.18354430379746836
aF0.1875
aF0.8203125
atp254
a(N(lp255
F0.18354430379746836
aF0.1875
aF0.765625
atp256
a(Ng253
tp257
a(N(lp258
F0.18354430379746836
aF0.1875
aF0.765625
atp259
a(N(lp260
F0.18354430379746836
aF0.1875
aF0.765625
atp261
a(I01
(lp262
F0.18354430379746836
aF0.1875
aF0.5546875
atp263
a(I01
(lp264
F0.18354430379746836
aF0.1875
aF0.5546875
atp265
a(Ng149
tp266
a(I00
g149
tp267
a(I01
(lp268
F0.59810126582278478
aF0.2421875
aF0.5390625
atp269
a(N(lp270
F0.560126582278481
aF0.078125
aF0.9765625
atp271
a(N(lp272
F0.560126582278481
aF0.078125
aF0.9765625
atp273
aa(lp274
(N(lp275
F0.560126582278481
aF0.078125
aF0.9765625
atp276
a(I01
(lp277
F0.55696202531645567
aF0.1796875
aF0.65625
atp278
a(Ng149
tp279
a(Ng149
tp280
a(I01
(lp281
F0.18354430379746836
aF0.1875
aF0.5546875
atp282
a(Ng253
tp283
a(N(lp284
F0.18354430379746836
aF0.1875
aF0.765625
atp285
a(N(lp286
F0.18354430379746836
aF0.1875
aF0.765625
atp287
a(Ng253
tp288
a(Ng253
tp289
a(N(lp290
F0.18354430379746836
aF0.1875
aF0.765625
atp291
a(Ng253
tp292
a(Ng253
tp293
a(N(lp294
F0.18354430379746836
aF0.1875
aF0.765625
atp295
a(I01
(lp296
F0.18354430379746836
aF0.1875
aF0.5546875
atp297
a(Ng149
tp298
a(Ng149
tp299
a(I01
(lp300
F0.59810126582278478
aF0.2421875
aF0.5390625
atp301
a(N(lp302
F0.560126582278481
aF0.078125
aF0.9765625
atp303
a(N(lp304
F0.560126582278481
aF0.078125
aF0.9765625
atp305
aa(lp306
(N(lp307
F0.560126582278481
aF0.078125
aF0.9765625
atp308
a(I01
(lp309
F0.55696202531645567
aF0.1796875
aF0.65625
atp310
a(Ng149
tp311
a(I01
(lp312
F0.18354430379746836
aF0.1875
aF0.5546875
atp313
a(I01
(lp314
F0.18354430379746836
aF0.1875
aF0.6796875
atp315
a(Ng253
tp316
a(N(lp317
F0.18354430379746836
aF0.1875
aF0.765625
atp318
a(N(lp319
F0.18354430379746836
aF0.1875
aF0.8203125
atp320
a(N(lp321
F0.18354430379746836
aF0.1875
aF0.765625
atp322
a(N(lp323
F0.18354430379746836
aF0.1875
aF0.765625
atp324
a(Ng253
tp325
a(N(lp326
F0.18354430379746836
aF0.1875
aF0.765625
atp327
a(N(lp328
F0.18354430379746836
aF0.1875
aF0.765625
atp329
a(Ng253
tp330
a(N(lp331
F0.18354430379746836
aF0.1875
aF0.765625
atp332
a(I01
(lp333
F0.18354430379746836
aF0.1875
aF0.5546875
atp334
a(Ng149
tp335
a(I01
(lp336
F0.59810126582278478
aF0.2421875
aF0.5390625
atp337
a(N(lp338
F0.560126582278481
aF0.078125
aF0.9765625
atp339
a(N(lp340
F0.560126582278481
aF0.078125
aF0.9765625
atp341
aa(lp342
(N(lp343
F0.560126582278481
aF0.078125
aF0.8984375
atp344
a(I01
(lp345
F0.55696202531645567
aF0.1796875
aF0.65625
atp346
a(N(lp347
F0.45253164556962028
aF0.265625
aF0.734375
atp348
a(I01
(lp349
F0.18354430379746836
aF0.1875
aF0.5546875
atp350
a(Ng253
tp351
a(N(lp352
F0.18354430379746836
aF0.1875
aF0.765625
atp353
a(Ng253
tp354
a(N(lp355
F0.18354430379746836
aF0.1875
aF0.765625
atp356
a(N(lp357
F0.18354430379746836
aF0.1875
aF0.765625
atp358
a(Ng253
tp359
a(N(lp360
F0.18354430379746836
aF0.1875
aF0.765625
atp361
a(N(lp362
F0.18354430379746836
aF0.1875
aF0.765625
atp363
a(Ng253
tp364
a(N(lp365
F0.18354430379746836
aF0.1875
aF0.765625
atp366
a(N(lp367
F0.18354430379746836
aF0.1875
aF0.765625
atp368
a(I01
(lp369
F0.18354430379746836
aF0.1875
aF0.40625
atp370
a(N(lp371
F0.45253164556962028
aF0.265625
aF0.734375
atp372
a(I01
(lp373
F0.59810126582278478
aF0.2421875
aF0.5390625
atp374
a(N(lp375
F0.560126582278481
aF0.078125
aF0.8984375
atp376
a(N(lp377
F0.560126582278481
aF0.078125
aF0.8984375
atp378
aa(lp379
(N(lp380
F0.560126582278481
aF0.078125
aF0.9765625
atp381
a(I01
(lp382
F0.55696202531645567
aF0.1796875
aF0.65625
atp383
a(Ng149
tp384
a(I01
(lp385
F0.18354430379746836
aF0.1875
aF0.40625
atp386
a(I01
(lp387
F0.18354430379746836
aF0.1875
aF0.40625
atp388
a(I01
(lp389
F0.18354430379746836
aF0.1875
aF0.40625
atp390
a(I01
(lp391
F0.18354430379746836
aF0.1875
aF0.40625
atp392
a(I01
(lp393
F0.18354430379746836
aF0.1875
aF0.40625
atp394
a(I01
(lp395
F0.18354430379746836
aF0.1875
aF0.5546875
atp396
a(N(lp397
F0.18354430379746836
aF0.1875
aF0.765625
atp398
a(Ng253
tp399
a(Ng253
tp400
a(N(lp401
F0.18354430379746836
aF0.1875
aF0.765625
atp402
a(N(lp403
F0.18354430379746836
aF0.1875
aF0.765625
atp404
a(N(lp405
F0.18354430379746836
aF0.1875
aF0.765625
atp406
a(I01
(lp407
F0.18354430379746836
aF0.1875
aF0.40625
atp408
a(Ng149
tp409
a(I01
(lp410
F0.59810126582278478
aF0.2421875
aF0.5390625
atp411
a(N(lp412
F0.560126582278481
aF0.078125
aF0.9765625
atp413
a(N(lp414
F0.560126582278481
aF0.078125
aF0.9765625
atp415
aa(lp416
(Ng33
tp417
a(I01
(lp418
F0.55696202531645567
aF0.1796875
aF0.65625
atp419
a(Ng149
tp420
a(Ng149
tp421
a(I01
g407
tp422
a(I01
g407
tp423
a(I01
g407
tp424
a(I01
g407
tp425
a(I01
g407
tp426
a(I01
(lp427
F0.18354430379746836
aF0.1875
aF0.40625
atp428
a(N(lp429
F0.18354430379746836
aF0.1875
aF0.765625
atp430
a(N(lp431
F0.18354430379746836
aF0.1875
aF0.765625
atp432
a(N(lp433
F0.18354430379746836
aF0.1875
aF0.765625
atp434
a(N(lp435
F0.18354430379746836
aF0.1875
aF0.765625
atp436
a(I01
(lp437
F0.18354430379746836
aF0.1875
aF0.40625
atp438
a(I01
g407
tp439
a(Ng149
tp440
a(I01
(lp441
F0.59810126582278478
aF0.2421875
aF0.5390625
atp442
a(N(lp443
F0.560126582278481
aF0.078125
aF0.9765625
atp444
a(N(lp445
F0.560126582278481
aF0.078125
aF0.9765625
atp446
aa(lp447
(N(lp448
F0.560126582278481
aF0.078125
aF0.9765625
atp449
a(I01
(lp450
F0.55696202531645567
aF0.1796875
aF0.65625
atp451
a(Ng149
tp452
a(I00
g149
tp453
a(I00
g149
tp454
a(I00
g149
tp455
a(I00
g149
tp456
a(I00
g149
tp457
a(Ng149
tp458
a(I01
g407
tp459
a(I01
(lp460
F0.18354430379746836
aF0.1875
aF0.40625
atp461
a(I01
(lp462
F0.18354430379746836
aF0.1875
aF0.40625
atp463
a(I01
(lp464
F0.18354430379746836
aF0.1875
aF0.40625
atp465
a(I01
(lp466
F0.18354430379746836
aF0.1875
aF0.40625
atp467
a(I01
g407
tp468
a(I01
g407
tp469
a(Ng149
tp470
a(I01
(lp471
F0.59810126582278478
aF0.2421875
aF0.5390625
atp472
a(N(lp473
F0.560126582278481
aF0.078125
aF0.9765625
atp474
a(N(lp475
F0.560126582278481
aF0.078125
aF0.9765625
atp476
aa(lp477
(Ng33
tp478
a(I01
(lp479
F0.55696202531645567
aF0.1796875
aF0.65625
atp480
a(Ng149
tp481
a(Ng149
tp482
a(I01
(lp483
F0.45253164556962028
aF0.265625
aF0.59375
atp484
a(I01
(lp485
F0.45253164556962028
aF0.265625
aF0.59375
atp486
a(I01
(lp487
F0.45253164556962028
aF0.265625
aF0.59375
atp488
a(N(lp489
F0.45253164556962028
aF0.265625
aF0.59375
atp490
a(N(lp491
F0.45253164556962028
aF0.265625
aF0.59375
atp492
a(N(lp493
F0.45253164556962028
aF0.265625
aF0.59375
atp494
a(I01
g407
tp495
a(I01
g407
tp496
a(I01
g407
tp497
a(I01
g407
tp498
a(I01
g407
tp499
a(Ng149
tp500
a(I00
g149
tp501
a(I01
(lp502
F0.59810126582278478
aF0.2421875
aF0.5390625
atp503
a(Ng60
tp504
a(Ng60
tp505
aa(lp506
(Ng33
tp507
a(I01
(lp508
F0.55696202531645567
aF0.1796875
aF0.65625
atp509
a(I01
(lp510
F0.45253164556962028
aF0.265625
aF0.59375
atp511
a(I01
(lp512
F0.45253164556962028
aF0.265625
aF0.59375
atp513
a(Ng149
tp514
a(Ng149
tp515
a(I00
g149
tp516
a(Ng149
tp517
a(Ng149
tp518
a(Ng149
tp519
a(Ng149
tp520
a(Ng149
tp521
a(Ng149
tp522
a(Ng149
tp523
a(Ng149
tp524
a(I01
(lp525
F0.45253164556962028
aF0.265625
aF0.59375
atp526
a(I01
(lp527
F0.45253164556962028
aF0.265625
aF0.59375
atp528
a(I01
(lp529
F0.59810126582278478
aF0.2421875
aF0.5390625
atp530
a(Ng60
tp531
a(Ng60
tp532
aa(lp533
(Ng33
tp534
a(I01
(lp535
F0.55696202531645567
aF0.1796875
aF0.65625
atp536
a(I00
g149
tp537
a(I00
g149
tp538
a(I00
g149
tp539
a(Ng149
tp540
a(Ng149
tp541
a(Ng149
tp542
a(I01
(lp543
F0.45253164556962028
aF0.265625
aF0.59375
atp544
a(I01
(lp545
F0.45253164556962028
aF0.265625
aF0.453125
atp546
a(I01
(lp547
F0.45253164556962028
aF0.265625
aF0.453125
atp548
a(I01
(lp549
F0.45253164556962028
aF0.265625
aF0.453125
atp550
a(I01
(lp551
F0.45253164556962028
aF0.265625
aF0.59375
atp552
a(Ng149
tp553
a(Ng149
tp554
a(Ng149
tp555
a(I00
g149
tp556
a(I01
(lp557
F0.59810126582278478
aF0.2421875
aF0.5390625
atp558
a(I01
(lp559
F0.55696202531645567
aF0.03125
aF0.6875
atp560
a(Ng60
tp561
aa(lp562
(Ng33
tp563
a(I01
(lp564
F0.560126582278481
aF0.078125
aF0.7734375
atp565
a(I01
(lp566
F0.59810126582278478
aF0.2421875
aF0.5390625
atp567
a(I01
(lp568
F0.59810126582278478
aF0.2421875
aF0.5390625
atp569
a(I00
g149
tp570
a(I00
g149
tp571
a(I00
g149
tp572
a(I00
g149
tp573
a(Ng149
tp574
a(I01
(lp575
F0.45253164556962028
aF0.265625
aF0.59375
atp576
a(I01
(lp577
F0.45253164556962028
aF0.265625
aF0.59375
atp578
a(I01
(lp579
F0.45253164556962028
aF0.265625
aF0.59375
atp580
a(Ng149
tp581
a(I00
g149
tp582
a(Ng149
tp583
a(I01
(lp584
F0.59810126582278478
aF0.2421875
aF0.5390625
atp585
a(I01
(lp586
F0.59810126582278478
aF0.2421875
aF0.5390625
atp587
a(I01
(lp588
F0.55696202531645567
aF0.03125
aF0.6875
atp589
a(I01
(lp590
F0.55696202531645567
aF0.03125
aF0.6875
atp591
a(I01
(lp592
F0.55696202531645567
aF0.03125
aF0.6875
atp593
aa(lp594
(Ng33
tp595
a(Ng33
tp596
a(Ng33
tp597
a(I01
(lp598
F0.55696202531645567
aF0.03125
aF0.6875
atp599
a(I01
(lp600
F0.59810126582278478
aF0.2421875
aF0.5390625
atp601
a(I01
(lp602
F0.59810126582278478
aF0.2421875
aF0.5390625
atp603
a(I01
(lp604
F0.59810126582278478
aF0.2421875
aF0.5390625
atp605
a(I01
(lp606
F0.59810126582278478
aF0.2421875
aF0.5390625
atp607
a(I01
(lp608
F0.59810126582278478
aF0.2421875
aF0.5390625
atp609
a(I01
(lp610
F0.59810126582278478
aF0.2421875
aF0.5390625
atp611
a(I01
(lp612
F0.59810126582278478
aF0.2421875
aF0.5390625
atp613
a(I01
(lp614
F0.59810126582278478
aF0.2421875
aF0.5390625
atp615
a(I01
(lp616
F0.59810126582278478
aF0.2421875
aF0.5390625
atp617
a(I01
(lp618
F0.59810126582278478
aF0.2421875
aF0.5390625
atp619
a(I01
(lp620
F0.59810126582278478
aF0.2421875
aF0.5390625
atp621
a(I01
(lp622
F0.55696202531645567
aF0.03125
aF0.6875
atp623
a(I01
(lp624
F0.55696202531645567
aF0.03125
aF0.6875
atp625
a(I01
(lp626
F0.55696202531645567
aF0.03125
aF0.6875
atp627
a(I01
(lp628
F0.55696202531645567
aF0.03125
aF0.6875
atp629
a(N(lp630
F0.560126582278481
aF0.078125
aF0.7734375
atp631
aa(lp632
(Ng33
tp633
a(Ng33
tp634
a(Ng33
tp635
a(Ng33
tp636
a(Ng33
tp637
a(N(lp638
F0.560126582278481
aF0.078125
aF0.7734375
atp639
a(I01
(lp640
F0.560126582278481
aF0.078125
aF0.7734375
atp641
a(I01
(lp642
F0.55696202531645567
aF0.03125
aF0.6875
atp643
a(I01
(lp644
F0.55696202531645567
aF0.03125
aF0.6875
atp645
a(I01
(lp646
F0.55696202531645567
aF0.03125
aF0.6875
atp647
a(I01
(lp648
F0.55696202531645567
aF0.03125
aF0.6875
atp649
a(I01
(lp650
F0.55696202531645567
aF0.03125
aF0.6875
atp651
a(I01
(lp652
F0.55696202531645567
aF0.03125
aF0.6875
atp653
a(I01
(lp654
F0.55696202531645567
aF0.03125
aF0.6875
atp655
a(I01
(lp656
F0.55696202531645567
aF0.03125
aF0.6875
atp657
a(I01
(lp658
F0.55696202531645567
aF0.03125
aF0.6875
atp659
a(I01
(lp660
F0.560126582278481
aF0.078125
aF0.7734375
atp661
a(N(lp662
F0.560126582278481
aF0.078125
aF0.7734375
atp663
a(N(lp664
F0.560126582278481
aF0.078125
aF0.9765625
atp665
a(Ng664
tp666
aasS'height'
p667
I20
sS'width'
p668
I20
sS'column_numbers'
p669
(lp670
(I0
tp671
a(I16
tp672
a(I1
I1
I1
I1
tp673
a(I1
I1
I1
I3
I1
I2
tp674
a(I1
I1
I2
I2
I1
I1
tp675
a(I1
I1
I1
I1
I2
I1
I1
tp676
a(I1
I1
I1
I2
I1
I2
tp677
a(I1
I1
I1
I2
I2
tp678
a(I1
I1
I1
I2
I1
I2
tp679
a(I1
I1
I1
I2
I4
tp680
a(I2
I1
I1
I2
I4
tp681
a(I1
I1
I1
I2
I4
tp682
a(I1
I2
I1
I2
I1
I2
tp683
a(I1
I1
I1
I2
I2
tp684
a(I1
I1
I2
I3
I2
tp685
a(I2
I1
I5
I1
I3
tp686
a(I1
I1
I1
I3
tp687
a(I17
tp688
a(I3
tp689
a(I1
tp690
asS'background'
p691
S'blue'
p692
sb.