ccopy_reg
_reconstructor
p1
(cpuzzle
Puzzle
p2
c__builtin__
object
p3
NtRp4
(dp5
S'row_numbers'
p6
(lp7
(I3
I2
tp8
a(I4
I4
tp9
a(I1
I4
I6
tp10
a(I3
I4
I3
I3
tp11
a(I5
I3
I2
tp12
a(I3
I2
I2
I3
I2
I1
tp13
a(I2
I2
I4
I3
I3
tp14
a(I1
I5
I7
tp15
a(I2
I6
tp16
a(I3
I6
tp17
a(I7
I8
tp18
a(I18
I2
tp19
a(I19
I2
tp20
a(I15
I3
I5
tp21
a(I14
I2
I3
tp22
a(I12
I3
tp23
a(I12
I3
tp24
a(I11
I2
tp25
a(I11
I3
tp26
a(I13
I2
tp27
a(I10
I4
tp28
a(I8
I5
tp29
a(I7
I4
tp30
a(I5
I6
I3
tp31
a(I12
I3
I4
tp32
asS'name'
p33
VSnowboarder
p34
sS'cells'
p35
(lp36
(lp37
(N(lp38
F0.54746835443037978
aF0.609375
aF1
atp39
a(N(lp40
F0.54746835443037978
aF0.609375
aF1
atp41
a(N(lp42
F0.54746835443037978
aF0.609375
aF1
atp43
a(N(lp44
F0.54746835443037978
aF0.609375
aF1
atp45
a(N(lp46
F0.54746835443037978
aF0.609375
aF1
atp47
a(N(lp48
F0.54746835443037978
aF0.609375
aF1
atp49
a(N(lp50
F0.54746835443037978
aF0.609375
aF1
atp51
a(N(lp52
F0.54746835443037978
aF0.609375
aF1
atp53
a(I01
(lp54
F0.1550632911392405
aF0.0078125
aF0.7890625
atp55
a(I01
(lp56
F0.1550632911392405
aF0.0078125
aF0.7890625
atp57
a(I01
(lp58
F0.1550632911392405
aF0.0078125
aF0.7890625
atp59
a(I00
(lp60
F0.54746835443037978
aF0.609375
aF1
atp61
a(N(lp62
F0.54746835443037978
aF0.609375
aF1
atp63
a(N(lp64
F0.54746835443037978
aF0.609375
aF1
atp65
a(N(lp66
F0.54746835443037978
aF0.609375
aF1
atp67
a(N(lp68
F0.54746835443037978
aF0.609375
aF1
atp69
a(N(lp70
F0.54746835443037978
aF0.609375
aF1
atp71
a(N(lp72
F0.54746835443037978
aF0.609375
aF1
atp73
a(N(lp74
F0.54746835443037978
aF0.609375
aF1
atp75
a(I01
(lp76
F0
aF0
aF0.7265625
atp77
a(I01
(lp78
F0
aF0
aF0.7265625
atp79
a(N(lp80
F0.54746835443037978
aF0.609375
aF1
atp81
a(N(lp82
F0.54746835443037978
aF0.609375
aF1
atp83
a(N(lp84
F0.54746835443037978
aF0.609375
aF1
atp85
a(N(lp86
F0.54746835443037978
aF0.609375
aF1
atp87
aa(lp88
(N(lp89
F0.54746835443037978
aF0.609375
aF1
atp90
a(N(lp91
F0.54746835443037978
aF0.609375
aF1
atp92
a(N(lp93
F0.54746835443037978
aF0.609375
aF1
atp94
a(N(lp95
F0.54746835443037978
aF0.609375
aF1
atp96
a(N(lp97
F0.54746835443037978
aF0.609375
aF1
atp98
a(N(lp99
F0.54746835443037978
aF0.609375
aF1
atp100
a(N(lp101
F0.54746835443037978
aF0.609375
aF1
atp102
a(I00
(lp103
F0.54746835443037978
aF0.609375
aF1
atp104
a(I01
(lp105
F0.1550632911392405
aF0.0078125
aF0.5546875
atp106
a(I01
(lp107
F0.1550632911392405
aF0.0078125
aF0.7890625
atp108
a(I01
(lp109
F0.1550632911392405
aF0.0078125
aF0.7890625
atp110
a(I01
(lp111
F0.14556962025316456
aF0.6796875
aF1
atp112
a(I00
(lp113
F0.54746835443037978
aF0.609375
aF1
atp114
a(N(lp115
F0.54746835443037978
aF0.609375
aF1
atp116
a(N(lp117
F0.54746835443037978
aF0.609375
aF1
atp118
a(N(lp119
F0.54746835443037978
aF0.609375
aF1
atp120
a(N(lp121
F0.54746835443037978
aF0.609375
aF1
atp122
a(N(lp123
F0.54746835443037978
aF0.609375
aF1
atp124
a(I01
(lp125
F0
aF0
aF0.7265625
atp126
a(I01
(lp127
F0
aF0
aF0.7265625
atp128
a(I01
(lp129
F0
aF0
aF0.7265625
atp130
a(I01
(lp131
F0
aF0
aF0.7265625
atp132
a(N(lp133
F0.54746835443037978
aF0.609375
aF1
atp134
a(N(lp135
F0.54746835443037978
aF0.609375
aF1
atp136
a(N(lp137
F0.54746835443037978
aF0.609375
aF1
atp138
aa(lp139
(N(lp140
F0.54746835443037978
aF0.609375
aF1
atp141
a(N(lp142
F0.54746835443037978
aF0.609375
aF1
atp143
a(N(lp144
F0.54746835443037978
aF0.609375
aF1
atp145
a(N(lp146
F0.54746835443037978
aF0.609375
aF1
atp147
a(I01
(lp148
F0
aF0
aF0.7265625
atp149
a(N(lp150
F0.54746835443037978
aF0.609375
aF1
atp151
a(N(lp152
F0.54746835443037978
aF0.609375
aF1
atp153
a(N(lp154
F0.54746835443037978
aF0.609375
aF1
atp155
a(I00
(lp156
F0.54746835443037978
aF0.609375
aF1
atp157
a(I01
(lp158
F0.1550632911392405
aF0.0078125
aF0.5546875
atp159
a(I01
(lp160
F0.1550632911392405
aF0.0078125
aF0.5546875
atp161
a(I01
(lp162
F0.14556962025316456
aF0.6796875
aF1
atp163
a(I01
(lp164
F0.14556962025316456
aF0.6796875
aF1
atp165
a(N(lp166
F0.54746835443037978
aF0.609375
aF1
atp167
a(I00
(lp168
F0.54746835443037978
aF0.609375
aF1
atp169
a(N(lp170
F0.54746835443037978
aF0.609375
aF1
atp171
a(N(lp172
F0.54746835443037978
aF0.609375
aF1
atp173
a(I01
(lp174
F0
aF0
aF0.7265625
atp175
a(I01
(lp176
F0
aF0
aF0.7265625
atp177
a(I01
(lp178
F0
aF0
aF0.7265625
atp179
a(I01
(lp180
F0
aF0
aF0.7265625
atp181
a(I01
(lp182
F0
aF0
aF0.7265625
atp183
a(I01
(lp184
F0
aF0
aF0.7265625
atp185
a(N(lp186
F0.54746835443037978
aF0.609375
aF1
atp187
a(N(lp188
F0.54746835443037978
aF0.609375
aF1
atp189
aa(lp190
(N(lp191
F0.53164556962025311
aF0.4453125
aF0.9453125
atp192
a(N(lp193
F0.53164556962025311
aF0.4453125
aF0.9453125
atp194
a(I00
(lp195
F0.53164556962025311
aF0.4453125
aF0.9453125
atp196
a(I01
g148
tp197
a(I01
g148
tp198
a(I01
g148
tp199
a(N(lp200
F0.53164556962025311
aF0.4453125
aF0.9453125
atp201
a(N(lp202
F0.53164556962025311
aF0.4453125
aF0.9453125
atp203
a(I00
(lp204
F0.53164556962025311
aF0.4453125
aF0.9453125
atp205
a(I00
(lp206
F0.53164556962025311
aF0.4453125
aF0.9453125
atp207
a(I00
(lp208
F0.53164556962025311
aF0.4453125
aF0.9453125
atp209
a(I01
(lp210
F0.13924050632911392
aF0.640625
aF0.71875
atp211
a(I01
(lp212
F0.14556962025316456
aF0.6796875
aF1
atp213
a(I01
(lp214
F0.14556962025316456
aF0.6796875
aF1
atp215
a(I01
(lp216
F0.14556962025316456
aF0.6796875
aF1
atp217
a(I00
(lp218
F0.53164556962025311
aF0.4453125
aF0.9453125
atp219
a(I01
(lp220
F0
aF0
aF0.7265625
atp221
a(I01
(lp222
F0
aF0
aF0.7265625
atp223
a(I01
(lp224
F0
aF0
aF0.7265625
atp225
a(N(lp226
F0
aF0
aF0.828125
atp227
a(N(lp228
F0
aF0
aF0.828125
atp229
a(I01
(lp230
F0
aF0
aF0.7265625
atp231
a(I01
(lp232
F0
aF0
aF0.7265625
atp233
a(I01
(lp234
F0
aF0
aF0.7265625
atp235
a(N(lp236
F0.53164556962025311
aF0.4453125
aF0.9453125
atp237
aa(lp238
(N(lp239
F0.53164556962025311
aF0.4453125
aF0.9453125
atp240
a(I00
(lp241
F0.53164556962025311
aF0.4453125
aF0.9453125
atp242
a(I01
g148
tp243
a(I01
g148
tp244
a(I01
g148
tp245
a(I01
g148
tp246
a(I01
g148
tp247
a(N(lp248
F0.53164556962025311
aF0.4453125
aF0.9453125
atp249
a(N(lp250
F0.53164556962025311
aF0.4453125
aF0.9453125
atp251
a(N(lp252
F0.53164556962025311
aF0.4453125
aF0.9453125
atp253
a(N(lp254
F0.53164556962025311
aF0.4453125
aF0.9453125
atp255
a(N(lp256
F0.53164556962025311
aF0.4453125
aF0.9453125
atp257
a(N(lp258
F0.53164556962025311
aF0.4453125
aF0.9453125
atp259
a(I01
(lp260
F0.13924050632911392
aF0.640625
aF0.71875
atp261
a(I01
(lp262
F0.14556962025316456
aF0.6796875
aF1
atp263
a(I01
(lp264
F0.14556962025316456
aF0.6796875
aF1
atp265
a(N(lp266
F0
aF0
aF0.7265625
atp267
a(N(lp268
F0
aF0
aF0.7265625
atp269
a(N(lp270
F0
aF0
aF0.828125
atp271
a(I00
(lp272
F0
aF0
aF0.828125
atp273
a(I00
(lp274
F0
aF0
aF0.828125
atp275
a(I00
(lp276
F0
aF0
aF0.828125
atp277
a(N(lp278
F0
aF0
aF0.828125
atp279
a(I01
(lp280
F0
aF0
aF0.7265625
atp281
a(I01
(lp282
F0
aF0
aF0.7265625
atp283
aa(lp284
(N(lp285
F0.53164556962025311
aF0.28125
aF0.921875
atp286
a(I01
g148
tp287
a(I01
g148
tp288
a(I01
g148
tp289
a(N(lp290
F0
aF0
aF0.828125
atp291
a(I01
g148
tp292
a(I01
g148
tp293
a(N(lp294
F0.53164556962025311
aF0.28125
aF0.921875
atp295
a(N(lp296
F0.53164556962025311
aF0.28125
aF0.921875
atp297
a(N(lp298
F0.53164556962025311
aF0.28125
aF0.921875
atp299
a(N(lp300
F0.53164556962025311
aF0.28125
aF0.921875
atp301
a(I01
g148
tp302
a(I01
g148
tp303
a(N(lp304
F0
aF0
aF0.7265625
atp305
a(I01
(lp306
F0.13924050632911392
aF0.640625
aF0.71875
atp307
a(I01
(lp308
F0.14556962025316456
aF0.6796875
aF1
atp309
a(I01
(lp310
F0.14556962025316456
aF0.6796875
aF1
atp311
a(I00
(lp312
F0
aF0
aF0.828125
atp313
a(I00
(lp314
F0
aF0
aF0.828125
atp315
a(I00
(lp316
F0
aF0
aF0.828125
atp317
a(I01
(lp318
F0.025316455696202531
aF0.6015625
aF0.8515625
atp319
a(I01
(lp320
F0.025316455696202531
aF0.6015625
aF0.8515625
atp321
a(N(lp322
F0
aF0
aF0.828125
atp323
a(N(lp324
F0
aF0
aF0.828125
atp325
a(I01
(lp326
F0
aF0
aF0.7265625
atp327
aa(lp328
(I01
g148
tp329
a(I01
g148
tp330
a(N(lp331
F0
aF0
aF0.828125
atp332
a(N(lp333
F0
aF0
aF0.828125
atp334
a(N(lp335
F0
aF0
aF0.828125
atp336
a(N(lp337
F0
aF0
aF0.828125
atp338
a(I01
g148
tp339
a(I01
g148
tp340
a(N(lp341
F0.53164556962025311
aF0.28125
aF0.921875
atp342
a(I01
g148
tp343
a(I01
g148
tp344
a(I01
g148
tp345
a(I01
g148
tp346
a(N(lp347
F0
aF0
aF0.7265625
atp348
a(N(lp349
F0
aF0
aF0.828125
atp350
a(I01
(lp351
F0.13924050632911392
aF0.640625
aF0.71875
atp352
a(I01
(lp353
F0.14556962025316456
aF0.6796875
aF1
atp354
a(I01
(lp355
F0.14556962025316456
aF0.6796875
aF0.8515625
atp356
a(I00
(lp357
F0
aF0
aF0.828125
atp358
a(I01
(lp359
F0.12341772151898735
aF0.09375
aF0.9609375
atp360
a(I01
(lp361
F0.025316455696202531
aF0.6015625
aF0.8515625
atp362
a(I01
(lp363
F0.028481012658227847
aF0.671875
aF0.6953125
atp364
a(N(lp365
F0
aF0
aF0.828125
atp366
a(N(lp367
F0
aF0
aF0.828125
atp368
a(N(lp369
F0
aF0
aF0.828125
atp370
aa(lp371
(I01
g148
tp372
a(N(lp373
F0
aF0
aF0.828125
atp374
a(N(lp375
F0
aF0
aF0.828125
atp376
a(N(lp377
F0
aF0
aF0.828125
atp378
a(N(lp379
F0
aF0
aF0.828125
atp380
a(N(lp381
F0
aF0
aF0.828125
atp382
a(N(lp383
F0
aF0
aF0.828125
atp384
a(I01
g148
tp385
a(I01
g148
tp386
a(I01
g148
tp387
a(I01
g148
tp388
a(I01
g148
tp389
a(N(lp390
F0
aF0
aF0.828125
atp391
a(I00
(lp392
F0
aF0
aF0.828125
atp393
a(N(lp394
F0
aF0
aF0.828125
atp395
a(I01
(lp396
F0.13924050632911392
aF0.640625
aF0.71875
atp397
a(I01
(lp398
F0.14556962025316456
aF0.6796875
aF0.8515625
atp399
a(I01
(lp400
F0.14556962025316456
aF0.6796875
aF1
atp401
a(I01
(lp402
F0.13924050632911392
aF0.640625
aF0.71875
atp403
a(I01
(lp404
F0.12341772151898735
aF0.09375
aF0.765625
atp405
a(I01
(lp406
F0.028481012658227847
aF0.671875
aF0.6953125
atp407
a(I01
(lp408
F0.028481012658227847
aF0.671875
aF0.6953125
atp409
a(N(lp410
F0
aF0
aF0.90625
atp411
a(N(lp412
F0
aF0
aF0.828125
atp413
a(N(lp414
F0
aF0
aF0.828125
atp415
aa(lp416
(I00
(lp417
F0
aF0
aF0.828125
atp418
a(I00
(lp419
F0
aF0
aF0.828125
atp420
a(I00
(lp421
F0
aF0
aF0.828125
atp422
a(I00
(lp423
F0
aF0
aF0.90625
atp424
a(I00
g423
tp425
a(I00
(lp426
F0
aF0
aF0.828125
atp427
a(I00
(lp428
F0
aF0
aF0.828125
atp429
a(I00
(lp430
F0
aF0
aF0.828125
atp431
a(I01
g148
tp432
a(I01
g148
tp433
a(N(lp434
F0
aF0
aF0.828125
atp435
a(N(lp436
F0
aF0
aF0.828125
atp437
a(I00
(lp438
F0
aF0
aF0.828125
atp439
a(I00
(lp440
F0
aF0
aF0.828125
atp441
a(I01
(lp442
F0.13924050632911392
aF0.640625
aF0.71875
atp443
a(I01
(lp444
F0.14556962025316456
aF0.6796875
aF1
atp445
a(I01
(lp446
F0.14556962025316456
aF0.6796875
aF1
atp447
a(I01
(lp448
F0.14556962025316456
aF0.6796875
aF1
atp449
a(I01
(lp450
F0.14556962025316456
aF0.6796875
aF1
atp451
a(I01
(lp452
F0.13924050632911392
aF0.640625
aF0.71875
atp453
a(Ng410
tp454
a(Ng410
tp455
a(Ng410
tp456
a(Ng410
tp457
a(N(lp458
F0
aF0
aF0.828125
atp459
aa(lp460
(I00
(lp461
F0
aF0
aF0.828125
atp462
a(I00
(lp463
F0
aF0
aF0.828125
atp464
a(N(lp465
F0
aF0
aF0.90625
atp466
a(I01
(lp467
F0.42405063291139239
aF0.4921875
aF0.6640625
atp468
a(I01
(lp469
F0.42405063291139239
aF0.4921875
aF0.6640625
atp470
a(I01
(lp471
F0.42405063291139239
aF0.4921875
aF0.6640625
atp472
a(I00
(lp473
F0
aF0
aF0.828125
atp474
a(I00
(lp475
F0
aF0
aF0.828125
atp476
a(I00
(lp477
F0
aF0
aF0.828125
atp478
a(I00
(lp479
F0
aF0
aF0.828125
atp480
a(I00
(lp481
F0
aF0
aF0.828125
atp482
a(I00
(lp483
F0
aF0
aF0.828125
atp484
a(I00
(lp485
F0
aF0
aF0.90625
atp486
a(I00
g485
tp487
a(I01
(lp488
F0.13924050632911392
aF0.640625
aF0.71875
atp489
a(I01
(lp490
F0.14556962025316456
aF0.6796875
aF1
atp491
a(I01
(lp492
F0.14556962025316456
aF0.6796875
aF1
atp493
a(I01
(lp494
F0.14556962025316456
aF0.6796875
aF1
atp495
a(I01
(lp496
F0.14556962025316456
aF0.6796875
aF1
atp497
a(I01
(lp498
F0.13924050632911392
aF0.640625
aF0.71875
atp499
a(Ng410
tp500
a(I00
g410
tp501
a(Ng410
tp502
a(Ng410
tp503
a(Ng410
tp504
aa(lp505
(I00
(lp506
F0
aF0
aF0.828125
atp507
a(I01
(lp508
F0.42405063291139239
aF0.4921875
aF0.6640625
atp509
a(I01
(lp510
F0.42405063291139239
aF0.4921875
aF0.6640625
atp511
a(I01
(lp512
F0.42405063291139239
aF0.4921875
aF0.6640625
atp513
a(I01
(lp514
F0.42405063291139239
aF0.4921875
aF0.6640625
atp515
a(I01
(lp516
F0.42405063291139239
aF0.4921875
aF0.6640625
atp517
a(I01
(lp518
F0.42405063291139239
aF0.4921875
aF0.6640625
atp519
a(I01
(lp520
F0.42405063291139239
aF0.4921875
aF0.6640625
atp521
a(N(lp522
F0
aF0
aF0.828125
atp523
a(I00
(lp524
F0
aF0
aF0.828125
atp525
a(I00
g485
tp526
a(I00
g485
tp527
a(I00
g485
tp528
a(I01
(lp529
F0.028481012658227847
aF0.671875
aF0.6953125
atp530
a(I01
(lp531
F0.025316455696202531
aF0.6015625
aF0.8515625
atp532
a(I01
(lp533
F0.13924050632911392
aF0.640625
aF0.71875
atp534
a(I01
(lp535
F0.14556962025316456
aF0.6796875
aF1
atp536
a(I01
(lp537
F0.14556962025316456
aF0.6796875
aF1
atp538
a(I01
(lp539
F0.13924050632911392
aF0.640625
aF0.71875
atp540
a(I01
(lp541
F0.13924050632911392
aF0.640625
aF0.71875
atp542
a(I01
(lp543
F0.13924050632911392
aF0.640625
aF0.71875
atp544
a(I00
g410
tp545
a(Ng410
tp546
a(Ng410
tp547
a(Ng410
tp548
aa(lp549
(I01
(lp550
F0.42405063291139239
aF0.4921875
aF0.6640625
atp551
a(I01
(lp552
F0.42405063291139239
aF0.4921875
aF0.6640625
atp553
a(I01
(lp554
F0.42405063291139239
aF0.4921875
aF0.4140625
atp555
a(I01
(lp556
F0.42405063291139239
aF0.4921875
aF0.4140625
atp557
a(I01
(lp558
F0.42405063291139239
aF0.4921875
aF0.4140625
atp559
a(I01
(lp560
F0.42405063291139239
aF0.4921875
aF0.4140625
atp561
a(I01
(lp562
F0.42405063291139239
aF0.4921875
aF0.4140625
atp563
a(I01
(lp564
F0.42405063291139239
aF0.4921875
aF0.6640625
atp565
a(I01
(lp566
F0.42405063291139239
aF0.4921875
aF0.6640625
atp567
a(I01
(lp568
F0.028481012658227847
aF0.671875
aF0.6953125
atp569
a(I01
(lp570
F0.028481012658227847
aF0.671875
aF0.6953125
atp571
a(I01
(lp572
F0.028481012658227847
aF0.671875
aF0.6953125
atp573
a(I01
(lp574
F0.025316455696202531
aF0.6015625
aF0.8515625
atp575
a(I01
(lp576
F0.025316455696202531
aF0.6015625
aF0.8515625
atp577
a(I01
(lp578
F0.025316455696202531
aF0.6015625
aF0.8515625
atp579
a(I01
(lp580
F0.025316455696202531
aF0.6015625
aF0.8515625
atp581
a(I01
(lp582
F0.13924050632911392
aF0.640625
aF0.71875
atp583
a(I01
(lp584
F0.13924050632911392
aF0.640625
aF0.71875
atp585
a(N(lp586
F0
aF0
aF0.90625
atp587
a(I01
(lp588
F0.13924050632911392
aF0.640625
aF0.71875
atp589
a(I01
(lp590
F0.13924050632911392
aF0.640625
aF0.71875
atp591
a(Ng410
tp592
a(Ng410
tp593
a(Ng410
tp594
a(Ng410
tp595
aa(lp596
(I01
(lp597
F0.42405063291139239
aF0.4921875
aF0.6640625
atp598
a(I01
(lp599
F0.42405063291139239
aF0.4921875
aF0.4140625
atp600
a(I01
(lp601
F0.42405063291139239
aF0.4921875
aF0.4140625
atp602
a(I01
(lp603
F0.42405063291139239
aF0.4921875
aF0.4140625
atp604
a(I01
(lp605
F0.42405063291139239
aF0.4921875
aF0.4140625
atp606
a(I01
(lp607
F0.42405063291139239
aF0.4921875
aF0.4140625
atp608
a(I01
(lp609
F0.42405063291139239
aF0.4921875
aF0.4140625
atp610
a(I01
(lp611
F0.42405063291139239
aF0.4921875
aF0.4140625
atp612
a(I01
(lp613
F0.42405063291139239
aF0.4921875
aF0.4140625
atp614
a(I01
(lp615
F0.42405063291139239
aF0.4921875
aF0.6640625
atp616
a(I01
(lp617
F0.025316455696202531
aF0.6015625
aF0.8515625
atp618
a(I01
(lp619
F0.025316455696202531
aF0.6015625
aF0.8515625
atp620
a(I01
(lp621
F0.025316455696202531
aF0.6015625
aF0.8515625
atp622
a(I01
(lp623
F0.025316455696202531
aF0.6015625
aF0.8515625
atp624
a(I01
(lp625
F0.025316455696202531
aF0.6015625
aF0.8515625
atp626
a(I01
(lp627
F0.028481012658227847
aF0.671875
aF0.6953125
atp628
a(I01
(lp629
F0.028481012658227847
aF0.671875
aF0.6953125
atp630
a(I01
(lp631
F0.028481012658227847
aF0.671875
aF0.6953125
atp632
a(I01
(lp633
F0.13924050632911392
aF0.640625
aF0.71875
atp634
a(N(lp635
F0
aF0
aF0.90625
atp636
a(I01
(lp637
F0.13924050632911392
aF0.640625
aF0.71875
atp638
a(I01
(lp639
F0.13924050632911392
aF0.640625
aF0.71875
atp640
a(Ng410
tp641
a(Ng410
tp642
a(Ng410
tp643
aa(lp644
(I01
(lp645
F0.73734177215189878
aF0.359375
aF0.4140625
atp646
a(I01
(lp647
F0.42405063291139239
aF0.4921875
aF0.4140625
atp648
a(I01
(lp649
F0.42405063291139239
aF0.4921875
aF0.4140625
atp650
a(I01
(lp651
F0.42405063291139239
aF0.4921875
aF0.4140625
atp652
a(I01
g645
tp653
a(I01
g645
tp654
a(I01
g645
tp655
a(I01
g645
tp656
a(I01
g645
tp657
a(I01
(lp658
F0.73734177215189878
aF0.359375
aF0.4140625
atp659
a(I01
(lp660
F0.73734177215189878
aF0.359375
aF0.6328125
atp661
a(I01
(lp662
F0.025316455696202531
aF0.6015625
aF0.8515625
atp663
a(I01
(lp664
F0.025316455696202531
aF0.6015625
aF0.8515625
atp665
a(I01
(lp666
F0.028481012658227847
aF0.671875
aF0.6953125
atp667
a(I01
(lp668
F0.028481012658227847
aF0.671875
aF0.6953125
atp669
a(I00
(lp670
F0
aF0
aF0.90625
atp671
a(I01
(lp672
F0.028481012658227847
aF0.671875
aF0.6953125
atp673
a(I01
(lp674
F0.028481012658227847
aF0.671875
aF0.6953125
atp675
a(I01
(lp676
F0.028481012658227847
aF0.671875
aF0.6953125
atp677
a(I00
g635
tp678
a(I01
(lp679
F0.13924050632911392
aF0.640625
aF0.71875
atp680
a(I01
(lp681
F0.13924050632911392
aF0.640625
aF0.71875
atp682
a(I01
(lp683
F0.13924050632911392
aF0.640625
aF0.71875
atp684
a(I01
(lp685
F0.13924050632911392
aF0.640625
aF0.71875
atp686
a(I01
(lp687
F0.1550632911392405
aF0.0078125
aF0.5546875
atp688
aa(lp689
(I01
g645
tp690
a(I01
g645
tp691
a(I01
g645
tp692
a(I01
g645
tp693
a(I01
g645
tp694
a(I01
g645
tp695
a(I01
g645
tp696
a(I01
(lp697
F0.73734177215189878
aF0.359375
aF0.4140625
atp698
a(I01
(lp699
F0.73734177215189878
aF0.359375
aF0.4140625
atp700
a(I01
(lp701
F0.73734177215189878
aF0.359375
aF0.4140625
atp702
a(I01
(lp703
F0.73734177215189878
aF0.359375
aF0.4140625
atp704
a(I01
(lp705
F0.73734177215189878
aF0.359375
aF0.6328125
atp706
a(I01
(lp707
F0.028481012658227847
aF0.671875
aF0.6953125
atp708
a(I01
(lp709
F0.028481012658227847
aF0.671875
aF0.6953125
atp710
a(I00
g670
tp711
a(I00
g670
tp712
a(Ng670
tp713
a(I01
(lp714
F0.028481012658227847
aF0.671875
aF0.6953125
atp715
a(I01
(lp716
F0.028481012658227847
aF0.671875
aF0.6953125
atp717
a(Ng635
tp718
a(I00
g635
tp719
a(Ng635
tp720
a(I01
(lp721
F0.13924050632911392
aF0.640625
aF0.71875
atp722
a(I01
(lp723
F0.1550632911392405
aF0.0078125
aF0.5546875
atp724
a(I01
(lp725
F0.1550632911392405
aF0.0078125
aF0.5546875
atp726
aa(lp727
(I00
(lp728
F0
aF0
aF0.90625
atp729
a(I01
g645
tp730
a(I01
g645
tp731
a(I01
g645
tp732
a(I01
g645
tp733
a(I01
g645
tp734
a(I01
g645
tp735
a(I01
g645
tp736
a(I01
(lp737
F0.42405063291139239
aF0.4921875
aF0.4140625
atp738
a(I01
(lp739
F0.42405063291139239
aF0.4921875
aF0.4140625
atp740
a(I01
(lp741
F0.42405063291139239
aF0.4921875
aF0.4140625
atp742
a(I01
(lp743
F0.42405063291139239
aF0.4921875
aF0.4140625
atp744
a(I01
(lp745
F0.42405063291139239
aF0.4921875
aF0.6640625
atp746
a(I00
g670
tp747
a(I00
g670
tp748
a(I00
g670
tp749
a(I00
g670
tp750
a(I01
(lp751
F0.028481012658227847
aF0.671875
aF0.6953125
atp752
a(I01
(lp753
F0.028481012658227847
aF0.671875
aF0.6953125
atp754
a(I01
(lp755
F0.028481012658227847
aF0.671875
aF0.6953125
atp756
a(Ng635
tp757
a(Ng635
tp758
a(Ng635
tp759
a(Ng635
tp760
a(Ng635
tp761
aa(lp762
(I00
g728
tp763
a(I00
g728
tp764
a(I01
(lp765
F0.42405063291139239
aF0.4921875
aF0.4140625
atp766
a(I01
(lp767
F0.42405063291139239
aF0.4921875
aF0.4140625
atp768
a(I01
(lp769
F0.42405063291139239
aF0.4921875
aF0.4140625
atp770
a(I01
(lp771
F0.42405063291139239
aF0.4921875
aF0.4140625
atp772
a(I01
(lp773
F0.42405063291139239
aF0.4921875
aF0.4140625
atp774
a(I01
(lp775
F0.42405063291139239
aF0.4921875
aF0.4140625
atp776
a(I01
(lp777
F0.42405063291139239
aF0.4921875
aF0.4140625
atp778
a(I01
(lp779
F0.42405063291139239
aF0.4921875
aF0.4140625
atp780
a(I01
(lp781
F0.42405063291139239
aF0.4921875
aF0.4140625
atp782
a(I01
(lp783
F0.42405063291139239
aF0.4921875
aF0.4140625
atp784
a(I01
(lp785
F0.42405063291139239
aF0.4921875
aF0.4140625
atp786
a(I01
(lp787
F0.42405063291139239
aF0.4921875
aF0.6640625
atp788
a(I00
(lp789
F0
aF0
aF0.96875
atp790
a(I00
g789
tp791
a(I00
g789
tp792
a(I01
(lp793
F0.028481012658227847
aF0.671875
aF0.6953125
atp794
a(I01
(lp795
F0.028481012658227847
aF0.671875
aF0.6953125
atp796
a(I01
(lp797
F0.028481012658227847
aF0.671875
aF0.6953125
atp798
a(N(lp799
F0
aF0
aF0.96875
atp800
a(Ng799
tp801
a(Ng635
tp802
a(Ng635
tp803
a(Ng635
tp804
aa(lp805
(I00
g728
tp806
a(I00
g728
tp807
a(Ng728
tp808
a(Ng728
tp809
a(I01
(lp810
F0.42405063291139239
aF0.4921875
aF0.4140625
atp811
a(I01
(lp812
F0.42405063291139239
aF0.4921875
aF0.4140625
atp813
a(I01
(lp814
F0.42405063291139239
aF0.4921875
aF0.4140625
atp815
a(I01
(lp816
F0.42405063291139239
aF0.4921875
aF0.4140625
atp817
a(I01
(lp818
F0.42405063291139239
aF0.4921875
aF0.4140625
atp819
a(I01
(lp820
F0.42405063291139239
aF0.4921875
aF0.4140625
atp821
a(I01
(lp822
F0.42405063291139239
aF0.4921875
aF0.4140625
atp823
a(I01
(lp824
F0.42405063291139239
aF0.4921875
aF0.4140625
atp825
a(I01
(lp826
F0.42405063291139239
aF0.4921875
aF0.4140625
atp827
a(I01
(lp828
F0.42405063291139239
aF0.4921875
aF0.4140625
atp829
a(I01
(lp830
F0.42405063291139239
aF0.4921875
aF0.6640625
atp831
a(I00
g789
tp832
a(I00
g789
tp833
a(Ng789
tp834
a(I01
(lp835
F0.028481012658227847
aF0.671875
aF0.6953125
atp836
a(I01
(lp837
F0.028481012658227847
aF0.671875
aF0.6953125
atp838
a(I00
g799
tp839
a(I00
g799
tp840
a(Ng799
tp841
a(Ng799
tp842
a(Ng799
tp843
aa(lp844
(I00
g728
tp845
a(I00
g728
tp846
a(I00
g728
tp847
a(I00
(lp848
F0
aF0
aF0.96875
atp849
a(Ng848
tp850
a(I01
g645
tp851
a(I01
g645
tp852
a(I01
g645
tp853
a(I01
(lp854
F0.42405063291139239
aF0.4921875
aF0.4140625
atp855
a(I01
(lp856
F0.42405063291139239
aF0.4921875
aF0.4140625
atp857
a(I01
(lp858
F0.42405063291139239
aF0.4921875
aF0.4140625
atp859
a(I01
(lp860
F0.42405063291139239
aF0.4921875
aF0.4140625
atp861
a(I01
(lp862
F0.73734177215189878
aF0.359375
aF0.4140625
atp863
a(I01
g645
tp864
a(I01
g645
tp865
a(I01
(lp866
F0.73734177215189878
aF0.359375
aF0.6328125
atp867
a(I00
g789
tp868
a(I01
(lp869
F0.028481012658227847
aF0.671875
aF0.6953125
atp870
a(I01
(lp871
F0.028481012658227847
aF0.671875
aF0.6953125
atp872
a(I01
(lp873
F0.028481012658227847
aF0.671875
aF0.6953125
atp874
a(Ng799
tp875
a(I00
g799
tp876
a(Ng799
tp877
a(Ng799
tp878
a(Ng799
tp879
aa(lp880
(Ng728
tp881
a(Ng848
tp882
a(Ng848
tp883
a(Ng848
tp884
a(Ng848
tp885
a(Ng848
tp886
a(Ng848
tp887
a(I01
g645
tp888
a(I01
g645
tp889
a(I01
g645
tp890
a(I01
g645
tp891
a(I01
g645
tp892
a(I01
g645
tp893
a(I01
g645
tp894
a(I01
g645
tp895
a(I01
g645
tp896
a(I01
(lp897
F0.73734177215189878
aF0.359375
aF0.6328125
atp898
a(I01
(lp899
F0.028481012658227847
aF0.671875
aF0.6953125
atp900
a(I01
(lp901
F0.028481012658227847
aF0.671875
aF0.6953125
atp902
a(I01
(lp903
F0.028481012658227847
aF0.671875
aF0.6953125
atp904
a(I00
g799
tp905
a(Ng799
tp906
a(N(lp907
F0
aF0
aF0.96875
atp908
a(I01
(lp909
F0.55696202531645567
aF0.09375
aF0.875
atp910
a(I01
(lp911
F0.55696202531645567
aF0.09375
aF0.875
atp912
aa(lp913
(Ng848
tp914
a(Ng848
tp915
a(Ng848
tp916
a(Ng848
tp917
a(Ng848
tp918
a(Ng848
tp919
a(I00
g848
tp920
a(Ng848
tp921
a(Ng848
tp922
a(I01
g645
tp923
a(I01
g645
tp924
a(I01
g645
tp925
a(I01
g645
tp926
a(I01
g645
tp927
a(I01
(lp928
F0.42405063291139239
aF0.4921875
aF0.4140625
atp929
a(I01
(lp930
F0.42405063291139239
aF0.4921875
aF0.4140625
atp931
a(I01
(lp932
F0.42405063291139239
aF0.4921875
aF0.4140625
atp933
a(I01
(lp934
F0.42405063291139239
aF0.4921875
aF0.6640625
atp935
a(I01
(lp936
F0.028481012658227847
aF0.671875
aF0.6953125
atp937
a(Ng799
tp938
a(I00
(lp939
F0
aF0
aF0.96875
atp940
a(I01
(lp941
F0.55696202531645567
aF0.09375
aF0.875
atp942
a(I01
(lp943
F0.55696202531645567
aF0.09375
aF0.875
atp944
a(I01
(lp945
F0
aF0
aF0.96875
atp946
a(I01
(lp947
F0
aF0
aF0.96875
atp948
aa(lp949
(Ng848
tp950
a(Ng848
tp951
a(Ng848
tp952
a(Ng848
tp953
a(Ng848
tp954
a(Ng848
tp955
a(I00
g848
tp956
a(I00
g848
tp957
a(I00
g848
tp958
a(Ng848
tp959
a(Ng848
tp960
a(I01
(lp961
F0.42405063291139239
aF0.4921875
aF0.4140625
atp962
a(I01
(lp963
F0.42405063291139239
aF0.4921875
aF0.4140625
atp964
a(I01
(lp965
F0.42405063291139239
aF0.4921875
aF0.4140625
atp966
a(I01
(lp967
F0.42405063291139239
aF0.4921875
aF0.4140625
atp968
a(I01
(lp969
F0.42405063291139239
aF0.4921875
aF0.4140625
atp970
a(I01
(lp971
F0.42405063291139239
aF0.4921875
aF0.4140625
atp972
a(I01
(lp973
F0.42405063291139239
aF0.4921875
aF0.4140625
atp974
a(I01
(lp975
F0.42405063291139239
aF0.4921875
aF0.6640625
atp976
a(N(lp977
F0
aF0
aF0.96875
atp978
a(I01
(lp979
F0.55696202531645567
aF0.09375
aF0.875
atp980
a(I01
(lp981
F0
aF0
aF0.96875
atp982
a(I01
g947
tp983
a(I01
g947
tp984
a(I01
g947
tp985
aa(lp986
(Ng848
tp987
a(Ng848
tp988
a(Ng848
tp989
a(Ng848
tp990
a(Ng848
tp991
a(Ng848
tp992
a(I00
g848
tp993
a(I00
g848
tp994
a(I00
g848
tp995
a(I00
g848
tp996
a(I00
g848
tp997
a(Ng848
tp998
a(Ng848
tp999
a(I01
(lp1000
F0.42405063291139239
aF0.4921875
aF0.4140625
atp1001
a(I01
(lp1002
F0.42405063291139239
aF0.4921875
aF0.4140625
atp1003
a(I01
(lp1004
F0.73734177215189878
aF0.359375
aF0.4140625
atp1005
a(I01
g645
tp1006
a(I01
g645
tp1007
a(I01
g645
tp1008
a(I01
(lp1009
F0.73734177215189878
aF0.359375
aF0.6328125
atp1010
a(Ng947
tp1011
a(I01
g947
tp1012
a(I01
g947
tp1013
a(I01
g947
tp1014
a(I01
g947
tp1015
aa(lp1016
(I00
g848
tp1017
a(I00
g848
tp1018
a(I00
g848
tp1019
a(I00
g848
tp1020
a(I00
g848
tp1021
a(I00
g848
tp1022
a(I00
g848
tp1023
a(I00
(lp1024
F0
aF0
aF0.96875
atp1025
a(I01
(lp1026
F0.55696202531645567
aF0.09375
aF0.875
atp1027
a(I01
(lp1028
F0.55696202531645567
aF0.09375
aF0.875
atp1029
a(I01
(lp1030
F0.55696202531645567
aF0.09375
aF0.875
atp1031
a(I01
(lp1032
F0.55696202531645567
aF0.09375
aF0.875
atp1033
a(I01
(lp1034
F0.55696202531645567
aF0.09375
aF0.875
atp1035
a(N(lp1036
F0
aF0
aF0.96875
atp1037
a(N(lp1038
F0
aF0
aF0.96875
atp1039
a(I01
(lp1040
F0.42405063291139239
aF0.4921875
aF0.4140625
atp1041
a(I01
(lp1042
F0.42405063291139239
aF0.4921875
aF0.4140625
atp1043
a(I01
(lp1044
F0.42405063291139239
aF0.4921875
aF0.4140625
atp1045
a(I01
(lp1046
F0.42405063291139239
aF0.4921875
aF0.4140625
atp1047
a(I01
(lp1048
F0.42405063291139239
aF0.4921875
aF0.4140625
atp1049
a(I01
(lp1050
F0.42405063291139239
aF0.4921875
aF0.6640625
atp1051
a(Ng947
tp1052
a(I01
g947
tp1053
a(I01
g947
tp1054
a(I01
g947
tp1055
aa(lp1056
(I00
g848
tp1057
a(I00
g848
tp1058
a(I00
(lp1059
F0
aF0
aF0.96875
atp1060
a(I01
(lp1061
F0.55696202531645567
aF0.09375
aF0.875
atp1062
a(I01
(lp1063
F0.55696202531645567
aF0.09375
aF0.875
atp1064
a(I01
(lp1065
F0.55696202531645567
aF0.09375
aF0.875
atp1066
a(I01
(lp1067
F0.55696202531645567
aF0.09375
aF0.875
atp1068
a(I01
(lp1069
F0.55696202531645567
aF0.09375
aF0.875
atp1070
a(I01
(lp1071
F0
aF0
aF0.96875
atp1072
a(I01
(lp1073
F0
aF0
aF0.96875
atp1074
a(I01
(lp1075
F0
aF0
aF0.96875
atp1076
a(I01
g1075
tp1077
a(I01
g1075
tp1078
a(I01
g1075
tp1079
a(I01
g1075
tp1080
a(Ng1075
tp1081
a(Ng1075
tp1082
a(I01
(lp1083
F0.42405063291139239
aF0.4921875
aF0.4140625
atp1084
a(I01
(lp1085
F0.42405063291139239
aF0.4921875
aF0.4140625
atp1086
a(I01
(lp1087
F0.42405063291139239
aF0.4921875
aF0.4140625
atp1088
a(Ng947
tp1089
a(I01
g947
tp1090
a(I01
g947
tp1091
a(I01
g947
tp1092
a(I01
g947
tp1093
aasS'height'
p1094
I25
sS'width'
p1095
I25
sS'column_numbers'
p1096
(lp1097
(I2
I4
tp1098
a(I2
I6
tp1099
a(I2
I7
tp1100
a(I3
I8
I1
tp1101
a(I3
I9
I1
tp1102
a(I3
I10
I1
tp1103
a(I3
I9
I1
tp1104
a(I2
I10
I1
tp1105
a(I2
I2
I9
I2
tp1106
a(I3
I3
I10
I2
tp1107
a(I3
I2
I10
I2
tp1108
a(I3
I3
I11
I2
tp1109
a(I2
I2
I11
I2
tp1110
a(I2
I5
I7
I1
tp1111
a(I3
I6
I6
I1
tp1112
a(I9
I6
tp1113
a(I1
I9
I5
tp1114
a(I2
I11
I7
tp1115
a(I3
I4
I13
tp1116
a(I3
I6
I5
I3
tp1117
a(I3
I3
I4
I1
I1
tp1118
a(I3
I3
I2
I3
I1
tp1119
a(I2
I2
I5
tp1120
a(I2
I2
I6
tp1121
a(I2
I2
I6
tp1122
asS'background'
p1123
S'blue'
p1124
sb.