ccopy_reg
_reconstructor
p1
(cpuzzle
Puzzle
p2
c__builtin__
object
p3
NtRp4
(dp5
S'row_numbers'
p6
(lp7
(I1
tp8
a(I3
tp9
a(I9
tp10
a(I7
tp11
a(I1
I1
tp12
a(I1
I1
I4
tp13
a(I11
I8
tp14
a(I9
I1
I2
tp15
a(I1
I6
tp16
a(I1
I3
I6
I3
tp17
a(I1
I7
I3
I4
tp18
a(I8
I1
I2
I2
I1
I1
tp19
a(I10
I4
I2
I2
tp20
a(I1
I1
I2
I3
tp21
a(I1
I1
I5
tp22
a(I1
I3
tp23
a(I8
I3
tp24
a(I2
I1
I1
I2
I2
tp25
a(I1
I1
I1
I1
I1
I1
I3
tp26
a(I2
I10
I2
I5
tp27
a(I3
I3
I1
I7
tp28
a(I1
I1
I1
I3
tp29
a(I2
I11
tp30
a(I4
I12
tp31
a(I2
I14
tp32
asS'name'
p33
VJapanese Garden
p34
sS'cells'
p35
(lp36
(lp37
(I00
(lp38
F0.51582278481012656
aF0.0390625
aF0.9375
atp39
a(I00
g38
tp40
a(I00
g38
tp41
a(I00
g38
tp42
a(I00
g38
tp43
a(I00
g38
tp44
a(I01
(lp45
F0.24683544303797469
aF0.203125
aF0.5234375
atp46
a(N(lp47
F0.51582278481012656
aF0.0390625
aF0.9375
atp48
a(I00
g47
tp49
a(I00
g47
tp50
a(I00
g47
tp51
a(I00
g47
tp52
a(I00
g47
tp53
a(I00
g47
tp54
a(I00
g47
tp55
a(I00
g47
tp56
a(I00
g47
tp57
a(I00
g47
tp58
a(I00
g47
tp59
a(I00
g47
tp60
a(I00
g47
tp61
a(I00
g47
tp62
a(I00
g47
tp63
a(I00
g47
tp64
a(I00
g47
tp65
aa(lp66
(I00
g38
tp67
a(I00
g38
tp68
a(Ng38
tp69
a(Ng38
tp70
a(I00
g38
tp71
a(I01
g45
tp72
a(I01
g45
tp73
a(I01
g45
tp74
a(Ng47
tp75
a(I00
g47
tp76
a(Ng47
tp77
a(I00
g47
tp78
a(I00
g47
tp79
a(I00
g47
tp80
a(I00
g47
tp81
a(I00
g47
tp82
a(I00
g47
tp83
a(I00
g47
tp84
a(I00
g47
tp85
a(I00
g47
tp86
a(I00
g47
tp87
a(I00
g47
tp88
a(I00
g47
tp89
a(I00
g47
tp90
a(I00
g47
tp91
aa(lp92
(I00
g38
tp93
a(I00
g38
tp94
a(I01
(lp95
F0.24683544303797469
aF0.203125
aF0.640625
atp96
a(I01
g45
tp97
a(I01
g45
tp98
a(I01
g45
tp99
a(I01
g45
tp100
a(I01
g45
tp101
a(I01
g45
tp102
a(I01
g45
tp103
a(I01
(lp104
F0.24683544303797469
aF0.203125
aF0.640625
atp105
a(Ng47
tp106
a(I00
g47
tp107
a(I00
g47
tp108
a(I00
g47
tp109
a(I00
g47
tp110
a(I00
g47
tp111
a(I00
g47
tp112
a(I00
g47
tp113
a(I00
g47
tp114
a(I00
g47
tp115
a(I00
g47
tp116
a(I00
g47
tp117
a(I00
g47
tp118
a(I00
g47
tp119
aa(lp120
(I00
g38
tp121
a(I00
g38
tp122
a(I00
g38
tp123
a(I01
(lp124
F0.24683544303797469
aF0.203125
aF0.640625
atp125
a(I01
g124
tp126
a(I01
g124
tp127
a(I01
g124
tp128
a(I01
g124
tp129
a(I01
g124
tp130
a(I01
g124
tp131
a(Ng47
tp132
a(I00
g47
tp133
a(I00
g47
tp134
a(I00
g47
tp135
a(I00
g47
tp136
a(I00
g47
tp137
a(I00
g47
tp138
a(I00
g47
tp139
a(I00
g47
tp140
a(I00
g47
tp141
a(I00
g47
tp142
a(I00
g47
tp143
a(I00
g47
tp144
a(I00
g47
tp145
a(I00
g47
tp146
aa(lp147
(I00
g38
tp148
a(I00
g38
tp149
a(I00
g38
tp150
a(I00
g38
tp151
a(I01
(lp152
F0.022151898734177215
aF0.3203125
aF0.7109375
atp153
a(N(lp154
F0.51582278481012656
aF0.0390625
aF0.9375
atp155
a(I00
g154
tp156
a(I00
g154
tp157
a(I01
(lp158
F0.022151898734177215
aF0.3203125
aF0.7109375
atp159
a(Ng47
tp160
a(I00
g47
tp161
a(I00
g47
tp162
a(I00
g47
tp163
a(I00
g47
tp164
a(I00
g47
tp165
a(I00
g47
tp166
a(Ng47
tp167
a(Ng47
tp168
a(Ng47
tp169
a(Ng47
tp170
a(Ng47
tp171
a(I00
g47
tp172
a(I00
g47
tp173
a(I00
g47
tp174
a(I00
g47
tp175
aa(lp176
(I00
g38
tp177
a(I00
g38
tp178
a(Ng38
tp179
a(I00
g38
tp180
a(I01
g152
tp181
a(Ng154
tp182
a(I00
g154
tp183
a(I00
g154
tp184
a(I01
g158
tp185
a(Ng47
tp186
a(I00
g47
tp187
a(I00
g47
tp188
a(I00
g47
tp189
a(I00
g47
tp190
a(Ng47
tp191
a(Ng47
tp192
a(Ng47
tp193
a(I01
(lp194
F0.95569620253164556
aF0.359375
aF0.9375
atp195
a(I01
g194
tp196
a(I01
g194
tp197
a(I01
g194
tp198
a(Ng47
tp199
a(Ng47
tp200
a(Ng47
tp201
a(Ng47
tp202
aa(lp203
(I00
g38
tp204
a(I01
(lp205
F0.24683544303797469
aF0.203125
aF0.640625
atp206
a(I01
(lp207
F0.24683544303797469
aF0.203125
aF0.5234375
atp208
a(I01
g207
tp209
a(I01
g207
tp210
a(I01
g207
tp211
a(I01
g207
tp212
a(I01
g207
tp213
a(I01
g207
tp214
a(I01
g207
tp215
a(I01
g207
tp216
a(I01
(lp217
F0.24683544303797469
aF0.203125
aF0.640625
atp218
a(Ng47
tp219
a(I00
g47
tp220
a(Ng47
tp221
a(I01
g194
tp222
a(I01
g194
tp223
a(I01
g194
tp224
a(I01
g194
tp225
a(I01
g194
tp226
a(I01
g194
tp227
a(I01
g194
tp228
a(I01
g194
tp229
a(Ng47
tp230
a(Ng47
tp231
aa(lp232
(I00
g38
tp233
a(I00
g38
tp234
a(I01
(lp235
F0.24683544303797469
aF0.203125
aF0.640625
atp236
a(I01
g235
tp237
a(I01
g235
tp238
a(I01
g235
tp239
a(I01
g235
tp240
a(I01
g235
tp241
a(I01
g235
tp242
a(I01
g235
tp243
a(I01
g235
tp244
a(I00
g47
tp245
a(Ng47
tp246
a(Ng47
tp247
a(Ng47
tp248
a(Ng47
tp249
a(Ng47
tp250
a(Ng47
tp251
a(I01
(lp252
F0.091772151898734181
aF0.359375
aF0.6015625
atp253
a(N(lp254
F0.51582278481012656
aF0.0390625
aF0.9375
atp255
a(I01
(lp256
F0.091772151898734181
aF0.359375
aF0.6015625
atp257
a(I01
g256
tp258
a(Ng47
tp259
a(Ng47
tp260
a(Ng47
tp261
aa(lp262
(I00
g38
tp263
a(I00
g38
tp264
a(I00
g38
tp265
a(I01
(lp266
F0.022151898734177215
aF0.3203125
aF0.7109375
atp267
a(N(lp268
F0.51582278481012656
aF0.0390625
aF0.9375
atp269
a(I00
g268
tp270
a(I00
g268
tp271
a(I00
g268
tp272
a(I00
g268
tp273
a(N(lp274
F0.022151898734177215
aF0.3203125
aF0.7109375
atp275
a(Ng47
tp276
a(Ng47
tp277
a(Ng47
tp278
a(Ng47
tp279
a(Ng47
tp280
a(I01
(lp281
F0.95569620253164556
aF0.359375
aF0.9375
atp282
a(I01
g281
tp283
a(I01
g281
tp284
a(I01
g281
tp285
a(I01
g256
tp286
a(I01
g256
tp287
a(Ng47
tp288
a(Ng47
tp289
a(Ng47
tp290
a(Ng47
tp291
aa(lp292
(I00
g38
tp293
a(I00
g38
tp294
a(I00
g38
tp295
a(I01
g266
tp296
a(Ng268
tp297
a(I00
g268
tp298
a(I00
g268
tp299
a(I00
g268
tp300
a(Ng268
tp301
a(Ng274
tp302
a(I01
(lp303
F0.95569620253164556
aF0.359375
aF0.9375
atp304
a(I01
g303
tp305
a(I01
g303
tp306
a(Ng47
tp307
a(I01
g281
tp308
a(I01
g281
tp309
a(I01
g281
tp310
a(I01
g281
tp311
a(I01
g281
tp312
a(I01
g281
tp313
a(I00
g47
tp314
a(Ng47
tp315
a(I01
(lp316
F0.95569620253164556
aF0.359375
aF0.9375
atp317
a(I01
g316
tp318
a(I01
g316
tp319
aa(lp320
(I00
g38
tp321
a(Ng38
tp322
a(I00
g38
tp323
a(I01
g266
tp324
a(Ng268
tp325
a(I00
(lp326
F0.19303797468354431
aF0.1953125
aF0.8828125
atp327
a(I00
(lp328
F0.19303797468354431
aF0.1953125
aF0.8828125
atp329
a(I00
(lp330
F0.19303797468354431
aF0.1953125
aF0.8828125
atp331
a(I00
(lp332
F0.19303797468354431
aF0.1953125
aF0.8828125
atp333
a(I01
g303
tp334
a(I01
g303
tp335
a(I01
g303
tp336
a(I01
g303
tp337
a(I01
g303
tp338
a(I01
(lp339
F0.091772151898734181
aF0.359375
aF0.6015625
atp340
a(I01
g339
tp341
a(N(lp342
F0.51582278481012656
aF0.0390625
aF0.9375
atp343
a(I01
(lp344
F0.091772151898734181
aF0.359375
aF0.6015625
atp345
a(I01
g344
tp346
a(I01
g344
tp347
a(I00
g47
tp348
a(I01
g316
tp349
a(I01
g316
tp350
a(I01
g316
tp351
a(I01
g316
tp352
aa(lp353
(I01
(lp354
F0.24683544303797469
aF0.203125
aF0.640625
atp355
a(I01
(lp356
F0.24683544303797469
aF0.203125
aF0.5234375
atp357
a(I01
g356
tp358
a(I01
g356
tp359
a(I01
g356
tp360
a(I01
g356
tp361
a(I01
g356
tp362
a(I01
g356
tp363
a(Ng356
tp364
a(Ng356
tp365
a(Ng356
tp366
a(Ng356
tp367
a(I01
(lp368
F0.091772151898734181
aF0.359375
aF0.6015625
atp369
a(N(lp370
F0.51582278481012656
aF0.0390625
aF0.9375
atp371
a(I01
(lp372
F0.95569620253164556
aF0.359375
aF0.9375
atp373
a(I01
g372
tp374
a(Ng342
tp375
a(I00
g342
tp376
a(I01
g344
tp377
a(I01
g344
tp378
a(Ng47
tp379
a(Ng47
tp380
a(I01
g344
tp381
a(N(lp382
F0.51582278481012656
aF0.0390625
aF0.9375
atp383
a(I01
(lp384
F0.091772151898734181
aF0.359375
aF0.6015625
atp385
aa(lp386
(I00
(lp387
F0.51582278481012656
aF0.0390625
aF0.9375
atp388
a(I01
(lp389
F0.24683544303797469
aF0.203125
aF0.640625
atp390
a(I01
g389
tp391
a(I01
g389
tp392
a(I01
g389
tp393
a(I01
g389
tp394
a(I01
g389
tp395
a(I01
g389
tp396
a(I01
g389
tp397
a(I01
g389
tp398
a(I01
g389
tp399
a(Ng389
tp400
a(N(lp401
F0.19303797468354431
aF0.1953125
aF0.8828125
atp402
a(I01
g372
tp403
a(I01
g372
tp404
a(I01
g372
tp405
a(I01
g372
tp406
a(N(lp407
F0.19303797468354431
aF0.1953125
aF0.8828125
atp408
a(N(lp409
F0.19303797468354431
aF0.1953125
aF0.8828125
atp410
a(I01
g344
tp411
a(I01
g344
tp412
a(Ng47
tp413
a(I01
g344
tp414
a(I01
g344
tp415
a(N(lp416
F0.19303797468354431
aF0.1953125
aF0.8828125
atp417
aa(lp418
(I00
(lp419
F0.19303797468354431
aF0.1953125
aF0.8828125
atp420
a(N(lp421
F0.19303797468354431
aF0.1953125
aF0.8828125
atp422
a(I01
(lp423
F0.022151898734177215
aF0.3203125
aF0.7109375
atp424
a(N(lp425
F0.19303797468354431
aF0.1953125
aF0.8828125
atp426
a(I00
(lp427
F0.19303797468354431
aF0.1953125
aF0.8828125
atp428
a(I00
(lp429
F0.19303797468354431
aF0.1953125
aF0.8828125
atp430
a(I00
(lp431
F0.19303797468354431
aF0.1953125
aF0.8828125
atp432
a(I00
(lp433
F0.19303797468354431
aF0.1953125
aF0.8828125
atp434
a(I00
(lp435
F0.19303797468354431
aF0.1953125
aF0.8828125
atp436
a(I00
(lp437
F0.19303797468354431
aF0.1953125
aF0.8828125
atp438
a(I01
(lp439
F0.022151898734177215
aF0.3203125
aF0.7109375
atp440
a(N(lp441
F0.19303797468354431
aF0.1953125
aF0.8828125
atp442
a(I00
(lp443
F0.19303797468354431
aF0.1953125
aF0.8828125
atp444
a(I00
(lp445
F0.19303797468354431
aF0.1953125
aF0.8828125
atp446
a(I00
(lp447
F0.19303797468354431
aF0.1953125
aF0.8828125
atp448
a(I00
(lp449
F0.19303797468354431
aF0.1953125
aF0.8828125
atp450
a(I01
g344
tp451
a(I01
g344
tp452
a(N(lp453
F0.19303797468354431
aF0.1953125
aF0.8828125
atp454
a(N(lp455
F0.19303797468354431
aF0.1953125
aF0.8828125
atp456
a(I01
g344
tp457
a(I01
g344
tp458
a(I01
g344
tp459
a(N(lp460
F0.19303797468354431
aF0.1953125
aF0.8828125
atp461
a(N(lp462
F0.19303797468354431
aF0.1953125
aF0.8828125
atp463
aa(lp464
(I00
(lp465
F0.19303797468354431
aF0.1953125
aF0.8828125
atp466
a(I00
(lp467
F0.19303797468354431
aF0.1953125
aF0.8828125
atp468
a(I01
g423
tp469
a(N(lp470
F0.19303797468354431
aF0.1953125
aF0.8828125
atp471
a(N(lp472
F0.19303797468354431
aF0.1953125
aF0.8828125
atp473
a(N(lp474
F0.19303797468354431
aF0.1953125
aF0.8828125
atp475
a(N(lp476
F0.19303797468354431
aF0.1953125
aF0.8828125
atp477
a(N(lp478
F0.19303797468354431
aF0.1953125
aF0.8828125
atp479
a(N(lp480
F0.19303797468354431
aF0.1953125
aF0.8828125
atp481
a(N(lp482
F0.19303797468354431
aF0.1953125
aF0.8828125
atp483
a(I01
g439
tp484
a(N(lp485
F0.19303797468354431
aF0.1953125
aF0.8828125
atp486
a(I00
(lp487
F0.19303797468354431
aF0.1953125
aF0.8828125
atp488
a(I00
(lp489
F0.19303797468354431
aF0.1953125
aF0.8828125
atp490
a(I00
(lp491
F0.19303797468354431
aF0.1953125
aF0.8828125
atp492
a(I00
(lp493
F0.19303797468354431
aF0.1953125
aF0.8828125
atp494
a(I00
(lp495
F0.19303797468354431
aF0.1953125
aF0.8828125
atp496
a(I01
g344
tp497
a(I01
g344
tp498
a(I01
g344
tp499
a(I01
g344
tp500
a(I01
g344
tp501
a(N(lp502
F0.19303797468354431
aF0.1953125
aF0.8828125
atp503
a(I00
(lp504
F0.19303797468354431
aF0.1953125
aF0.8828125
atp505
a(I00
(lp506
F0.19303797468354431
aF0.1953125
aF0.8828125
atp507
aa(lp508
(I00
(lp509
F0.19303797468354431
aF0.1953125
aF0.8828125
atp510
a(I00
(lp511
F0.19303797468354431
aF0.1953125
aF0.8828125
atp512
a(I01
g423
tp513
a(N(lp514
F0.19303797468354431
aF0.1953125
aF0.8828125
atp515
a(N(lp516
F0.19303797468354431
aF0.1953125
aF0.8828125
atp517
a(N(lp518
F0.19303797468354431
aF0.1953125
aF0.8828125
atp519
a(I00
(lp520
F0.19303797468354431
aF0.1953125
aF0.8828125
atp521
a(I00
(lp522
F0.19303797468354431
aF0.1953125
aF0.8828125
atp523
a(I00
(lp524
F0.19303797468354431
aF0.1953125
aF0.8828125
atp525
a(I00
(lp526
F0.21202531645569619
aF0.2421875
aF0.8203125
atp527
a(Ng439
tp528
a(N(lp529
F0.21202531645569619
aF0.2421875
aF0.8203125
atp530
a(N(lp531
F0.21202531645569619
aF0.2421875
aF0.8203125
atp532
a(N(lp533
F0.21202531645569619
aF0.2421875
aF0.8203125
atp534
a(I00
(lp535
F0.19303797468354431
aF0.1953125
aF0.8828125
atp536
a(I00
(lp537
F0.19303797468354431
aF0.1953125
aF0.8828125
atp538
a(I00
(lp539
F0.19303797468354431
aF0.1953125
aF0.8828125
atp540
a(I00
(lp541
F0.19303797468354431
aF0.1953125
aF0.8828125
atp542
a(I00
(lp543
F0.19303797468354431
aF0.1953125
aF0.8828125
atp544
a(I01
g344
tp545
a(I01
g344
tp546
a(I01
g344
tp547
a(N(lp548
F0.21202531645569619
aF0.2421875
aF0.8203125
atp549
a(I00
(lp550
F0.21202531645569619
aF0.2421875
aF0.8203125
atp551
a(I00
(lp552
F0.19303797468354431
aF0.1953125
aF0.8828125
atp553
aa(lp554
(I00
(lp555
F0.19303797468354431
aF0.1953125
aF0.8828125
atp556
a(N(lp557
F0.21202531645569619
aF0.2421875
aF0.8203125
atp558
a(Ng423
tp559
a(N(lp560
F0.21202531645569619
aF0.2421875
aF0.8203125
atp561
a(I01
(lp562
F0.0031645569620253164
aF0.734375
aF0.84375
atp563
a(I01
(lp564
F0.0031645569620253164
aF0.734375
aF0.84375
atp565
a(I01
(lp566
F0.0031645569620253164
aF0.734375
aF0.84375
atp567
a(I01
(lp568
F0.0031645569620253164
aF0.734375
aF0.84375
atp569
a(I01
(lp570
F0.0031645569620253164
aF0.734375
aF0.84375
atp571
a(I01
(lp572
F0.0031645569620253164
aF0.734375
aF0.84375
atp573
a(I01
(lp574
F0.0031645569620253164
aF0.734375
aF0.84375
atp575
a(I01
(lp576
F0.0031645569620253164
aF0.734375
aF0.84375
atp577
a(N(lp578
F0.21202531645569619
aF0.2421875
aF0.8203125
atp579
a(N(lp580
F0.21202531645569619
aF0.2421875
aF0.8203125
atp581
a(N(lp582
F0.21202531645569619
aF0.2421875
aF0.8203125
atp583
a(I00
(lp584
F0.19303797468354431
aF0.1953125
aF0.8828125
atp585
a(I00
(lp586
F0.19303797468354431
aF0.1953125
aF0.8828125
atp587
a(I00
(lp588
F0.19303797468354431
aF0.1953125
aF0.8828125
atp589
a(I00
(lp590
F0.21202531645569619
aF0.2421875
aF0.8203125
atp591
a(I00
(lp592
F0.21202531645569619
aF0.2421875
aF0.8203125
atp593
a(I01
g344
tp594
a(I01
g344
tp595
a(I01
g344
tp596
a(I00
(lp597
F0.21202531645569619
aF0.2421875
aF0.8203125
atp598
a(I00
(lp599
F0.21202531645569619
aF0.2421875
aF0.8203125
atp600
aa(lp601
(N(lp602
F0.21202531645569619
aF0.2421875
aF0.8203125
atp603
a(N(lp604
F0.21202531645569619
aF0.2421875
aF0.8203125
atp605
a(I01
(lp606
F0.0031645569620253164
aF0.734375
aF0.84375
atp607
a(I01
(lp608
F0.0031645569620253164
aF0.734375
aF0.84375
atp609
a(N(lp610
F0.21202531645569619
aF0.2421875
aF0.8203125
atp611
a(I01
(lp612
F0.0031645569620253164
aF0.734375
aF0.84375
atp613
a(N(lp614
F0.19303797468354431
aF0.1953125
aF0.8828125
atp615
a(Ng614
tp616
a(N(lp617
F0.21202531645569619
aF0.2421875
aF0.8203125
atp618
a(N(lp619
F0.21202531645569619
aF0.2421875
aF0.8203125
atp620
a(I01
(lp621
F0.0031645569620253164
aF0.734375
aF0.84375
atp622
a(N(lp623
F0.21202531645569619
aF0.2421875
aF0.8203125
atp624
a(I01
(lp625
F0.0031645569620253164
aF0.734375
aF0.84375
atp626
a(I01
(lp627
F0.0031645569620253164
aF0.734375
aF0.84375
atp628
a(N(lp629
F0.21202531645569619
aF0.2421875
aF0.8203125
atp630
a(N(lp631
F0.21202531645569619
aF0.2421875
aF0.8203125
atp632
a(N(lp633
F0.21202531645569619
aF0.2421875
aF0.8203125
atp634
a(N(lp635
F0.21202531645569619
aF0.2421875
aF0.8203125
atp636
a(N(lp637
F0.21202531645569619
aF0.2421875
aF0.8203125
atp638
a(N(lp639
F0.21202531645569619
aF0.2421875
aF0.8203125
atp640
a(N(lp641
F0.21202531645569619
aF0.2421875
aF0.8203125
atp642
a(I01
g344
tp643
a(I01
g344
tp644
a(N(lp645
F0.21202531645569619
aF0.2421875
aF0.8203125
atp646
a(N(lp647
F0.21202531645569619
aF0.2421875
aF0.8203125
atp648
aa(lp649
(N(lp650
F0.21202531645569619
aF0.2421875
aF0.8203125
atp651
a(I01
(lp652
F0.0031645569620253164
aF0.734375
aF0.84375
atp653
a(N(lp654
F0.018987341772151899
aF0.0078125
aF0.75
atp655
a(I01
(lp656
F0.0031645569620253164
aF0.734375
aF0.84375
atp657
a(N(lp658
F0.018987341772151899
aF0.0078125
aF0.75
atp659
a(I01
(lp660
F0.0031645569620253164
aF0.734375
aF0.84375
atp661
a(N(lp662
F0.018987341772151899
aF0.0078125
aF0.75
atp663
a(N(lp664
F0.018987341772151899
aF0.0078125
aF0.75
atp665
a(N(lp666
F0.018987341772151899
aF0.0078125
aF0.75
atp667
a(N(lp668
F0.018987341772151899
aF0.0078125
aF0.75
atp669
a(I01
(lp670
F0.0031645569620253164
aF0.734375
aF0.84375
atp671
a(N(lp672
F0.018987341772151899
aF0.0078125
aF0.75
atp673
a(I01
(lp674
F0.0031645569620253164
aF0.734375
aF0.84375
atp675
a(N(lp676
F0.21202531645569619
aF0.2421875
aF0.8203125
atp677
a(I01
(lp678
F0.0031645569620253164
aF0.734375
aF0.84375
atp679
a(N(lp680
F0.21202531645569619
aF0.2421875
aF0.8203125
atp681
a(N(lp682
F0.21202531645569619
aF0.2421875
aF0.8203125
atp683
a(I00
(lp684
F0.21202531645569619
aF0.2421875
aF0.8203125
atp685
a(I00
(lp686
F0.21202531645569619
aF0.2421875
aF0.8203125
atp687
a(N(lp688
F0.21202531645569619
aF0.2421875
aF0.8203125
atp689
a(N(lp690
F0.21202531645569619
aF0.2421875
aF0.8203125
atp691
a(I01
g344
tp692
a(I01
g344
tp693
a(I01
g344
tp694
a(N(lp695
F0.21202531645569619
aF0.2421875
aF0.8203125
atp696
aa(lp697
(I01
(lp698
F0.0031645569620253164
aF0.734375
aF0.84375
atp699
a(I01
(lp700
F0.0031645569620253164
aF0.734375
aF0.84375
atp701
a(N(lp702
F0.018987341772151899
aF0.0078125
aF0.75
atp703
a(I01
(lp704
F0.0031645569620253164
aF0.734375
aF0.84375
atp705
a(I01
(lp706
F0.0031645569620253164
aF0.734375
aF0.84375
atp707
a(I01
(lp708
F0.0031645569620253164
aF0.734375
aF0.84375
atp709
a(I01
(lp710
F0.0031645569620253164
aF0.734375
aF0.84375
atp711
a(I01
(lp712
F0.0031645569620253164
aF0.734375
aF0.84375
atp713
a(I01
(lp714
F0.0031645569620253164
aF0.734375
aF0.84375
atp715
a(I01
(lp716
F0.0031645569620253164
aF0.734375
aF0.84375
atp717
a(I01
(lp718
F0.0031645569620253164
aF0.734375
aF0.84375
atp719
a(I01
(lp720
F0.0031645569620253164
aF0.734375
aF0.84375
atp721
a(I01
(lp722
F0.0031645569620253164
aF0.734375
aF0.84375
atp723
a(N(lp724
F0.018987341772151899
aF0.0078125
aF0.75
atp725
a(I01
(lp726
F0.0031645569620253164
aF0.734375
aF0.84375
atp727
a(I01
(lp728
F0.0031645569620253164
aF0.734375
aF0.84375
atp729
a(N(lp730
F0.21202531645569619
aF0.2421875
aF0.8203125
atp731
a(I00
(lp732
F0.21202531645569619
aF0.2421875
aF0.8203125
atp733
a(I00
(lp734
F0.21202531645569619
aF0.2421875
aF0.8203125
atp735
a(I00
(lp736
F0.21202531645569619
aF0.2421875
aF0.8203125
atp737
a(I01
g344
tp738
a(I01
g344
tp739
a(I01
g344
tp740
a(I01
g344
tp741
a(I01
g344
tp742
aa(lp743
(N(lp744
F0.018987341772151899
aF0.0078125
aF0.75
atp745
a(I01
(lp746
F0.0031645569620253164
aF0.734375
aF0.84375
atp747
a(I01
(lp748
F0.0031645569620253164
aF0.734375
aF0.84375
atp749
a(I01
(lp750
F0.0031645569620253164
aF0.734375
aF0.84375
atp751
a(I00
(lp752
F0.018987341772151899
aF0.0078125
aF0.75
atp753
a(I00
(lp754
F0.018987341772151899
aF0.0078125
aF0.75
atp755
a(I00
(lp756
F0.018987341772151899
aF0.0078125
aF0.75
atp757
a(I00
(lp758
F0.018987341772151899
aF0.0078125
aF0.75
atp759
a(I00
(lp760
F0.018987341772151899
aF0.0078125
aF0.75
atp761
a(I00
(lp762
F0.018987341772151899
aF0.0078125
aF0.75
atp763
a(I00
(lp764
F0.018987341772151899
aF0.0078125
aF0.75
atp765
a(N(lp766
F0.018987341772151899
aF0.0078125
aF0.75
atp767
a(I01
(lp768
F0.0031645569620253164
aF0.734375
aF0.84375
atp769
a(I01
(lp770
F0.0031645569620253164
aF0.734375
aF0.84375
atp771
a(I01
(lp772
F0.0031645569620253164
aF0.734375
aF0.84375
atp773
a(N(lp774
F0.21202531645569619
aF0.2421875
aF0.8203125
atp775
a(I01
(lp776
F0.0031645569620253164
aF0.734375
aF0.84375
atp777
a(I00
(lp778
F0.21202531645569619
aF0.2421875
aF0.8203125
atp779
a(I01
(lp780
F0.21518987341772153
aF0.40625
aF0.7578125
atp781
a(I01
(lp782
F0.21518987341772153
aF0.40625
aF0.7578125
atp783
a(I01
(lp784
F0.21518987341772153
aF0.40625
aF0.7578125
atp785
a(I01
(lp786
F0.21518987341772153
aF0.40625
aF0.7578125
atp787
a(I01
(lp788
F0.21518987341772153
aF0.40625
aF0.7578125
atp789
a(I01
(lp790
F0.21518987341772153
aF0.40625
aF0.7578125
atp791
a(I01
(lp792
F0.21518987341772153
aF0.40625
aF0.7578125
atp793
aa(lp794
(N(lp795
F0.57594936708860756
aF0.15625
aF1
atp796
a(I01
(lp797
F0.0031645569620253164
aF0.734375
aF0.84375
atp798
a(N(lp799
F0.57594936708860756
aF0.15625
aF1
atp800
a(N(lp801
F0.57594936708860756
aF0.15625
aF1
atp802
a(N(lp803
F0.57594936708860756
aF0.15625
aF1
atp804
a(N(lp805
F0.57594936708860756
aF0.15625
aF1
atp806
a(N(lp807
F0.57594936708860756
aF0.15625
aF1
atp808
a(I00
(lp809
F0.57594936708860756
aF0.15625
aF1
atp810
a(I00
(lp811
F0.57594936708860756
aF0.15625
aF1
atp812
a(I00
(lp813
F0.57594936708860756
aF0.15625
aF1
atp814
a(I00
(lp815
F0.57594936708860756
aF0.15625
aF1
atp816
a(I00
(lp817
F0.57594936708860756
aF0.15625
aF1
atp818
a(N(lp819
F0.57594936708860756
aF0.15625
aF1
atp820
a(I00
(lp821
F0.57594936708860756
aF0.15625
aF1
atp822
a(I01
(lp823
F0.0031645569620253164
aF0.734375
aF0.84375
atp824
a(N(lp825
F0.57594936708860756
aF0.15625
aF1
atp826
a(I01
(lp827
F0.0031645569620253164
aF0.734375
aF0.84375
atp828
a(I00
(lp829
F0.57594936708860756
aF0.15625
aF1
atp830
a(I00
(lp831
F0.57594936708860756
aF0.15625
aF1
atp832
a(I00
(lp833
F0.57594936708860756
aF0.15625
aF1
atp834
a(I00
(lp835
F0.57594936708860756
aF0.15625
aF1
atp836
a(I00
(lp837
F0.57594936708860756
aF0.15625
aF1
atp838
a(I01
(lp839
F0.23101265822784811
aF0.5390625
aF0.71875
atp840
a(I01
(lp841
F0.23101265822784811
aF0.5390625
aF0.71875
atp842
a(I01
(lp843
F0.23101265822784811
aF0.5390625
aF0.71875
atp844
aa(lp845
(I01
(lp846
F0.0031645569620253164
aF0.734375
aF0.84375
atp847
a(I01
(lp848
F0.23101265822784811
aF0.5390625
aF0.71875
atp849
a(N(lp850
F0.57594936708860756
aF0.15625
aF1
atp851
a(I00
(lp852
F0.57594936708860756
aF0.15625
aF1
atp853
a(I00
(lp854
F0.57594936708860756
aF0.15625
aF1
atp855
a(I00
(lp856
F0.57594936708860756
aF0.15625
aF1
atp857
a(I00
(lp858
F0.57594936708860756
aF0.15625
aF1
atp859
a(N(lp860
F0.57594936708860756
aF0.15625
aF1
atp861
a(N(lp862
F0.57594936708860756
aF0.15625
aF1
atp863
a(N(lp864
F0.57594936708860756
aF0.15625
aF1
atp865
a(N(lp866
F0.57594936708860756
aF0.15625
aF1
atp867
a(N(lp868
F0.57594936708860756
aF0.15625
aF1
atp869
a(N(lp870
F0.57594936708860756
aF0.15625
aF1
atp871
a(N(lp872
F0.57594936708860756
aF0.15625
aF1
atp873
a(I01
(lp874
F0.23101265822784811
aF0.5390625
aF0.71875
atp875
a(I01
(lp876
F0.0031645569620253164
aF0.734375
aF0.84375
atp877
a(I01
(lp878
F0.0031645569620253164
aF0.734375
aF0.84375
atp879
a(I01
(lp880
F0.23101265822784811
aF0.5390625
aF0.71875
atp881
a(I01
(lp882
F0.23101265822784811
aF0.5390625
aF0.71875
atp883
a(I01
(lp884
F0.23101265822784811
aF0.5390625
aF0.71875
atp885
a(I01
(lp886
F0.23101265822784811
aF0.5390625
aF0.71875
atp887
a(I01
(lp888
F0.23101265822784811
aF0.5390625
aF0.71875
atp889
a(I01
(lp890
F0.23101265822784811
aF0.5390625
aF0.71875
atp891
a(I01
(lp892
F0.23101265822784811
aF0.5390625
aF0.71875
atp893
a(I01
(lp894
F0.23101265822784811
aF0.5390625
aF0.71875
atp895
aa(lp896
(I01
(lp897
F0.24367088607594936
aF0.6953125
aF0.484375
atp898
a(I01
(lp899
F0.24367088607594936
aF0.6953125
aF0.5625
atp900
a(I01
(lp901
F0.24367088607594936
aF0.6953125
aF0.640625
atp902
a(I01
(lp903
F0.24367088607594936
aF0.6953125
aF0.640625
atp904
a(N(lp905
F0.57594936708860756
aF0.2578125
aF1
atp906
a(I00
(lp907
F0.57594936708860756
aF0.2578125
aF1
atp908
a(I00
(lp909
F0.57594936708860756
aF0.2578125
aF1
atp910
a(I00
(lp911
F0.57594936708860756
aF0.2578125
aF1
atp912
a(I00
(lp913
F0.57594936708860756
aF0.2578125
aF1
atp914
a(I00
(lp915
F0.57594936708860756
aF0.2578125
aF1
atp916
a(N(lp917
F0.57594936708860756
aF0.2578125
aF1
atp918
a(N(lp919
F0.57594936708860756
aF0.2578125
aF1
atp920
a(N(lp921
F0.57594936708860756
aF0.2578125
aF1
atp922
a(I01
(lp923
F0.24367088607594936
aF0.6953125
aF0.640625
atp924
a(I01
(lp925
F0.24367088607594936
aF0.6953125
aF0.5625
atp926
a(I01
(lp927
F0.24367088607594936
aF0.6953125
aF0.484375
atp928
a(I01
(lp929
F0.0031645569620253164
aF0.734375
aF0.84375
atp930
a(I01
(lp931
F0.24367088607594936
aF0.6953125
aF0.640625
atp932
a(I01
g931
tp933
a(I01
g931
tp934
a(I01
g931
tp935
a(I01
g931
tp936
a(I01
g931
tp937
a(I01
(lp938
F0.24367088607594936
aF0.6953125
aF0.640625
atp939
a(I01
(lp940
F0.24367088607594936
aF0.6953125
aF0.640625
atp941
aa(lp942
(I01
(lp943
F0.24367088607594936
aF0.6953125
aF0.640625
atp944
a(I01
(lp945
F0.24367088607594936
aF0.6953125
aF0.640625
atp946
a(N(lp947
F0.57594936708860756
aF0.2578125
aF1
atp948
a(I00
(lp949
F0.76265822784810122
aF0.2578125
aF0.9609375
atp950
a(I00
(lp951
F0.57594936708860756
aF0.2578125
aF1
atp952
a(I00
(lp953
F0.76265822784810122
aF0.2578125
aF0.9609375
atp954
a(I00
g953
tp955
a(I00
g953
tp956
a(I00
(lp957
F0.57594936708860756
aF0.2578125
aF1
atp958
a(I00
(lp959
F0.76265822784810122
aF0.2578125
aF0.9609375
atp960
a(I00
g959
tp961
a(I01
g931
tp962
a(I01
g931
tp963
a(I01
g931
tp964
a(I01
g931
tp965
a(I01
g931
tp966
a(I01
g931
tp967
a(I01
g931
tp968
a(I01
g931
tp969
a(I01
g931
tp970
a(I01
g931
tp971
a(I01
(lp972
F0.24367088607594936
aF0.6953125
aF0.640625
atp973
a(I01
(lp974
F0.24367088607594936
aF0.6953125
aF0.640625
atp975
a(I01
(lp976
F0.24367088607594936
aF0.6953125
aF0.640625
atp977
a(I01
(lp978
F0.24367088607594936
aF0.6953125
aF0.640625
atp979
aasS'height'
p980
I25
sS'width'
p981
I25
sS'column_numbers'
p982
(lp983
(I1
I1
I3
tp984
a(I1
I2
I7
tp985
a(I1
I2
I5
I1
I1
I1
tp986
a(I2
I7
I4
I1
tp987
a(I6
I2
I1
I1
tp988
a(I3
I2
I2
I4
tp989
a(I4
I2
I2
I1
I1
tp990
a(I3
I2
I2
I1
I1
tp991
a(I6
I1
I1
I1
tp992
a(I2
I2
I1
I1
I1
I1
tp993
a(I1
I2
I2
I3
I4
tp994
a(I1
I2
I1
I1
I1
tp995
a(I3
I4
I1
tp996
a(I1
I1
I1
I1
I2
tp997
a(I4
I7
tp998
a(I1
I5
I1
I3
tp999
a(I1
I2
I2
I5
tp1000
a(I2
I3
I2
I3
tp1001
a(I7
I1
I1
I3
tp1002
a(I2
I5
I2
I1
I3
tp1003
a(I4
I5
I2
I3
tp1004
a(I2
I1
I8
I3
tp1005
a(I1
I5
I9
tp1006
a(I2
I1
I7
tp1007
a(I3
I6
tp1008
asS'background'
p1009
S'blue'
p1010
sb.