ccopy_reg
_reconstructor
p0
(cpuzzle
Puzzle
p1
c__builtin__
object
p2
Ntp3
Rp4
(dp5
S'row_numbers'
p6
(lp7
(I2
tp8
a(I5
tp9
a(I7
tp10
a(I3
I4
tp11
a(I10
tp12
a(I2
I3
I3
tp13
a(I13
tp14
a(I2
I2
I6
tp15
a(I1
I6
I2
tp16
a(I7
I5
tp17
a(I3
I10
tp18
a(I1
I4
I2
I1
I1
tp19
a(I8
tp20
a(I1
I6
tp21
a(I2
I3
I1
tp22
a(I4
I6
tp23
a(I1
I10
tp24
a(I1
I3
I1
I2
tp25
a(I2
tp26
a(I2
tp27
a(I3
tp28
a(I3
tp29
a(I3
tp30
a(I2
tp31
a(I2
tp32
a(I2
tp33
a(I2
tp34
a(I2
tp35
a(I2
tp36
a(I2
tp37
asS'name'
p38
VBirch Tree
p39
sS'cells'
p40
(lp41
(lp42
(I00
(lp43
F0.4620253164556962
aF0.171875
aF0.9296875
atp44
a(I00
g43
tp45
a(I00
g43
tp46
a(Ng43
tp47
a(Ng43
tp48
a(Ng43
tp49
a(I00
g43
tp50
a(I01
(lp51
F0.25316455696202533
aF0.5078125
aF0.734375
atp52
a(I01
(lp53
F0.25316455696202533
aF0.5625
aF0.6484375
atp54
a(I00
(lp55
F0.4620253164556962
aF0.171875
aF0.9296875
atp56
a(I00
g55
tp57
a(I00
g55
tp58
a(Ng55
tp59
a(I00
g55
tp60
a(I00
g55
tp61
aa(lp62
(I00
g43
tp63
a(I00
g43
tp64
a(Ng43
tp65
a(Ng43
tp66
a(Ng43
tp67
a(I01
(lp68
F0.25316455696202533
aF0.5078125
aF0.734375
atp69
a(I01
(lp70
F0.25316455696202533
aF0.5078125
aF0.734375
atp71
a(I01
(lp72
F0.25316455696202533
aF0.5078125
aF0.734375
atp73
a(I01
(lp74
F0.25316455696202533
aF0.5078125
aF0.734375
atp75
a(I01
(lp76
F0.25316455696202533
aF0.5625
aF0.6484375
atp77
a(Ng55
tp78
a(Ng55
tp79
a(Ng55
tp80
a(Ng55
tp81
a(I00
g55
tp82
aa(lp83
(I00
g43
tp84
a(I00
g43
tp85
a(Ng43
tp86
a(Ng43
tp87
a(I01
(lp88
F0.25316455696202533
aF0.5625
aF0.6484375
atp89
a(I01
(lp90
F0.25316455696202533
aF0.5625
aF0.6484375
atp91
a(I01
(lp92
F0.25316455696202533
aF0.5078125
aF0.734375
atp93
a(I01
(lp94
F0.25316455696202533
aF0.5078125
aF0.734375
atp95
a(I01
(lp96
F0.25316455696202533
aF0.5625
aF0.6484375
atp97
a(I01
(lp98
F0.25316455696202533
aF0.5625
aF0.6484375
atp99
a(I01
(lp100
F0.25316455696202533
aF0.5625
aF0.6484375
atp101
a(Ng55
tp102
a(Ng55
tp103
a(Ng55
tp104
a(Ng55
tp105
aa(lp106
(I00
g43
tp107
a(I00
g43
tp108
a(Ng43
tp109
a(I01
(lp110
F0.25316455696202533
aF0.5078125
aF0.734375
atp111
a(I01
(lp112
F0.25316455696202533
aF0.5078125
aF0.734375
atp113
a(I01
(lp114
F0.25316455696202533
aF0.5625
aF0.6484375
atp115
a(N(lp116
F0.4620253164556962
aF0.171875
aF0.9296875
atp117
a(I01
(lp118
F0.25316455696202533
aF0.5078125
aF0.734375
atp119
a(I01
(lp120
F0.25316455696202533
aF0.5078125
aF0.734375
atp121
a(I01
(lp122
F0.25316455696202533
aF0.5625
aF0.6484375
atp123
a(I01
(lp124
F0.25316455696202533
aF0.5078125
aF0.734375
atp125
a(Ng55
tp126
a(Ng55
tp127
a(Ng55
tp128
a(Ng55
tp129
aa(lp130
(I00
g43
tp131
a(I00
g43
tp132
a(I00
g43
tp133
a(I01
(lp134
F0.25316455696202533
aF0.5078125
aF0.734375
atp135
a(I01
(lp136
F0.25316455696202533
aF0.5078125
aF0.734375
atp137
a(I01
(lp138
F0.12025316455696203
aF0.125
aF0.5
atp139
a(I01
(lp140
F0.25316455696202533
aF0.5078125
aF0.734375
atp141
a(I01
(lp142
F0.25316455696202533
aF0.5078125
aF0.734375
atp143
a(I01
(lp144
F0.25316455696202533
aF0.5078125
aF0.734375
atp145
a(I01
(lp146
F0.25316455696202533
aF0.5078125
aF0.734375
atp147
a(I01
(lp148
F0.25316455696202533
aF0.5625
aF0.6484375
atp149
a(I01
(lp150
F0.12025316455696203
aF0.125
aF0.5
atp151
a(I01
(lp152
F0.12025316455696203
aF0.125
aF0.5
atp153
a(Ng55
tp154
a(Ng55
tp155
aa(lp156
(I00
g43
tp157
a(I01
(lp158
F0.25316455696202533
aF0.5625
aF0.6484375
atp159
a(I01
(lp160
F0.25316455696202533
aF0.5625
aF0.6484375
atp161
a(I00
(lp162
F0.4620253164556962
aF0.171875
aF0.9296875
atp163
a(I00
g162
tp164
a(I01
(lp165
F0.25316455696202533
aF0.5078125
aF0.734375
atp166
a(I01
(lp167
F0.12025316455696203
aF0.125
aF0.4375
atp168
a(I01
(lp169
F0.12025316455696203
aF0.125
aF0.5
atp170
a(I00
(lp171
F0.4620253164556962
aF0.171875
aF0.9296875
atp172
a(I01
(lp173
F0.25316455696202533
aF0.5078125
aF0.734375
atp174
a(I01
(lp175
F0.12025316455696203
aF0.125
aF0.4375
atp176
a(I01
(lp177
F0.25316455696202533
aF0.5625
aF0.6484375
atp178
a(I00
g55
tp179
a(I00
g55
tp180
a(I00
g55
tp181
aa(lp182
(I01
(lp183
F0.25316455696202533
aF0.5078125
aF0.734375
atp184
a(I01
(lp185
F0.25316455696202533
aF0.5078125
aF0.734375
atp186
a(I01
(lp187
F0.12025316455696203
aF0.125
aF0.5
atp188
a(I01
(lp189
F0.25316455696202533
aF0.5078125
aF0.734375
atp190
a(I01
(lp191
F0.25316455696202533
aF0.5078125
aF0.734375
atp192
a(I01
(lp193
F0.25316455696202533
aF0.5625
aF0.6484375
atp194
a(I01
(lp195
F0.25316455696202533
aF0.5625
aF0.6484375
atp196
a(I01
(lp197
F0.25316455696202533
aF0.5078125
aF0.734375
atp198
a(I01
(lp199
F0.25316455696202533
aF0.5078125
aF0.734375
atp200
a(I01
(lp201
F0.12025316455696203
aF0.125
aF0.5
atp202
a(I01
(lp203
F0.25316455696202533
aF0.5078125
aF0.734375
atp204
a(I01
(lp205
F0.25316455696202533
aF0.5625
aF0.6484375
atp206
a(I01
(lp207
F0.25316455696202533
aF0.5625
aF0.6484375
atp208
a(Ng55
tp209
a(I00
g55
tp210
aa(lp211
(I01
(lp212
F0.25316455696202533
aF0.5078125
aF0.734375
atp213
a(I01
(lp214
F0.25316455696202533
aF0.5078125
aF0.734375
atp215
a(I00
(lp216
F0.4620253164556962
aF0.171875
aF0.9296875
atp217
a(I01
(lp218
F0.12025316455696203
aF0.125
aF0.5
atp219
a(I01
(lp220
F0.25316455696202533
aF0.5078125
aF0.734375
atp221
a(N(lp222
F0.4620253164556962
aF0.171875
aF0.9296875
atp223
a(I01
(lp224
F0.25316455696202533
aF0.5625
aF0.6484375
atp225
a(I01
(lp226
F0.12025316455696203
aF0.125
aF0.4375
atp227
a(I01
(lp228
F0.12025316455696203
aF0.125
aF0.5
atp229
a(I01
(lp230
F0.25316455696202533
aF0.5078125
aF0.734375
atp231
a(I01
(lp232
F0.25316455696202533
aF0.5078125
aF0.734375
atp233
a(I01
(lp234
F0.25316455696202533
aF0.5078125
aF0.734375
atp235
a(I00
g55
tp236
a(I00
g55
tp237
a(I00
g55
tp238
aa(lp239
(I01
(lp240
F0.25316455696202533
aF0.5078125
aF0.734375
atp241
a(I00
g216
tp242
a(I00
g216
tp243
a(I00
g216
tp244
a(I01
(lp245
F0.12025316455696203
aF0.125
aF0.5
atp246
a(I01
(lp247
F0.25316455696202533
aF0.5078125
aF0.734375
atp248
a(I01
(lp249
F0.25316455696202533
aF0.5078125
aF0.734375
atp250
a(I01
(lp251
F0.25316455696202533
aF0.5078125
aF0.734375
atp252
a(I01
(lp253
F0.25316455696202533
aF0.5625
aF0.6484375
atp254
a(I01
(lp255
F0.25316455696202533
aF0.5078125
aF0.734375
atp256
a(I00
(lp257
F0.4620253164556962
aF0.171875
aF0.9296875
atp258
a(Ng257
tp259
a(I01
(lp260
F0.25316455696202533
aF0.5078125
aF0.734375
atp261
a(I01
(lp262
F0.25316455696202533
aF0.5625
aF0.6484375
atp263
a(I00
g55
tp264
aa(lp265
(I00
g216
tp266
a(I00
g216
tp267
a(I01
(lp268
F0.25316455696202533
aF0.5625
aF0.6484375
atp269
a(I01
(lp270
F0.25316455696202533
aF0.5625
aF0.6484375
atp271
a(I01
(lp272
F0.25316455696202533
aF0.5078125
aF0.734375
atp273
a(I01
(lp274
F0.25316455696202533
aF0.5625
aF0.6484375
atp275
a(I01
(lp276
F0.12025316455696203
aF0.125
aF0.5
atp277
a(I01
(lp278
F0.25316455696202533
aF0.5078125
aF0.734375
atp279
a(I01
(lp280
F0.25316455696202533
aF0.5625
aF0.6484375
atp281
a(N(lp282
F0.4620253164556962
aF0.171875
aF0.9296875
atp283
a(I01
(lp284
F0.12025316455696203
aF0.125
aF0.5
atp285
a(I01
(lp286
F0.25316455696202533
aF0.5625
aF0.6484375
atp287
a(I01
(lp288
F0.25316455696202533
aF0.5625
aF0.6484375
atp289
a(I01
(lp290
F0.25316455696202533
aF0.5078125
aF0.734375
atp291
a(I01
(lp292
F0.25316455696202533
aF0.5625
aF0.6484375
atp293
aa(lp294
(I00
g216
tp295
a(I01
(lp296
F0.25316455696202533
aF0.5078125
aF0.734375
atp297
a(I01
(lp298
F0.25316455696202533
aF0.5078125
aF0.734375
atp299
a(I01
(lp300
F0.25316455696202533
aF0.5625
aF0.6484375
atp301
a(I00
(lp302
F0.4620253164556962
aF0.171875
aF0.9296875
atp303
a(I01
(lp304
F0.25316455696202533
aF0.5078125
aF0.734375
atp305
a(I01
(lp306
F0.25316455696202533
aF0.5078125
aF0.734375
atp307
a(I01
(lp308
F0.25316455696202533
aF0.5625
aF0.6484375
atp309
a(I01
(lp310
F0.12025316455696203
aF0.125
aF0.5
atp311
a(I01
(lp312
F0.12025316455696203
aF0.125
aF0.5
atp313
a(I01
(lp314
F0.25316455696202533
aF0.5078125
aF0.734375
atp315
a(I01
(lp316
F0.25316455696202533
aF0.5078125
aF0.734375
atp317
a(I01
(lp318
F0.25316455696202533
aF0.5625
aF0.6484375
atp319
a(I01
(lp320
F0.25316455696202533
aF0.5078125
aF0.734375
atp321
a(I01
(lp322
F0.25316455696202533
aF0.5625
aF0.6484375
atp323
aa(lp324
(I00
g216
tp325
a(I01
(lp326
F0.25316455696202533
aF0.5078125
aF0.734375
atp327
a(I00
g216
tp328
a(I00
g216
tp329
a(I01
(lp330
F0.25316455696202533
aF0.5625
aF0.6484375
atp331
a(I01
(lp332
F0.25316455696202533
aF0.5625
aF0.6484375
atp333
a(I01
(lp334
F0.25316455696202533
aF0.5625
aF0.6484375
atp335
a(I01
(lp336
F0.25316455696202533
aF0.5625
aF0.6484375
atp337
a(N(lp338
F0.4620253164556962
aF0.171875
aF0.9296875
atp339
a(I01
(lp340
F0.25316455696202533
aF0.5078125
aF0.734375
atp341
a(I01
(lp342
F0.25316455696202533
aF0.5625
aF0.6484375
atp343
a(I00
(lp344
F0.4620253164556962
aF0.171875
aF0.9296875
atp345
a(I01
(lp346
F0.25316455696202533
aF0.5625
aF0.6484375
atp347
a(Ng344
tp348
a(I01
(lp349
F0.25316455696202533
aF0.5625
aF0.6484375
atp350
aa(lp351
(I00
g216
tp352
a(I00
g216
tp353
a(I00
g216
tp354
a(I01
(lp355
F0.25316455696202533
aF0.5078125
aF0.734375
atp356
a(I01
(lp357
F0.25316455696202533
aF0.5078125
aF0.734375
atp358
a(I01
(lp359
F0.25316455696202533
aF0.5078125
aF0.734375
atp360
a(I01
(lp361
F0.25316455696202533
aF0.5625
aF0.6484375
atp362
a(I01
(lp363
F0.25316455696202533
aF0.5078125
aF0.734375
atp364
a(I01
(lp365
F0.25316455696202533
aF0.5625
aF0.6484375
atp366
a(I01
(lp367
F0.12025316455696203
aF0.125
aF0.5
atp368
a(I01
(lp369
F0.25316455696202533
aF0.5625
aF0.6484375
atp370
a(I00
g344
tp371
a(I00
g344
tp372
a(I00
g344
tp373
a(Ng344
tp374
aa(lp375
(I00
g216
tp376
a(I00
g216
tp377
a(Ng216
tp378
a(I00
g216
tp379
a(I01
(lp380
F0.25316455696202533
aF0.5078125
aF0.734375
atp381
a(N(lp382
F0.4620253164556962
aF0.171875
aF0.9296875
atp383
a(I01
(lp384
F0.12025316455696203
aF0.125
aF0.5
atp385
a(I01
(lp386
F0.12025316455696203
aF0.125
aF0.4375
atp387
a(I01
(lp388
F0.12025316455696203
aF0.125
aF0.5
atp389
a(I01
(lp390
F0.25316455696202533
aF0.5078125
aF0.734375
atp391
a(I01
(lp392
F0.25316455696202533
aF0.5078125
aF0.734375
atp393
a(I01
(lp394
F0.25316455696202533
aF0.5625
aF0.6484375
atp395
a(I00
g344
tp396
a(I00
g344
tp397
a(I00
g344
tp398
aa(lp399
(I00
g216
tp400
a(Ng216
tp401
a(I01
(lp402
F0.25316455696202533
aF0.5078125
aF0.734375
atp403
a(I01
(lp404
F0.25316455696202533
aF0.5625
aF0.6484375
atp405
a(I00
(lp406
F0.4620253164556962
aF0.171875
aF0.9296875
atp407
a(I01
(lp408
F0.25316455696202533
aF0.5078125
aF0.734375
atp409
a(I01
(lp410
F0.12025316455696203
aF0.125
aF0.5
atp411
a(I01
(lp412
F0.12025316455696203
aF0.125
aF0.5
atp413
a(I00
(lp414
F0.4620253164556962
aF0.171875
aF0.9296875
atp415
a(I01
(lp416
F0.25316455696202533
aF0.5078125
aF0.734375
atp417
a(I00
g344
tp418
a(I00
g344
tp419
a(I00
g344
tp420
a(I00
g344
tp421
a(I00
g344
tp422
aa(lp423
(Ng216
tp424
a(I01
(lp425
F0.25316455696202533
aF0.5078125
aF0.734375
atp426
a(I01
(lp427
F0.25316455696202533
aF0.5078125
aF0.734375
atp428
a(I01
(lp429
F0.25316455696202533
aF0.5078125
aF0.734375
atp430
a(I01
(lp431
F0.25316455696202533
aF0.5625
aF0.6484375
atp432
a(N(lp433
F0.4620253164556962
aF0.171875
aF0.9296875
atp434
a(I01
(lp435
F0.25316455696202533
aF0.5078125
aF0.734375
atp436
a(I01
(lp437
F0.25316455696202533
aF0.5078125
aF0.734375
atp438
a(I01
(lp439
F0.25316455696202533
aF0.5625
aF0.6484375
atp440
a(I01
(lp441
F0.25316455696202533
aF0.5625
aF0.6484375
atp442
a(I01
(lp443
F0.25316455696202533
aF0.5078125
aF0.734375
atp444
a(I01
(lp445
F0.25316455696202533
aF0.5625
aF0.6484375
atp446
a(I00
g344
tp447
a(I00
g344
tp448
a(I00
g344
tp449
aa(lp450
(Ng216
tp451
a(I01
(lp452
F0.25316455696202533
aF0.5078125
aF0.734375
atp453
a(Ng216
tp454
a(I01
(lp455
F0.25316455696202533
aF0.5078125
aF0.734375
atp456
a(I01
(lp457
F0.25316455696202533
aF0.5078125
aF0.734375
atp458
a(I01
(lp459
F0.25316455696202533
aF0.5625
aF0.6484375
atp460
a(I01
(lp461
F0.12025316455696203
aF0.125
aF0.5
atp462
a(I01
(lp463
F0.25316455696202533
aF0.5078125
aF0.734375
atp464
a(I01
(lp465
F0.25316455696202533
aF0.5078125
aF0.734375
atp466
a(I01
(lp467
F0.25316455696202533
aF0.5625
aF0.6484375
atp468
a(I01
(lp469
F0.25316455696202533
aF0.5078125
aF0.734375
atp470
a(I01
(lp471
F0.25316455696202533
aF0.5078125
aF0.734375
atp472
a(I01
(lp473
F0.25316455696202533
aF0.5625
aF0.6484375
atp474
a(I00
g344
tp475
a(I00
g344
tp476
aa(lp477
(Ng216
tp478
a(Ng216
tp479
a(I00
g216
tp480
a(I01
(lp481
F0.25316455696202533
aF0.5078125
aF0.734375
atp482
a(Ng216
tp483
a(I01
(lp484
F0.25316455696202533
aF0.5078125
aF0.734375
atp485
a(I01
(lp486
F0.12025316455696203
aF0.125
aF0.6328125
atp487
a(I01
(lp488
F0.12025316455696203
aF0.125
aF0.5
atp489
a(Ng344
tp490
a(I01
(lp491
F0.25316455696202533
aF0.5078125
aF0.734375
atp492
a(Ng344
tp493
a(I01
(lp494
F0.25316455696202533
aF0.5078125
aF0.734375
atp495
a(I01
(lp496
F0.25316455696202533
aF0.5625
aF0.6484375
atp497
a(I00
g344
tp498
a(I00
g344
tp499
aa(lp500
(I00
g216
tp501
a(I00
g216
tp502
a(I00
g216
tp503
a(I00
g216
tp504
a(Ng216
tp505
a(Ng216
tp506
a(I01
(lp507
F0.12025316455696203
aF0.125
aF0.7734375
atp508
a(I01
(lp509
F0.12025316455696203
aF0.125
aF0.5625
atp510
a(Ng344
tp511
a(Ng344
tp512
a(I00
g344
tp513
a(Ng344
tp514
a(I00
g344
tp515
a(I00
g344
tp516
a(I00
g344
tp517
aa(lp518
(I00
g216
tp519
a(I00
g216
tp520
a(I00
g216
tp521
a(I00
g216
tp522
a(I00
g216
tp523
a(Ng216
tp524
a(I01
(lp525
F0.12025316455696203
aF0.125
aF0.59375
atp526
a(I01
(lp527
F0.12025316455696203
aF0.125
aF0.6328125
atp528
a(Ng344
tp529
a(I00
g344
tp530
a(I00
g344
tp531
a(I00
g344
tp532
a(I00
g344
tp533
a(I00
g344
tp534
a(I00
g344
tp535
aa(lp536
(I00
g216
tp537
a(I00
g216
tp538
a(I00
g216
tp539
a(I00
g216
tp540
a(I00
g216
tp541
a(I00
g216
tp542
a(I01
(lp543
F0.12025316455696203
aF0.125
aF0.7734375
atp544
a(I01
(lp545
F0.12025316455696203
aF0.125
aF0.6328125
atp546
a(I01
(lp547
F0.12025316455696203
aF0.125
aF0.6328125
atp548
a(I00
g344
tp549
a(I00
g344
tp550
a(I00
g344
tp551
a(I00
g344
tp552
a(I00
g344
tp553
a(I00
g344
tp554
aa(lp555
(I00
(lp556
F0.4651898734177215
aF0.1796875
aF0.9609375
atp557
a(I00
(lp558
F0.4651898734177215
aF0.1796875
aF0.9609375
atp559
a(I00
(lp560
F0.4651898734177215
aF0.1796875
aF0.9609375
atp561
a(I00
(lp562
F0.4651898734177215
aF0.1796875
aF0.9609375
atp563
a(I00
(lp564
F0.4651898734177215
aF0.1796875
aF0.9609375
atp565
a(I00
(lp566
F0.4651898734177215
aF0.1796875
aF0.9609375
atp567
a(I01
(lp568
F0.12025316455696203
aF0.125
aF0.59375
atp569
a(I01
(lp570
F0.12025316455696203
aF0.125
aF0.7734375
atp571
a(I01
(lp572
F0.12025316455696203
aF0.125
aF0.6328125
atp573
a(I00
(lp574
F0.4651898734177215
aF0.1796875
aF0.9609375
atp575
a(I00
(lp576
F0.4651898734177215
aF0.1796875
aF0.9609375
atp577
a(I00
(lp578
F0.4651898734177215
aF0.1796875
aF0.9609375
atp579
a(I00
(lp580
F0.4651898734177215
aF0.1796875
aF0.9609375
atp581
a(I00
(lp582
F0.4651898734177215
aF0.1796875
aF0.9609375
atp583
a(I00
(lp584
F0.4651898734177215
aF0.1796875
aF0.9609375
atp585
aa(lp586
(I00
(lp587
F0.4651898734177215
aF0.1796875
aF0.9609375
atp588
a(I00
(lp589
F0.4651898734177215
aF0.1796875
aF0.9609375
atp590
a(I00
(lp591
F0.4651898734177215
aF0.1796875
aF0.9609375
atp592
a(I00
(lp593
F0.4651898734177215
aF0.1796875
aF0.9609375
atp594
a(I00
(lp595
F0.4651898734177215
aF0.1796875
aF0.9609375
atp596
a(I00
(lp597
F0.4651898734177215
aF0.1796875
aF0.9609375
atp598
a(I01
(lp599
F0.12025316455696203
aF0.125
aF0.7734375
atp600
a(I01
(lp601
F0.12025316455696203
aF0.125
aF0.7734375
atp602
a(I01
(lp603
F0.12025316455696203
aF0.125
aF0.5
atp604
a(I00
(lp605
F0.4651898734177215
aF0.1796875
aF0.9609375
atp606
a(I00
(lp607
F0.4651898734177215
aF0.1796875
aF0.9609375
atp608
a(I00
(lp609
F0.4651898734177215
aF0.1796875
aF0.9609375
atp610
a(I00
(lp611
F0.4651898734177215
aF0.1796875
aF0.9609375
atp612
a(I00
(lp613
F0.4651898734177215
aF0.1796875
aF0.9609375
atp614
a(I00
(lp615
F0.4651898734177215
aF0.1796875
aF0.9609375
atp616
aa(lp617
(I00
(lp618
F0.4588607594936709
aF0.1328125
aF0.9609375
atp619
a(I00
(lp620
F0.4588607594936709
aF0.1328125
aF0.9609375
atp621
a(I00
(lp622
F0.4588607594936709
aF0.1328125
aF0.9609375
atp623
a(I00
(lp624
F0.4588607594936709
aF0.1328125
aF0.9609375
atp625
a(I00
(lp626
F0.4588607594936709
aF0.1328125
aF0.9609375
atp627
a(I00
(lp628
F0.4588607594936709
aF0.1328125
aF0.9609375
atp629
a(I00
(lp630
F0.4588607594936709
aF0.1328125
aF0.9609375
atp631
a(I01
(lp632
F0.12025316455696203
aF0.125
aF0.7734375
atp633
a(I01
(lp634
F0.12025316455696203
aF0.125
aF0.6328125
atp635
a(I00
(lp636
F0.4588607594936709
aF0.1328125
aF0.9609375
atp637
a(I00
(lp638
F0.4588607594936709
aF0.1328125
aF0.9609375
atp639
a(I00
(lp640
F0.4588607594936709
aF0.1328125
aF0.9609375
atp641
a(I00
(lp642
F0.4588607594936709
aF0.1328125
aF0.9609375
atp643
a(I00
(lp644
F0.4588607594936709
aF0.1328125
aF0.9609375
atp645
a(I00
(lp646
F0.4588607594936709
aF0.1328125
aF0.9609375
atp647
aa(lp648
(I00
(lp649
F0.24050632911392406
aF0.1328125
aF0.9453125
atp650
a(I00
(lp651
F0.24050632911392406
aF0.1328125
aF0.9453125
atp652
a(I00
(lp653
F0.24050632911392406
aF0.1328125
aF0.9453125
atp654
a(I00
(lp655
F0.24050632911392406
aF0.1328125
aF0.9453125
atp656
a(I00
(lp657
F0.24050632911392406
aF0.1328125
aF0.9453125
atp658
a(I00
(lp659
F0.24050632911392406
aF0.1328125
aF0.9453125
atp660
a(I00
(lp661
F0.24050632911392406
aF0.1328125
aF0.9453125
atp662
a(I01
(lp663
F0.12025316455696203
aF0.125
aF0.7734375
atp664
a(I01
(lp665
F0.12025316455696203
aF0.125
aF0.5
atp666
a(I00
(lp667
F0.24050632911392406
aF0.1328125
aF0.9453125
atp668
a(I00
(lp669
F0.24050632911392406
aF0.1328125
aF0.9453125
atp670
a(I00
(lp671
F0.24050632911392406
aF0.1328125
aF0.9453125
atp672
a(I00
(lp673
F0.24050632911392406
aF0.1328125
aF0.9453125
atp674
a(I00
(lp675
F0.24050632911392406
aF0.1328125
aF0.9453125
atp676
a(I00
(lp677
F0.24050632911392406
aF0.1328125
aF0.9453125
atp678
aa(lp679
(I00
(lp680
F0.2468354430379747
aF0.21875
aF0.9375
atp681
a(I00
(lp682
F0.2468354430379747
aF0.21875
aF0.9375
atp683
a(I00
(lp684
F0.2468354430379747
aF0.21875
aF0.9375
atp685
a(I00
(lp686
F0.2468354430379747
aF0.21875
aF0.9375
atp687
a(I00
(lp688
F0.2468354430379747
aF0.21875
aF0.9375
atp689
a(I00
(lp690
F0.2468354430379747
aF0.21875
aF0.9375
atp691
a(I00
(lp692
F0.2468354430379747
aF0.21875
aF0.9375
atp693
a(I01
(lp694
F0.12025316455696203
aF0.125
aF0.59375
atp695
a(I01
(lp696
F0.12025316455696203
aF0.125
aF0.6328125
atp697
a(I00
(lp698
F0.2468354430379747
aF0.21875
aF0.9375
atp699
a(I00
(lp700
F0.2468354430379747
aF0.21875
aF0.9375
atp701
a(I00
(lp702
F0.2468354430379747
aF0.21875
aF0.9375
atp703
a(I00
(lp704
F0.2468354430379747
aF0.21875
aF0.9375
atp705
a(I00
(lp706
F0.2468354430379747
aF0.21875
aF0.9375
atp707
a(I00
(lp708
F0.2468354430379747
aF0.21875
aF0.9375
atp709
aa(lp710
(I00
(lp711
F0.2468354430379747
aF0.21875
aF0.9375
atp712
a(I00
(lp713
F0.2468354430379747
aF0.21875
aF0.9375
atp714
a(I00
(lp715
F0.2468354430379747
aF0.21875
aF0.9375
atp716
a(I00
(lp717
F0.2468354430379747
aF0.21875
aF0.9375
atp718
a(I00
(lp719
F0.2468354430379747
aF0.21875
aF0.9375
atp720
a(I00
(lp721
F0.2468354430379747
aF0.21875
aF0.9375
atp722
a(I00
(lp723
F0.2468354430379747
aF0.21875
aF0.9375
atp724
a(I01
(lp725
F0.12025316455696203
aF0.125
aF0.7734375
atp726
a(I01
(lp727
F0.12025316455696203
aF0.125
aF0.6328125
atp728
a(I00
(lp729
F0.2468354430379747
aF0.21875
aF0.9375
atp730
a(I00
(lp731
F0.2468354430379747
aF0.21875
aF0.9375
atp732
a(I00
(lp733
F0.2468354430379747
aF0.21875
aF0.9375
atp734
a(I00
(lp735
F0.2468354430379747
aF0.21875
aF0.953125
atp736
a(I00
(lp737
F0.2468354430379747
aF0.21875
aF0.9375
atp738
a(I00
(lp739
F0.2468354430379747
aF0.21875
aF0.9375
atp740
aa(lp741
(I00
(lp742
F0.2468354430379747
aF0.265625
aF0.9140625
atp743
a(I00
(lp744
F0.2468354430379747
aF0.265625
aF0.9140625
atp745
a(I00
(lp746
F0.2468354430379747
aF0.265625
aF0.9140625
atp747
a(I00
(lp748
F0.2468354430379747
aF0.265625
aF0.9140625
atp749
a(I00
(lp750
F0.2468354430379747
aF0.265625
aF0.9140625
atp751
a(I00
(lp752
F0.2468354430379747
aF0.265625
aF0.9140625
atp753
a(N(lp754
F0.2468354430379747
aF0.265625
aF0.9140625
atp755
a(I01
(lp756
F0.12025316455696203
aF0.125
aF0.7734375
atp757
a(I01
(lp758
F0.12025316455696203
aF0.125
aF0.5
atp759
a(I00
(lp760
F0.2468354430379747
aF0.265625
aF0.9140625
atp761
a(I00
(lp762
F0.2468354430379747
aF0.265625
aF0.9140625
atp763
a(I00
(lp764
F0.2468354430379747
aF0.265625
aF0.9140625
atp765
a(I00
(lp766
F0.2468354430379747
aF0.265625
aF0.9140625
atp767
a(I00
(lp768
F0.2468354430379747
aF0.265625
aF0.9140625
atp769
a(I00
(lp770
F0.2468354430379747
aF0.265625
aF0.9140625
atp771
aa(lp772
(I00
(lp773
F0.2468354430379747
aF0.265625
aF0.9140625
atp774
a(I00
(lp775
F0.2468354430379747
aF0.265625
aF0.9140625
atp776
a(I00
(lp777
F0.2468354430379747
aF0.265625
aF0.9140625
atp778
a(I00
(lp779
F0.2468354430379747
aF0.265625
aF0.9140625
atp780
a(I00
(lp781
F0.2468354430379747
aF0.265625
aF0.9140625
atp782
a(I00
(lp783
F0.2468354430379747
aF0.265625
aF0.9140625
atp784
a(N(lp785
F0.2468354430379747
aF0.265625
aF0.9140625
atp786
a(I01
(lp787
F0.12025316455696203
aF0.125
aF0.59375
atp788
a(I01
(lp789
F0.12025316455696203
aF0.125
aF0.6328125
atp790
a(I00
(lp791
F0.2468354430379747
aF0.265625
aF0.9140625
atp792
a(I00
(lp793
F0.2468354430379747
aF0.265625
aF0.9140625
atp794
a(I00
(lp795
F0.2468354430379747
aF0.265625
aF0.9140625
atp796
a(I00
(lp797
F0.2468354430379747
aF0.265625
aF0.9140625
atp798
a(I00
(lp799
F0.2468354430379747
aF0.265625
aF0.9140625
atp800
a(I00
(lp801
F0.2468354430379747
aF0.265625
aF0.9140625
atp802
aa(lp803
(I00
(lp804
F0.2468354430379747
aF0.265625
aF0.9140625
atp805
a(I00
(lp806
F0.2468354430379747
aF0.265625
aF0.9140625
atp807
a(I00
(lp808
F0.2468354430379747
aF0.265625
aF0.9140625
atp809
a(I00
(lp810
F0.2468354430379747
aF0.265625
aF0.9140625
atp811
a(I00
(lp812
F0.2468354430379747
aF0.265625
aF0.9140625
atp813
a(I00
(lp814
F0.2468354430379747
aF0.265625
aF0.9140625
atp815
a(N(lp816
F0.2468354430379747
aF0.265625
aF0.9140625
atp817
a(I01
(lp818
F0.12025316455696203
aF0.125
aF0.7734375
atp819
a(I01
(lp820
F0.12025316455696203
aF0.125
aF0.6328125
atp821
a(I00
(lp822
F0.2468354430379747
aF0.265625
aF0.9140625
atp823
a(I00
(lp824
F0.2468354430379747
aF0.265625
aF0.9140625
atp825
a(I00
(lp826
F0.2468354430379747
aF0.265625
aF0.9140625
atp827
a(I00
(lp828
F0.2468354430379747
aF0.265625
aF0.9140625
atp829
a(I00
(lp830
F0.2468354430379747
aF0.265625
aF0.9140625
atp831
a(I00
(lp832
F0.2468354430379747
aF0.265625
aF0.9140625
atp833
aasS'height'
p834
I30
sS'width'
p835
I15
sS'column_numbers'
p836
(lp837
(I3
tp838
a(I3
I2
I2
tp839
a(I2
I2
I2
tp840
a(I2
I2
I2
I1
I4
tp841
a(I3
I4
I3
I2
tp842
a(I6
I5
I1
I2
tp843
a(I2
I19
tp844
a(I30
tp845
a(I5
I5
I2
I2
I10
tp846
a(I8
I8
tp847
a(I6
I5
I2
tp848
a(I4
I2
I1
I3
tp849
a(I1
I1
I4
I2
tp850
a(I3
tp851
a(I3
tp852
asS'background'
p853
S'blue'
p854
sb.