ccopy_reg
_reconstructor
p0
(cpuzzle
Puzzle
p1
c__builtin__
object
p2
Ntp3
Rp4
(dp5
S'row_numbers'
p6
(lp7
(I2
tp8
a(I3
tp9
a(I3
tp10
a(I5
tp11
a(I7
I1
tp12
a(I2
I7
tp13
a(I1
I3
I1
tp14
a(I6
tp15
a(I7
tp16
a(I3
I2
tp17
a(I3
I3
tp18
a(I3
I4
I1
tp19
a(I2
I4
tp20
a(I1
I1
tp21
a(I1
I1
tp22
asS'name'
p23
VHurdle Jumping
p24
sS'cells'
p25
(lp26
(lp27
(I00
(lp28
F0.5632911392405063
aF0.34375
aF0.8515625
atp29
a(I00
g28
tp30
a(I00
g28
tp31
a(I00
g28
tp32
a(I00
g28
tp33
a(I00
g28
tp34
a(I00
g28
tp35
a(I00
g28
tp36
a(I01
(lp37
F0.0949367088607595
aF0.3828125
aF0.2890625
atp38
a(I01
(lp39
F0.0949367088607595
aF0.3828125
aF0.2890625
atp40
a(I00
(lp41
F0.5632911392405063
aF0.34375
aF0.8515625
atp42
a(I00
g41
tp43
a(I00
(lp44
F0.5632911392405063
aF0.2421875
aF0.9453125
atp45
a(I00
(lp46
F0.5632911392405063
aF0.2421875
aF0.9453125
atp47
a(I00
(lp48
F0.5632911392405063
aF0.2421875
aF0.9453125
atp49
aa(lp50
(I00
(lp51
F0.5632911392405063
aF0.2421875
aF0.9453125
atp52
a(I00
(lp53
F0.5632911392405063
aF0.2421875
aF0.9453125
atp54
a(I00
(lp55
F0.5632911392405063
aF0.2421875
aF0.9453125
atp56
a(I00
(lp57
F0.5632911392405063
aF0.2421875
aF0.9453125
atp58
a(I00
g28
tp59
a(I00
g28
tp60
a(I00
g28
tp61
a(I01
(lp62
F0.0949367088607595
aF0.3828125
aF0.2890625
atp63
a(I01
(lp64
F0.10443037974683544
aF0.375
aF0.640625
atp65
a(I01
(lp66
F0.10443037974683544
aF0.375
aF0.640625
atp67
a(I00
g41
tp68
a(I00
(lp69
F0.5632911392405063
aF0.2421875
aF0.9453125
atp70
a(I00
(lp71
F0.5632911392405063
aF0.2421875
aF0.9453125
atp72
a(I00
(lp73
F0.5632911392405063
aF0.2421875
aF0.9453125
atp74
a(I00
(lp75
F0.5632911392405063
aF0.2421875
aF0.9453125
atp76
aa(lp77
(I00
(lp78
F0.5632911392405063
aF0.2421875
aF0.9453125
atp79
a(I00
(lp80
F0.5632911392405063
aF0.2421875
aF0.9453125
atp81
a(I00
g28
tp82
a(I00
g28
tp83
a(I00
g28
tp84
a(I00
g28
tp85
a(I00
g28
tp86
a(I01
(lp87
F0.10443037974683544
aF0.375
aF0.640625
atp88
a(I01
g64
tp89
a(I01
(lp90
F0.10443037974683544
aF0.375
aF0.640625
atp91
a(I00
g41
tp92
a(I00
g41
tp93
a(I00
g41
tp94
a(I00
(lp95
F0.5632911392405063
aF0.2421875
aF0.9453125
atp96
a(I00
(lp97
F0.5632911392405063
aF0.2421875
aF0.9453125
atp98
aa(lp99
(I00
g28
tp100
a(I00
g28
tp101
a(I00
g28
tp102
a(I00
g28
tp103
a(I01
(lp104
F0.10443037974683544
aF0.375
aF0.640625
atp105
a(I01
g104
tp106
a(I01
(lp107
F0.6044303797468354
aF0.3125
aF0.5546875
atp108
a(I01
(lp109
F0.6107594936708861
aF0.3203125
aF0.4375
atp110
a(I01
(lp111
F0.6107594936708861
aF0.3203125
aF0.4375
atp112
a(Ng41
tp113
a(I00
g41
tp114
a(Ng41
tp115
a(Ng41
tp116
a(I00
g41
tp117
a(I00
g41
tp118
aa(lp119
(I00
g28
tp120
a(I00
g28
tp121
a(I00
g28
tp122
a(I01
(lp123
F0.10443037974683544
aF0.375
aF0.640625
atp124
a(I01
(lp125
F0.10443037974683544
aF0.375
aF0.484375
atp126
a(I01
(lp127
F0.10443037974683544
aF0.375
aF0.484375
atp128
a(I01
(lp129
F0.6044303797468354
aF0.3125
aF0.5546875
atp130
a(I01
(lp131
F0.6107594936708861
aF0.3203125
aF0.4375
atp132
a(I01
(lp133
F0.6107594936708861
aF0.3203125
aF0.4375
atp134
a(I01
(lp135
F0.10443037974683544
aF0.375
aF0.640625
atp136
a(Ng41
tp137
a(Ng41
tp138
a(I01
(lp139
F0.10443037974683544
aF0.375
aF0.640625
atp140
a(I00
g41
tp141
a(I00
g41
tp142
aa(lp143
(I00
g28
tp144
a(I00
g28
tp145
a(I01
(lp146
F0.10443037974683544
aF0.375
aF0.640625
atp147
a(I01
(lp148
F0.10443037974683544
aF0.375
aF0.484375
atp149
a(N(lp150
F0.5632911392405063
aF0.34375
aF0.8515625
atp151
a(I01
(lp152
F0.6044303797468354
aF0.3125
aF0.5546875
atp153
a(I01
(lp154
F0.6107594936708861
aF0.3203125
aF0.4375
atp155
a(I01
(lp156
F0.6107594936708861
aF0.3203125
aF0.4375
atp157
a(I01
(lp158
F0.10443037974683544
aF0.375
aF0.484375
atp159
a(I01
(lp160
F0.10443037974683544
aF0.375
aF0.484375
atp161
a(I01
(lp162
F0.10443037974683544
aF0.375
aF0.640625
atp163
a(I01
g162
tp164
a(I00
g41
tp165
a(I00
g41
tp166
a(I00
g41
tp167
aa(lp168
(I00
(lp169
F0.0
aF0.0
aF0.609375
atp170
a(I00
g169
tp171
a(I00
g169
tp172
a(I01
(lp173
F0.10443037974683544
aF0.375
aF0.640625
atp174
a(I00
(lp175
F0.0
aF0.0
aF0.609375
atp176
a(I01
(lp177
F0.6044303797468354
aF0.3125
aF0.5546875
atp178
a(I01
(lp179
F0.6107594936708861
aF0.3203125
aF0.4375
atp180
a(I01
(lp181
F0.6107594936708861
aF0.3203125
aF0.4375
atp182
a(N(lp183
F0.0
aF0.0
aF0.609375
atp184
a(Ng183
tp185
a(I01
(lp186
F0.10443037974683544
aF0.375
aF0.484375
atp187
a(I00
(lp188
F0.0
aF0.0
aF0.609375
atp189
a(I00
g188
tp190
a(I00
g188
tp191
a(I00
g188
tp192
aa(lp193
(I00
g169
tp194
a(I00
g169
tp195
a(I00
g169
tp196
a(Ng169
tp197
a(I01
(lp198
F0.10443037974683544
aF0.375
aF0.640625
atp199
a(I01
(lp200
F0.6044303797468354
aF0.3125
aF0.5546875
atp201
a(I01
(lp202
F0.6107594936708861
aF0.3203125
aF0.4375
atp203
a(I01
(lp204
F0.6107594936708861
aF0.3203125
aF0.4375
atp205
a(I01
(lp206
F0.0
aF0.0
aF0.9296875
atp207
a(I01
(lp208
F0.0
aF0.0
aF0.9296875
atp209
a(Ng188
tp210
a(I00
g188
tp211
a(I00
g188
tp212
a(I00
g188
tp213
a(I00
g188
tp214
aa(lp215
(I00
g169
tp216
a(I00
g169
tp217
a(I00
g169
tp218
a(I00
g169
tp219
a(Ng169
tp220
a(I01
(lp221
F0.0
aF0.0
aF0.9296875
atp222
a(I01
(lp223
F0.0
aF0.0
aF0.9296875
atp224
a(I01
(lp225
F0.0
aF0.0
aF0.7421875
atp226
a(I01
(lp227
F0.0
aF0.0
aF0.7421875
atp228
a(I01
(lp229
F0.0
aF0.0
aF0.7421875
atp230
a(I01
(lp231
F0.10443037974683544
aF0.375
aF0.640625
atp232
a(I01
g231
tp233
a(I00
g188
tp234
a(I00
g188
tp235
a(I00
g188
tp236
aa(lp237
(I00
g169
tp238
a(I00
g169
tp239
a(I00
g169
tp240
a(Ng169
tp241
a(I01
(lp242
F0.0
aF0.0
aF0.9296875
atp243
a(I01
(lp244
F0.0
aF0.0
aF0.7421875
atp245
a(I01
(lp246
F0.0
aF0.0
aF0.7421875
atp247
a(I00
(lp248
F0.0
aF0.0
aF0.609375
atp249
a(I00
g248
tp250
a(I00
g248
tp251
a(I00
g248
tp252
a(I01
(lp253
F0.10443037974683544
aF0.375
aF0.484375
atp254
a(I01
(lp255
F0.10443037974683544
aF0.375
aF0.640625
atp256
a(I00
g188
tp257
a(Ng188
tp258
aa(lp259
(I00
g169
tp260
a(I00
g169
tp261
a(I01
(lp262
F0.10443037974683544
aF0.375
aF0.640625
atp263
a(I01
g262
tp264
a(I01
(lp265
F0.10443037974683544
aF0.375
aF0.484375
atp266
a(I00
g248
tp267
a(I00
g248
tp268
a(I00
g248
tp269
a(I00
g248
tp270
a(I00
g248
tp271
a(I00
g248
tp272
a(Ng248
tp273
a(I01
(lp274
F0.0
aF0.0
aF0.7421875
atp275
a(I01
(lp276
F0.0
aF0.0
aF0.9296875
atp277
a(I01
(lp278
F0.0
aF0.0
aF0.7421875
atp279
aa(lp280
(I01
(lp281
F0.0
aF0.0
aF0.9296875
atp282
a(I01
(lp283
F0.0
aF0.0
aF0.9296875
atp284
a(I01
(lp285
F0.10443037974683544
aF0.375
aF0.484375
atp286
a(Ng248
tp287
a(I00
g248
tp288
a(I00
g248
tp289
a(I01
(lp290
F0.0
aF0.0
aF0.8203125
atp291
a(I01
(lp292
F0.0
aF0.0
aF0.859375
atp293
a(I01
(lp294
F0.0
aF0.0
aF0.859375
atp295
a(I01
(lp296
F0.0
aF0.0
aF0.9296875
atp297
a(I00
g248
tp298
a(I00
g248
tp299
a(I00
g248
tp300
a(I01
(lp301
F0.0
aF0.0
aF0.7421875
atp302
a(N(lp303
F0.0
aF0.0
aF0.609375
atp304
aa(lp305
(I01
(lp306
F0.0
aF0.0
aF0.9296875
atp307
a(I01
(lp308
F0.0
aF0.0
aF0.7421875
atp309
a(I00
(lp310
F0.0
aF0.0
aF0.5546875
atp311
a(I00
g310
tp312
a(I00
g310
tp313
a(I00
g310
tp314
a(I01
g290
tp315
a(I01
(lp316
F0.0
aF0.0
aF0.859375
atp317
a(I01
(lp318
F0.0
aF0.0
aF0.859375
atp319
a(I01
(lp320
F0.0
aF0.0
aF0.9296875
atp321
a(I00
(lp322
F0.0
aF0.0
aF0.5546875
atp323
a(I00
g322
tp324
a(I00
g322
tp325
a(I00
g322
tp326
a(I00
g322
tp327
aa(lp328
(Ng310
tp329
a(I00
g310
tp330
a(I00
g310
tp331
a(I00
g310
tp332
a(I00
g310
tp333
a(I00
g310
tp334
a(I01
g290
tp335
a(I00
(lp336
F0.0
aF0.0
aF0.5546875
atp337
a(I00
g336
tp338
a(I01
(lp339
F0.0
aF0.0
aF0.9296875
atp340
a(I00
g322
tp341
a(I00
g322
tp342
a(I00
g322
tp343
a(I00
g322
tp344
a(I00
g322
tp345
aa(lp346
(I00
(lp347
F0.10126582278481013
aF0.640625
aF0.7109375
atp348
a(I00
(lp349
F0.10126582278481013
aF0.640625
aF0.7109375
atp350
a(I00
(lp351
F0.10126582278481013
aF0.640625
aF0.7109375
atp352
a(I00
(lp353
F0.10126582278481013
aF0.640625
aF0.7109375
atp354
a(I00
(lp355
F0.10126582278481013
aF0.640625
aF0.7109375
atp356
a(I00
(lp357
F0.10126582278481013
aF0.640625
aF0.7109375
atp358
a(I01
g290
tp359
a(I00
(lp360
F0.10126582278481013
aF0.640625
aF0.7109375
atp361
a(I00
(lp362
F0.10126582278481013
aF0.640625
aF0.7109375
atp363
a(I01
(lp364
F0.0
aF0.0
aF0.9296875
atp365
a(I00
(lp366
F0.10126582278481013
aF0.640625
aF0.7109375
atp367
a(I00
(lp368
F0.10126582278481013
aF0.640625
aF0.7109375
atp369
a(I00
(lp370
F0.10126582278481013
aF0.640625
aF0.7109375
atp371
a(I00
(lp372
F0.10126582278481013
aF0.640625
aF0.7109375
atp373
a(I00
(lp374
F0.10126582278481013
aF0.640625
aF0.7109375
atp375
aasS'height'
p376
I15
sS'width'
p377
I15
sS'column_numbers'
p378
(lp379
(I2
tp380
a(I2
tp381
a(I1
I2
tp382
a(I3
I1
tp383
a(I2
I1
I2
tp384
a(I7
tp385
a(I7
I4
tp386
a(I8
I2
tp387
a(I6
I2
I2
tp388
a(I3
I2
I2
I4
tp389
a(I2
I1
tp390
a(I1
I2
tp391
a(I1
I2
tp392
a(I2
tp393
a(I1
tp394
asS'background'
p395
S'blue'
p396
sb.