ccopy_reg
_reconstructor
p0
(cpuzzle
Puzzle
p1
c__builtin__
object
p2
Ntp3
Rp4
(dp5
S'row_numbers'
p6
(lp7
(I2
I6
tp8
a(I8
I1
tp9
a(I1
I3
I3
tp10
a(I4
I4
tp11
a(I3
I4
tp12
a(I1
I1
I5
tp13
a(I4
I4
tp14
a(I4
I3
tp15
a(I2
I5
I1
tp16
a(I6
I3
tp17
asS'name'
p18
VMoon
p19
sS'cells'
p20
(lp21
(lp22
(I00
(lp23
F0.5664556962025317
aF0.21875
aF0.7421875
atp24
a(I01
(lp25
F0.629746835443038
aF0.75
aF0.15625
atp26
a(I01
g25
tp27
a(I00
(lp28
F0.5664556962025317
aF0.21875
aF0.7421875
atp29
a(I01
g25
tp30
a(I01
g25
tp31
a(I01
g25
tp32
a(I01
g25
tp33
a(I01
g25
tp34
a(I01
g25
tp35
aa(lp36
(I01
g25
tp37
a(I01
g25
tp38
a(I01
g25
tp39
a(I01
g25
tp40
a(I01
g25
tp41
a(I01
g25
tp42
a(I01
g25
tp43
a(I01
g25
tp44
a(I00
(lp45
F0.5664556962025317
aF0.21875
aF0.7421875
atp46
a(I01
g25
tp47
aa(lp48
(I01
g25
tp49
a(I00
(lp50
F0.5664556962025317
aF0.21875
aF0.7421875
atp51
a(I01
g25
tp52
a(I01
g25
tp53
a(I01
(lp54
F0.629746835443038
aF0.75
aF0.15625
atp55
a(I00
(lp56
F0.5379746835443038
aF0.2109375
aF0.953125
atp57
a(I00
g56
tp58
a(I01
(lp59
F0.629746835443038
aF0.75
aF0.15625
atp60
a(I01
g25
tp61
a(I01
g25
tp62
aa(lp63
(I01
g25
tp64
a(I01
g25
tp65
a(I01
g25
tp66
a(I01
(lp67
F0.629746835443038
aF0.75
aF0.15625
atp68
a(I00
g56
tp69
a(I00
g56
tp70
a(I01
g25
tp71
a(I01
g25
tp72
a(I01
g25
tp73
a(I01
g25
tp74
aa(lp75
(I01
g25
tp76
a(I01
g25
tp77
a(I01
g25
tp78
a(I00
g56
tp79
a(I00
g56
tp80
a(I01
g25
tp81
a(I01
g25
tp82
a(I01
g25
tp83
a(I01
g25
tp84
a(I00
(lp85
F0.5664556962025317
aF0.21875
aF0.7421875
atp86
aa(lp87
(I01
g25
tp88
a(I00
(lp89
F0.5664556962025317
aF0.21875
aF0.7421875
atp90
a(I01
g25
tp91
a(I00
g56
tp92
a(I00
g56
tp93
a(I01
g25
tp94
a(I01
g25
tp95
a(I01
g25
tp96
a(I01
g25
tp97
a(I01
g25
tp98
aa(lp99
(I01
g25
tp100
a(I01
g25
tp101
a(I01
g25
tp102
a(I01
(lp103
F0.629746835443038
aF0.75
aF0.15625
atp104
a(I00
g56
tp105
a(I00
g56
tp106
a(I01
g25
tp107
a(I01
g25
tp108
a(I01
g25
tp109
a(I01
g25
tp110
aa(lp111
(I00
(lp112
F0.5664556962025317
aF0.21875
aF0.7421875
atp113
a(I01
g25
tp114
a(I01
g25
tp115
a(I01
g25
tp116
a(I01
(lp117
F0.629746835443038
aF0.75
aF0.15625
atp118
a(I00
g56
tp119
a(I00
g56
tp120
a(I01
(lp121
F0.629746835443038
aF0.75
aF0.15625
atp122
a(I01
g25
tp123
a(I01
g25
tp124
aa(lp125
(I01
g25
tp126
a(I01
g25
tp127
a(I00
(lp128
F0.5664556962025317
aF0.21875
aF0.7421875
atp129
a(I01
g25
tp130
a(I01
g25
tp131
a(I01
g25
tp132
a(I01
g25
tp133
a(I01
g25
tp134
a(I00
(lp135
F0.5664556962025317
aF0.21875
aF0.7421875
atp136
a(I01
g25
tp137
aa(lp138
(I01
g25
tp139
a(I01
g25
tp140
a(I01
g25
tp141
a(I01
g25
tp142
a(I01
g25
tp143
a(I01
g25
tp144
a(I00
(lp145
F0.5664556962025317
aF0.21875
aF0.7421875
atp146
a(I01
g25
tp147
a(I01
g25
tp148
a(I01
g25
tp149
aasS'height'
p150
I10
sS'width'
p151
I10
sS'column_numbers'
p152
(lp153
(I6
I2
tp154
a(I2
I2
I4
tp155
a(I8
I1
tp156
a(I3
I4
tp157
a(I3
I3
tp158
a(I2
I2
I2
tp159
a(I2
I4
I1
tp160
a(I10
tp161
a(I1
I6
I1
tp162
a(I4
I5
tp163
asS'background'
p164
S'blue'
p165
sb.