ccopy_reg
_reconstructor
p1
(cpuzzle
Puzzle
p2
c__builtin__
object
p3
NtRp4
(dp5
S'row_numbers'
p6
(lp7
(I4
tp8
a(I3
I1
tp9
a(I1
I4
tp10
a(I3
I1
tp11
a(I1
I1
tp12
a(I1
I1
tp13
a(I1
I3
tp14
a(I3
I4
tp15
a(I4
I2
tp16
a(I2
tp17
asS'name'
p18
VMusical Note
p19
sS'cells'
p20
(lp21
(lp22
(I00
(lp23
F0.28797468354430378
aF0.52542372881355937
aF0.97457627118644063
atp24
a(I00
g23
tp25
a(I00
g23
tp26
a(I00
g23
tp27
a(I00
g23
tp28
a(I00
g23
tp29
a(I01
(lp30
F0.819620253164557
aF0.88135593220338981
aF0.83898305084745761
atp31
a(I01
(lp32
F0.819620253164557
aF0.88135593220338981
aF0.83898305084745761
atp33
a(I01
(lp34
F0.819620253164557
aF0.88135593220338981
aF0.83898305084745761
atp35
a(I01
(lp36
F0.819620253164557
aF0.88135593220338981
aF0.83898305084745761
atp37
aa(lp38
(I00
g23
tp39
a(I00
g23
tp40
a(I00
g23
tp41
a(I01
(lp42
F0.819620253164557
aF0.88135593220338981
aF0.83898305084745761
atp43
a(I01
(lp44
F0.819620253164557
aF0.88135593220338981
aF0.83898305084745761
atp45
a(I01
(lp46
F0.819620253164557
aF0.88135593220338981
aF0.83898305084745761
atp47
a(N(lp48
F0.28797468354430378
aF0.52542372881355937
aF0.97457627118644063
atp49
a(N(lp50
F0.28797468354430378
aF0.52542372881355937
aF0.97457627118644063
atp51
a(N(lp52
F0.28797468354430378
aF0.52542372881355937
aF0.97457627118644063
atp53
a(I01
(lp54
F0.819620253164557
aF0.88135593220338981
aF0.83898305084745761
atp55
aa(lp56
(I00
g23
tp57
a(I00
g23
tp58
a(I00
g23
tp59
a(I01
(lp60
F0.819620253164557
aF0.88135593220338981
aF0.83898305084745761
atp61
a(N(lp62
F0.28797468354430378
aF0.52542372881355937
aF0.97457627118644063
atp63
a(N(lp64
F0.28797468354430378
aF0.52542372881355937
aF0.97457627118644063
atp65
a(I01
(lp66
F0.819620253164557
aF0.88135593220338981
aF0.77118644067796616
atp67
a(I01
(lp68
F0.819620253164557
aF0.88135593220338981
aF0.77118644067796616
atp69
a(I01
(lp70
F0.819620253164557
aF0.88135593220338981
aF0.77118644067796616
atp71
a(I01
(lp72
F0.819620253164557
aF0.88135593220338981
aF0.77118644067796616
atp73
aa(lp74
(I00
g23
tp75
a(I00
g23
tp76
a(I00
g23
tp77
a(I01
(lp78
F0.819620253164557
aF0.88135593220338981
aF0.77118644067796616
atp79
a(I01
(lp80
F0.819620253164557
aF0.88135593220338981
aF0.77118644067796616
atp81
a(I01
(lp82
F0.819620253164557
aF0.88135593220338981
aF0.77118644067796616
atp83
a(N(lp84
F0.28797468354430378
aF0.52542372881355937
aF0.97457627118644063
atp85
a(I00
(lp86
F0.28797468354430378
aF0.52542372881355937
aF0.97457627118644063
atp87
a(I00
(lp88
F0.28797468354430378
aF0.52542372881355937
aF0.97457627118644063
atp89
a(I01
(lp90
F0.819620253164557
aF0.88135593220338981
aF0.77118644067796616
atp91
aa(lp92
(I00
g23
tp93
a(I00
g23
tp94
a(I00
g23
tp95
a(I01
(lp96
F0.819620253164557
aF0.88135593220338981
aF0.77118644067796616
atp97
a(I00
(lp98
F0.28797468354430378
aF0.52542372881355937
aF0.97457627118644063
atp99
a(I00
(lp100
F0.28797468354430378
aF0.52542372881355937
aF0.97457627118644063
atp101
a(I00
(lp102
F0.28797468354430378
aF0.52542372881355937
aF0.97457627118644063
atp103
a(I00
g102
tp104
a(I00
g102
tp105
a(I01
(lp106
F0.819620253164557
aF0.88135593220338981
aF0.67796610169491522
atp107
aa(lp108
(I00
g23
tp109
a(I00
g23
tp110
a(I00
g23
tp111
a(I01
(lp112
F0.819620253164557
aF0.88135593220338981
aF0.67796610169491522
atp113
a(I00
(lp114
F0.28797468354430378
aF0.52542372881355937
aF0.97457627118644063
atp115
a(I00
g102
tp116
a(I00
g102
tp117
a(I00
g102
tp118
a(I00
g102
tp119
a(I01
(lp120
F0.819620253164557
aF0.88135593220338981
aF0.67796610169491522
atp121
aa(lp122
(I00
g23
tp123
a(I00
g23
tp124
a(I00
g23
tp125
a(I01
(lp126
F0.819620253164557
aF0.88135593220338981
aF0.67796610169491522
atp127
a(I00
(lp128
F0.28797468354430378
aF0.52542372881355937
aF0.97457627118644063
atp129
a(I00
g102
tp130
a(I00
g102
tp131
a(I01
(lp132
F0.819620253164557
aF0.88135593220338981
aF0.56779661016949157
atp133
a(I01
g132
tp134
a(I01
(lp135
F0.819620253164557
aF0.88135593220338981
aF0.56779661016949157
atp136
aa(lp137
(I00
g23
tp138
a(I01
(lp139
F0.819620253164557
aF0.88135593220338981
aF0.56779661016949157
atp140
a(I01
g139
tp141
a(I01
(lp142
F0.819620253164557
aF0.88135593220338981
aF0.56779661016949157
atp143
a(I00
(lp144
F0.28797468354430378
aF0.52542372881355937
aF0.97457627118644063
atp145
a(I00
g102
tp146
a(I01
g132
tp147
a(I01
g132
tp148
a(I01
(lp149
F0.819620253164557
aF0.88135593220338981
aF0.56779661016949157
atp150
a(I01
(lp151
F0.819620253164557
aF0.88135593220338981
aF0.48305084745762711
atp152
aa(lp153
(I01
g139
tp154
a(I01
g139
tp155
a(I01
(lp156
F0.819620253164557
aF0.88135593220338981
aF0.56779661016949157
atp157
a(I01
(lp158
F0.819620253164557
aF0.88135593220338981
aF0.48305084745762711
atp159
a(I00
(lp160
F0.28797468354430378
aF0.52542372881355937
aF0.97457627118644063
atp161
a(I00
g102
tp162
a(I00
(lp163
F0.28797468354430378
aF0.52542372881355937
aF0.97457627118644063
atp164
a(I01
(lp165
F0.819620253164557
aF0.88135593220338981
aF0.3728813559322034
atp166
a(I01
(lp167
F0.819620253164557
aF0.88135593220338981
aF0.3728813559322034
atp168
a(I00
(lp169
F0.28797468354430378
aF0.52542372881355937
aF0.97457627118644063
atp170
aa(lp171
(I00
(lp172
F0.28797468354430378
aF0.52542372881355937
aF0.97457627118644063
atp173
a(I01
(lp174
F0.819620253164557
aF0.88135593220338981
aF0.3728813559322034
atp175
a(I01
(lp176
F0.819620253164557
aF0.88135593220338981
aF0.3728813559322034
atp177
a(I00
(lp178
F0.28797468354430378
aF0.52542372881355937
aF0.97457627118644063
atp179
a(I00
g102
tp180
a(I00
g102
tp181
a(I00
g102
tp182
a(I00
(lp183
F0.28797468354430378
aF0.52542372881355937
aF0.97457627118644063
atp184
a(I00
(lp185
F0.28797468354430378
aF0.52542372881355937
aF0.97457627118644063
atp186
a(I00
g102
tp187
aasS'height'
p188
I10
sS'width'
p189
I10
sS'column_numbers'
p190
(lp191
(I1
tp192
a(I3
tp193
a(I3
tp194
a(I8
tp195
a(I1
I1
tp196
a(I1
I1
tp197
a(I1
I1
I1
tp198
a(I1
I1
I3
tp199
a(I1
I1
I3
tp200
a(I8
tp201
asS'background'
p202
S'blue'
p203
sb.