ccopy_reg
_reconstructor
p0
(cpuzzle
Puzzle
p1
c__builtin__
object
p2
Ntp3
Rp4
(dp5
S'row_numbers'
p6
(lp7
(I2
I11
tp8
a(I2
I9
I1
tp9
a(I2
I10
tp10
a(I2
I10
tp11
a(I2
I8
I1
tp12
a(I2
I10
tp13
a(I2
I1
I9
tp14
a(I2
I2
I8
tp15
a(I2
I2
I7
tp16
a(I1
I3
I1
I1
I3
tp17
a(I1
I2
I2
I5
tp18
a(I2
I2
I3
I4
tp19
a(I3
I1
I8
tp20
a(I5
I8
tp21
a(I5
I7
tp22
a(I4
I2
I6
tp23
a(I3
I4
I5
tp24
a(I2
I1
I4
I5
tp25
a(I4
I3
I4
tp26
a(I4
I3
I4
tp27
a(I9
I5
tp28
a(I8
I4
tp29
a(I6
I3
tp30
a(I3
I1
tp31
a(I0
tp32
asS'name'
p33
VLightning
p34
sS'cells'
p35
(lp36
(lp37
(I01
(lp38
F0.6518987341772152
aF0.8125
aF0.0859375
atp39
a(I01
g38
tp40
a(N(lp41
F0.5474683544303798
aF0.4296875
aF0.9453125
atp42
a(N(lp43
F0.509493670886076
aF0.15625
aF0.8984375
atp44
a(I01
(lp45
F0.6518987341772152
aF0.8125
aF0.0859375
atp46
a(I01
g45
tp47
a(I01
g45
tp48
a(I01
g45
tp49
a(I01
g45
tp50
a(I01
g45
tp51
a(I01
g45
tp52
a(I01
g45
tp53
a(I01
g45
tp54
a(I01
g45
tp55
a(I01
g45
tp56
aa(lp57
(I01
g38
tp58
a(I01
g38
tp59
a(N(lp60
F0.5474683544303798
aF0.4296875
aF0.9453125
atp61
a(N(lp62
F0.509493670886076
aF0.15625
aF0.8984375
atp63
a(I01
g45
tp64
a(I01
g45
tp65
a(I01
g45
tp66
a(I01
g45
tp67
a(I01
g45
tp68
a(I01
g45
tp69
a(I01
g45
tp70
a(I01
g45
tp71
a(I01
g45
tp72
a(N(lp73
F0.5348101265822784
aF0.3046875
aF0.8515625
atp74
a(I01
g45
tp75
aa(lp76
(I01
g38
tp77
a(I01
g38
tp78
a(N(lp79
F0.5474683544303798
aF0.4296875
aF0.9453125
atp80
a(N(lp81
F0.509493670886076
aF0.15625
aF0.8984375
atp82
a(I01
g45
tp83
a(I01
g45
tp84
a(I01
g45
tp85
a(I01
g45
tp86
a(I01
g45
tp87
a(I01
g45
tp88
a(I01
g45
tp89
a(I01
g45
tp90
a(I01
g45
tp91
a(I01
(lp92
F0.6518987341772152
aF0.8125
aF0.0859375
atp93
a(N(lp94
F0.5348101265822784
aF0.3046875
aF0.8515625
atp95
aa(lp96
(I01
g38
tp97
a(I01
g38
tp98
a(N(lp99
F0.5474683544303798
aF0.4296875
aF0.9453125
atp100
a(N(lp101
F0.509493670886076
aF0.15625
aF0.8984375
atp102
a(I01
g45
tp103
a(I01
g45
tp104
a(I01
g45
tp105
a(I01
g45
tp106
a(I01
g45
tp107
a(I01
g45
tp108
a(I01
g45
tp109
a(I01
g45
tp110
a(I01
g45
tp111
a(I01
(lp112
F0.6518987341772152
aF0.8125
aF0.0859375
atp113
a(N(lp114
F0.5348101265822784
aF0.3046875
aF0.8515625
atp115
aa(lp116
(I01
g38
tp117
a(I01
g38
tp118
a(N(lp119
F0.5474683544303798
aF0.4296875
aF0.9453125
atp120
a(N(lp121
F0.509493670886076
aF0.15625
aF0.8984375
atp122
a(I01
g45
tp123
a(I01
g45
tp124
a(I01
g45
tp125
a(I01
g45
tp126
a(I01
g45
tp127
a(I01
g45
tp128
a(I01
g45
tp129
a(I01
g45
tp130
a(N(lp131
F0.5348101265822784
aF0.3046875
aF0.8515625
atp132
a(N(lp133
F0.5348101265822784
aF0.3046875
aF0.8515625
atp134
a(I01
g45
tp135
aa(lp136
(I01
g38
tp137
a(I01
g38
tp138
a(N(lp139
F0.5474683544303798
aF0.4296875
aF0.9453125
atp140
a(N(lp141
F0.5474683544303798
aF0.4296875
aF0.9453125
atp142
a(N(lp143
F0.509493670886076
aF0.15625
aF0.8984375
atp144
a(I01
g45
tp145
a(I01
g45
tp146
a(I01
g45
tp147
a(I01
g45
tp148
a(I01
g45
tp149
a(I01
g45
tp150
a(I01
g45
tp151
a(I01
g45
tp152
a(I01
g45
tp153
a(I01
g45
tp154
aa(lp155
(I01
g38
tp156
a(I01
g38
tp157
a(N(lp158
F0.5221518987341772
aF0.5234375
aF0.59375
atp159
a(I01
(lp160
F0.6518987341772152
aF0.8125
aF0.0859375
atp161
a(N(lp162
F0.5474683544303798
aF0.4296875
aF0.9453125
atp163
a(N(lp164
F0.509493670886076
aF0.15625
aF0.8984375
atp165
a(I01
g45
tp166
a(I01
g45
tp167
a(I01
g45
tp168
a(I01
g45
tp169
a(I01
g45
tp170
a(I01
g45
tp171
a(I01
g45
tp172
a(I01
g45
tp173
a(I01
g45
tp174
aa(lp175
(I01
g38
tp176
a(I01
g38
tp177
a(N(lp178
F0.5221518987341772
aF0.5234375
aF0.59375
atp179
a(I01
g160
tp180
a(I01
g160
tp181
a(N(lp182
F0.509493670886076
aF0.15625
aF0.8984375
atp183
a(N(lp184
F0.5474683544303798
aF0.4296875
aF0.9453125
atp185
a(I01
g45
tp186
a(I01
g45
tp187
a(I01
g45
tp188
a(I01
g45
tp189
a(I01
g45
tp190
a(I01
g45
tp191
a(I01
g45
tp192
a(I01
g45
tp193
aa(lp194
(I01
g38
tp195
a(I01
g38
tp196
a(N(lp197
F0.5221518987341772
aF0.5234375
aF0.59375
atp198
a(I01
g160
tp199
a(I01
g160
tp200
a(N(lp201
F0.509493670886076
aF0.15625
aF0.8984375
atp202
a(N(lp203
F0.5474683544303798
aF0.4296875
aF0.9453125
atp204
a(N(lp205
F0.5474683544303798
aF0.4296875
aF0.9453125
atp206
a(I01
g45
tp207
a(I01
g45
tp208
a(I01
g45
tp209
a(I01
g45
tp210
a(I01
g45
tp211
a(I01
g45
tp212
a(I01
g45
tp213
aa(lp214
(I01
g38
tp215
a(N(lp216
F0.5221518987341772
aF0.5234375
aF0.59375
atp217
a(I01
g160
tp218
a(I01
g160
tp219
a(I01
g160
tp220
a(N(lp221
F0.509493670886076
aF0.15625
aF0.8984375
atp222
a(N(lp223
F0.5474683544303798
aF0.4296875
aF0.9453125
atp224
a(I01
g45
tp225
a(N(lp226
F0.5221518987341772
aF0.5234375
aF0.59375
atp227
a(I01
g45
tp228
a(N(lp229
F0.5221518987341772
aF0.5234375
aF0.59375
atp230
a(N(lp231
F0.5221518987341772
aF0.5234375
aF0.59375
atp232
a(I01
g45
tp233
a(I01
g45
tp234
a(I01
g45
tp235
aa(lp236
(N(lp237
F0.5221518987341772
aF0.5234375
aF0.59375
atp238
a(I01
g160
tp239
a(N(lp240
F0.5221518987341772
aF0.5234375
aF0.59375
atp241
a(I01
g160
tp242
a(I01
g160
tp243
a(N(lp244
F0.509493670886076
aF0.15625
aF0.8984375
atp245
a(N(lp246
F0.5474683544303798
aF0.4296875
aF0.9453125
atp247
a(I01
g45
tp248
a(I01
g45
tp249
a(N(lp250
F0.5221518987341772
aF0.5234375
aF0.59375
atp251
a(I01
g45
tp252
a(I01
g45
tp253
a(I01
g45
tp254
a(I01
g45
tp255
a(I01
g45
tp256
aa(lp257
(I01
g160
tp258
a(I01
g160
tp259
a(N(lp260
F0.5221518987341772
aF0.5234375
aF0.59375
atp261
a(I01
g160
tp262
a(I01
g160
tp263
a(N(lp264
F0.509493670886076
aF0.15625
aF0.8984375
atp265
a(N(lp266
F0.5474683544303798
aF0.4296875
aF0.9453125
atp267
a(I01
g45
tp268
a(I01
g45
tp269
a(I01
g45
tp270
a(N(lp271
F0.5221518987341772
aF0.5234375
aF0.59375
atp272
a(I01
g45
tp273
a(I01
g45
tp274
a(I01
g45
tp275
a(I01
g45
tp276
aa(lp277
(I01
g160
tp278
a(I01
g160
tp279
a(I01
g160
tp280
a(N(lp281
F0.5221518987341772
aF0.5234375
aF0.59375
atp282
a(I01
g160
tp283
a(N(lp284
F0.509493670886076
aF0.15625
aF0.8984375
atp285
a(N(lp286
F0.5474683544303798
aF0.4296875
aF0.9453125
atp287
a(I01
g45
tp288
a(I01
g45
tp289
a(I01
g45
tp290
a(I01
g45
tp291
a(I01
g45
tp292
a(I01
g45
tp293
a(I01
g45
tp294
a(I01
g45
tp295
aa(lp296
(I01
g160
tp297
a(I01
g160
tp298
a(I01
g160
tp299
a(I01
g160
tp300
a(I01
g160
tp301
a(N(lp302
F0.509493670886076
aF0.15625
aF0.8984375
atp303
a(N(lp304
F0.5474683544303798
aF0.4296875
aF0.9453125
atp305
a(I01
g45
tp306
a(I01
g45
tp307
a(I01
g45
tp308
a(I01
g45
tp309
a(I01
g45
tp310
a(I01
g45
tp311
a(I01
g45
tp312
a(I01
g45
tp313
aa(lp314
(I01
g160
tp315
a(I01
g160
tp316
a(I01
g160
tp317
a(I01
g160
tp318
a(I01
g160
tp319
a(N(lp320
F0.5474683544303798
aF0.4296875
aF0.9453125
atp321
a(N(lp322
F0.509493670886076
aF0.15625
aF0.8984375
atp323
a(N(lp324
F0.509493670886076
aF0.15625
aF0.8984375
atp325
a(I01
g45
tp326
a(I01
g45
tp327
a(I01
g45
tp328
a(I01
g45
tp329
a(I01
g45
tp330
a(I01
g45
tp331
a(I01
g45
tp332
aa(lp333
(I01
g160
tp334
a(I01
g160
tp335
a(I01
g160
tp336
a(I01
g160
tp337
a(N(lp338
F0.5474683544303798
aF0.4296875
aF0.9453125
atp339
a(I01
g160
tp340
a(I01
g160
tp341
a(N(lp342
F0.5474683544303798
aF0.4296875
aF0.9453125
atp343
a(N(lp344
F0.509493670886076
aF0.15625
aF0.8984375
atp345
a(I01
(lp346
F0.6518987341772152
aF0.8125
aF0.0859375
atp347
a(I01
(lp348
F0.6518987341772152
aF0.8125
aF0.0859375
atp349
a(I01
g45
tp350
a(I01
g45
tp351
a(I01
g45
tp352
a(I01
g45
tp353
aa(lp354
(I01
g160
tp355
a(I01
g160
tp356
a(I01
g160
tp357
a(N(lp358
F0.5221518987341772
aF0.5234375
aF0.59375
atp359
a(I01
g160
tp360
a(I01
g160
tp361
a(I01
(lp362
F0.6518987341772152
aF0.8125
aF0.0859375
atp363
a(I01
(lp364
F0.6518987341772152
aF0.8125
aF0.0859375
atp365
a(N(lp366
F0.5474683544303798
aF0.4296875
aF0.9453125
atp367
a(N(lp368
F0.509493670886076
aF0.15625
aF0.8984375
atp369
a(I01
(lp370
F0.6518987341772152
aF0.8125
aF0.0859375
atp371
a(I01
(lp372
F0.6518987341772152
aF0.8125
aF0.0859375
atp373
a(I01
(lp374
F0.6518987341772152
aF0.8125
aF0.0859375
atp375
a(I01
g45
tp376
a(I01
g45
tp377
aa(lp378
(I01
g160
tp379
a(I01
g160
tp380
a(N(lp381
F0.5221518987341772
aF0.5234375
aF0.59375
atp382
a(I01
g160
tp383
a(N(lp384
F0.5221518987341772
aF0.5234375
aF0.59375
atp385
a(I01
g160
tp386
a(I01
(lp387
F0.6518987341772152
aF0.8125
aF0.0859375
atp388
a(I01
(lp389
F0.6518987341772152
aF0.8125
aF0.1640625
atp390
a(I01
(lp391
F0.6012658227848101
aF0.6328125
aF0.2734375
atp392
a(N(lp393
F0.509493670886076
aF0.15625
aF0.8984375
atp394
a(I01
(lp395
F0.6012658227848101
aF0.6328125
aF0.2734375
atp396
a(I01
(lp397
F0.6518987341772152
aF0.8125
aF0.1640625
atp398
a(I01
(lp399
F0.6518987341772152
aF0.8125
aF0.0859375
atp400
a(I01
g45
tp401
a(I01
g45
tp402
aa(lp403
(I01
g160
tp404
a(I01
g160
tp405
a(I01
g160
tp406
a(I01
g160
tp407
a(N(lp408
F0.5221518987341772
aF0.5234375
aF0.59375
atp409
a(I01
(lp410
F0.6518987341772152
aF0.8125
aF0.0859375
atp411
a(I01
(lp412
F0.6518987341772152
aF0.8125
aF0.0859375
atp413
a(I01
(lp414
F0.6012658227848101
aF0.6328125
aF0.2734375
atp415
a(N(lp416
F0.30063291139240506
aF0.53125
aF0.8046875
atp417
a(N(lp418
F0.3037974683544304
aF0.4375
aF0.8671875
atp419
a(N(lp420
F0.30063291139240506
aF0.53125
aF0.6484375
atp421
a(I01
(lp422
F0.6012658227848101
aF0.6328125
aF0.2734375
atp423
a(I01
(lp424
F0.6518987341772152
aF0.8125
aF0.0859375
atp425
a(I01
(lp426
F0.6518987341772152
aF0.8125
aF0.0859375
atp427
a(I01
g45
tp428
aa(lp429
(I01
g160
tp430
a(I01
g160
tp431
a(I01
g160
tp432
a(I01
g160
tp433
a(N(lp434
F0.5221518987341772
aF0.5234375
aF0.59375
atp435
a(I01
(lp436
F0.6518987341772152
aF0.8125
aF0.0859375
atp437
a(I01
(lp438
F0.6518987341772152
aF0.8125
aF0.0859375
atp439
a(I01
(lp440
F0.6518987341772152
aF0.8125
aF0.2421875
atp441
a(N(lp442
F0.30063291139240506
aF0.53125
aF0.6484375
atp443
a(N(lp444
F0.3037974683544304
aF0.4375
aF0.8671875
atp445
a(N(lp446
F0.30063291139240506
aF0.53125
aF0.8046875
atp447
a(I01
(lp448
F0.6518987341772152
aF0.8125
aF0.2421875
atp449
a(I01
(lp450
F0.6518987341772152
aF0.8125
aF0.0859375
atp451
a(I01
(lp452
F0.6518987341772152
aF0.8125
aF0.0859375
atp453
a(I01
g45
tp454
aa(lp455
(I01
g160
tp456
a(I01
g160
tp457
a(I01
g160
tp458
a(I01
g160
tp459
a(I01
g160
tp460
a(I01
g160
tp461
a(I01
(lp462
F0.6518987341772152
aF0.8125
aF0.0859375
atp463
a(I01
(lp464
F0.6518987341772152
aF0.8125
aF0.109375
atp465
a(I01
(lp466
F0.6518987341772152
aF0.8125
aF0.2421875
atp467
a(N(lp468
F0.07278481012658228
aF0.6015625
aF0.6875
atp469
a(I01
(lp470
F0.6518987341772152
aF0.8125
aF0.2421875
atp471
a(I01
(lp472
F0.6518987341772152
aF0.8125
aF0.109375
atp473
a(I01
(lp474
F0.6518987341772152
aF0.8125
aF0.0859375
atp475
a(I01
g45
tp476
a(I01
g45
tp477
aa(lp478
(I01
g160
tp479
a(I01
g160
tp480
a(I01
g160
tp481
a(I01
g160
tp482
a(I01
g160
tp483
a(I01
g160
tp484
a(I01
(lp485
F0.6518987341772152
aF0.8125
aF0.0859375
atp486
a(I01
(lp487
F0.6518987341772152
aF0.8125
aF0.0859375
atp488
a(N(lp489
F0.3037974683544304
aF0.6328125
aF0.484375
atp490
a(N(lp491
F0.3037974683544304
aF0.6328125
aF0.65625
atp492
a(N(lp493
F0.3037974683544304
aF0.6328125
aF0.484375
atp494
a(I01
(lp495
F0.6518987341772152
aF0.8125
aF0.0859375
atp496
a(I01
(lp497
F0.6518987341772152
aF0.8125
aF0.0859375
atp498
a(I01
g45
tp499
a(I01
g45
tp500
aa(lp501
(I01
g160
tp502
a(I01
g160
tp503
a(I01
g160
tp504
a(I01
g160
tp505
a(I01
g160
tp506
a(I01
g160
tp507
a(N(lp508
F0.3037974683544304
aF0.84375
aF0.1171875
atp509
a(N(lp510
F0.3037974683544304
aF0.84375
aF0.1171875
atp511
a(N(lp512
F0.3037974683544304
aF0.6328125
aF0.2109375
atp513
a(N(lp514
F0.3037974683544304
aF0.6328125
aF0.28125
atp515
a(N(lp516
F0.3037974683544304
aF0.6328125
aF0.2109375
atp517
a(N(lp518
F0.3037974683544304
aF0.84375
aF0.1171875
atp519
a(I01
g45
tp520
a(I01
g45
tp521
a(I01
g45
tp522
aa(lp523
(I01
g160
tp524
a(I01
g160
tp525
a(I01
g160
tp526
a(N(lp527
F0.3037974683544304
aF0.84375
aF0.0625
atp528
a(N(lp529
F0.3037974683544304
aF0.84375
aF0.0625
atp530
a(N(lp531
F0.3037974683544304
aF0.84375
aF0.0625
atp532
a(N(lp533
F0.3037974683544304
aF0.84375
aF0.0625
atp534
a(N(lp535
F0.3037974683544304
aF0.84375
aF0.0625
atp536
a(N(lp537
F0.3037974683544304
aF0.84375
aF0.0625
atp538
a(N(lp539
F0.3037974683544304
aF0.84375
aF0.0625
atp540
a(N(lp541
F0.3037974683544304
aF0.84375
aF0.0625
atp542
a(N(lp543
F0.3037974683544304
aF0.84375
aF0.0625
atp544
a(N(lp545
F0.3037974683544304
aF0.84375
aF0.0625
atp546
a(N(lp547
F0.3037974683544304
aF0.84375
aF0.0625
atp548
a(I01
g45
tp549
aa(lp550
(N(lp551
F0.3037974683544304
aF0.84375
aF0.03125
atp552
a(N(lp553
F0.3037974683544304
aF0.84375
aF0.03125
atp554
a(N(lp555
F0.3037974683544304
aF0.84375
aF0.03125
atp556
a(N(lp557
F0.3037974683544304
aF0.84375
aF0.03125
atp558
a(N(lp559
F0.3037974683544304
aF0.84375
aF0.03125
atp560
a(N(lp561
F0.3037974683544304
aF0.84375
aF0.03125
atp562
a(N(lp563
F0.3037974683544304
aF0.84375
aF0.03125
atp564
a(N(lp565
F0.3037974683544304
aF0.84375
aF0.03125
atp566
a(N(lp567
F0.3037974683544304
aF0.84375
aF0.03125
atp568
a(N(lp569
F0.3037974683544304
aF0.84375
aF0.03125
atp570
a(N(lp571
F0.3037974683544304
aF0.84375
aF0.03125
atp572
a(N(lp573
F0.3037974683544304
aF0.84375
aF0.03125
atp574
a(N(lp575
F0.3037974683544304
aF0.84375
aF0.03125
atp576
a(N(lp577
F0.3037974683544304
aF0.84375
aF0.03125
atp578
a(N(lp579
F0.3037974683544304
aF0.84375
aF0.03125
atp580
aasS'height'
p581
I25
sS'width'
p582
I15
sS'column_numbers'
p583
(lp584
(I10
I13
tp585
a(I9
I14
tp586
a(I1
I5
I6
tp587
a(I6
I3
I6
tp588
a(I5
I8
I1
I3
tp589
a(I6
I8
tp590
a(I7
I7
tp591
a(I8
I5
I6
tp592
a(I9
I5
I1
I1
tp593
a(I10
I5
tp594
a(I9
I1
I6
I1
tp595
a(I9
I12
tp596
a(I4
I18
tp597
a(I1
I2
I18
tp598
a(I2
I20
tp599
asS'background'
p600
S'blue'
p601
sb.