ccopy_reg
_reconstructor
p1
(cpuzzle
Puzzle
p2
c__builtin__
object
p3
NtRp4
(dp5
S'row_numbers'
p6
(lp7
(I6
tp8
a(I10
tp9
a(I2
I4
I2
tp10
a(I2
I2
I2
tp11
a(I1
I2
I2
I1
I1
tp12
a(I2
I7
I2
tp13
a(I1
I5
I3
tp14
a(I1
I6
I1
tp15
a(I2
I7
I1
tp16
a(I2
I6
I2
tp17
a(I1
I5
I1
tp18
a(I2
I6
I2
tp19
a(I1
I2
I5
I2
I1
tp20
a(I1
I3
I6
I1
tp21
a(I2
I6
I2
tp22
a(I9
tp23
a(I7
tp24
a(I4
I3
tp25
a(I5
tp26
a(I8
tp27
a(I3
I5
tp28
a(I3
I3
tp29
a(I2
I4
tp30
a(I2
I2
tp31
a(I3
I3
tp32
asS'name'
p33
VAtlas
p34
sS'cells'
p35
(lp36
(lp37
(I00
(lp38
F0.088607594936708861
aF0.9375
aF0.6953125
atp39
a(I00
g38
tp40
a(I00
g38
tp41
a(I00
g38
tp42
a(I00
g38
tp43
a(I00
g38
tp44
a(I00
g38
tp45
a(I00
g38
tp46
a(I01
(lp47
F0.54113924050632911
aF0.171875
aF0.6171875
atp48
a(I01
g47
tp49
a(I01
g47
tp50
a(I01
g47
tp51
a(I01
g47
tp52
a(I01
g47
tp53
a(I00
(lp54
F0.088607594936708861
aF0.9375
aF0.6953125
atp55
a(I00
g54
tp56
a(I00
g54
tp57
a(I00
g54
tp58
a(I00
g54
tp59
a(I00
g54
tp60
aa(lp61
(I00
g38
tp62
a(I00
g38
tp63
a(I00
g38
tp64
a(I00
g38
tp65
a(I00
g38
tp66
a(I00
g38
tp67
a(I01
(lp68
F0.54113924050632911
aF0.171875
aF0.6171875
atp69
a(I01
(lp70
F0.59493670886075944
aF0.4140625
aF0.5078125
atp71
a(I01
(lp72
F0.61075949367088611
aF0.6953125
aF0.4375
atp73
a(I01
(lp74
F0.61075949367088611
aF0.6953125
aF0.4375
atp75
a(I01
g72
tp76
a(I01
(lp77
F0.61075949367088611
aF0.6953125
aF0.4375
atp78
a(I01
(lp79
F0.61075949367088611
aF0.6953125
aF0.4375
atp80
a(I01
g72
tp81
a(I01
(lp82
F0.59493670886075944
aF0.4140625
aF0.5078125
atp83
a(I01
(lp84
F0.54113924050632911
aF0.171875
aF0.6171875
atp85
a(I00
g54
tp86
a(I00
g54
tp87
a(I00
g54
tp88
a(I00
g54
tp89
aa(lp90
(I00
g38
tp91
a(I00
g38
tp92
a(I00
g38
tp93
a(I00
g38
tp94
a(I00
g38
tp95
a(I01
(lp96
F0.54113924050632911
aF0.171875
aF0.6171875
atp97
a(I01
g72
tp98
a(I00
(lp99
F0.25
aF0.1640625
aF0.6484375
atp100
a(I00
(lp101
F0.25
aF0.1640625
aF0.6484375
atp102
a(I01
g72
tp103
a(I01
g72
tp104
a(I01
g72
tp105
a(I01
g72
tp106
a(I00
(lp107
F0.25
aF0.1640625
aF0.6484375
atp108
a(I00
(lp109
F0.25
aF0.1640625
aF0.6484375
atp110
a(I01
g72
tp111
a(I01
(lp112
F0.54113924050632911
aF0.171875
aF0.6171875
atp113
a(I00
g54
tp114
a(I00
g54
tp115
a(I00
g54
tp116
aa(lp117
(I00
g38
tp118
a(I00
g38
tp119
a(I00
g38
tp120
a(I00
g38
tp121
a(I01
(lp122
F0.54113924050632911
aF0.171875
aF0.6171875
atp123
a(I01
g72
tp124
a(I00
(lp125
F0.32594936708860761
aF0.7578125
aF0.609375
atp126
a(I00
(lp127
F0.32594936708860761
aF0.7578125
aF0.609375
atp128
a(I00
(lp129
F0.25
aF0.1640625
aF0.6484375
atp130
a(I00
(lp131
F0.25
aF0.1640625
aF0.6484375
atp132
a(I01
g72
tp133
a(I01
g72
tp134
a(I00
(lp135
F0.25
aF0.1640625
aF0.6484375
atp136
a(I00
(lp137
F0.32594936708860761
aF0.7578125
aF0.609375
atp138
a(I00
(lp139
F0.32594936708860761
aF0.7578125
aF0.609375
atp140
a(I00
(lp141
F0.32594936708860761
aF0.7578125
aF0.609375
atp142
a(I01
g72
tp143
a(I01
(lp144
F0.54113924050632911
aF0.171875
aF0.6171875
atp145
a(I00
g54
tp146
a(I00
g54
tp147
aa(lp148
(I00
g38
tp149
a(I00
g38
tp150
a(I00
g38
tp151
a(I00
g38
tp152
a(I01
(lp153
F0.59493670886075944
aF0.4140625
aF0.5078125
atp154
a(I00
(lp155
F0.32594936708860761
aF0.7578125
aF0.609375
atp156
a(I00
g155
tp157
a(I01
g72
tp158
a(I01
g72
tp159
a(I00
(lp160
F0.32594936708860761
aF0.7578125
aF0.609375
atp161
a(I01
g72
tp162
a(I01
g72
tp163
a(I00
g137
tp164
a(I00
g137
tp165
a(I01
g72
tp166
a(I00
g137
tp167
a(I00
g137
tp168
a(I01
(lp169
F0.59493670886075944
aF0.4140625
aF0.375
atp170
a(I00
g54
tp171
a(I00
g54
tp172
aa(lp173
(I00
g38
tp174
a(I00
g38
tp175
a(I00
(lp176
F0.088607594936708861
aF0.9375
aF0.6953125
atp177
a(I01
(lp178
F0.54113924050632911
aF0.171875
aF0.6171875
atp179
a(I01
g72
tp180
a(I00
g155
tp181
a(I00
g155
tp182
a(I00
g155
tp183
a(I01
g72
tp184
a(I01
g72
tp185
a(I01
g72
tp186
a(I01
g72
tp187
a(I01
g72
tp188
a(I01
g72
tp189
a(I01
g72
tp190
a(I00
g137
tp191
a(I00
g137
tp192
a(I01
(lp193
F0.61075949367088611
aF0.6953125
aF0.2109375
atp194
a(I01
(lp195
F0.54113924050632911
aF0.171875
aF0.6171875
atp196
a(I00
g54
tp197
aa(lp198
(I00
g38
tp199
a(I00
g38
tp200
a(I00
(lp201
F0.088607594936708861
aF0.9375
aF0.6953125
atp202
a(I01
g178
tp203
a(I00
(lp204
F0.189873417721519
aF0.75
aF0.609375
atp205
a(I00
g155
tp206
a(I00
g155
tp207
a(I00
g155
tp208
a(I00
g155
tp209
a(I01
g72
tp210
a(I01
g72
tp211
a(I01
g72
tp212
a(I01
g72
tp213
a(I01
g72
tp214
a(I00
g137
tp215
a(I00
(lp216
F0.189873417721519
aF0.75
aF0.609375
atp217
a(I01
g72
tp218
a(I01
(lp219
F0.61075949367088611
aF0.6953125
aF0.2109375
atp220
a(I01
g195
tp221
a(I00
g54
tp222
aa(lp223
(I00
g38
tp224
a(I00
g38
tp225
a(I00
(lp226
F0.088607594936708861
aF0.9375
aF0.6953125
atp227
a(I01
g178
tp228
a(I00
(lp229
F0.189873417721519
aF0.75
aF0.609375
atp230
a(I00
(lp231
F0.189873417721519
aF0.75
aF0.609375
atp232
a(I00
(lp233
F0.189873417721519
aF0.75
aF0.609375
atp234
a(I01
g72
tp235
a(I01
g72
tp236
a(I01
g72
tp237
a(I01
g72
tp238
a(I01
g72
tp239
a(I01
g72
tp240
a(I00
(lp241
F0.189873417721519
aF0.75
aF0.609375
atp242
a(I00
(lp243
F0.189873417721519
aF0.75
aF0.609375
atp244
a(I00
(lp245
F0.189873417721519
aF0.75
aF0.609375
atp246
a(I00
(lp247
F0.189873417721519
aF0.75
aF0.609375
atp248
a(I00
(lp249
F0.189873417721519
aF0.75
aF0.3671875
atp250
a(I01
g195
tp251
a(I00
g54
tp252
aa(lp253
(I00
g38
tp254
a(I00
g38
tp255
a(I00
g38
tp256
a(I01
g178
tp257
a(I01
g72
tp258
a(I00
(lp259
F0.189873417721519
aF0.75
aF0.609375
atp260
a(I01
g72
tp261
a(I01
g72
tp262
a(I01
g72
tp263
a(I01
g72
tp264
a(I01
g72
tp265
a(I01
g72
tp266
a(I01
g72
tp267
a(I00
(lp268
F0.189873417721519
aF0.75
aF0.609375
atp269
a(I00
(lp270
F0.189873417721519
aF0.75
aF0.609375
atp271
a(I00
(lp272
F0.189873417721519
aF0.75
aF0.609375
atp273
a(I00
(lp274
F0.189873417721519
aF0.75
aF0.3671875
atp275
a(I00
(lp276
F0.189873417721519
aF0.75
aF0.3671875
atp277
a(I01
g195
tp278
a(I00
g54
tp279
aa(lp280
(I00
g38
tp281
a(I00
g38
tp282
a(I00
g38
tp283
a(I01
g178
tp284
a(I01
g72
tp285
a(I00
(lp286
F0.189873417721519
aF0.75
aF0.609375
atp287
a(I00
(lp288
F0.189873417721519
aF0.75
aF0.609375
atp289
a(I00
(lp290
F0.189873417721519
aF0.75
aF0.609375
atp291
a(I01
g72
tp292
a(I01
g72
tp293
a(I01
g72
tp294
a(I01
g72
tp295
a(I01
g72
tp296
a(I01
g72
tp297
a(I00
g137
tp298
a(I00
(lp299
F0.189873417721519
aF0.75
aF0.3671875
atp300
a(I00
(lp301
F0.189873417721519
aF0.75
aF0.3671875
atp302
a(I01
(lp303
F0.61075949367088611
aF0.6953125
aF0.2109375
atp304
a(I01
g195
tp305
a(I00
g54
tp306
aa(lp307
(I00
g38
tp308
a(I00
g38
tp309
a(I00
g38
tp310
a(I00
g38
tp311
a(I01
(lp312
F0.59493670886075944
aF0.4140625
aF0.5078125
atp313
a(I00
(lp314
F0.189873417721519
aF0.75
aF0.609375
atp315
a(I00
g155
tp316
a(I00
g155
tp317
a(I00
g155
tp318
a(I01
g72
tp319
a(I01
g72
tp320
a(I01
g72
tp321
a(I01
g72
tp322
a(I01
(lp323
F0.61075949367088611
aF0.6953125
aF0.4375
atp324
a(I00
(lp325
F0.32594936708860761
aF0.7578125
aF0.34375
atp326
a(I00
(lp327
F0.32594936708860761
aF0.7578125
aF0.34375
atp328
a(I00
(lp329
F0.32594936708860761
aF0.7578125
aF0.34375
atp330
a(I01
(lp331
F0.59493670886075944
aF0.4140625
aF0.375
atp332
a(I00
g54
tp333
a(I00
g54
tp334
aa(lp335
(I00
g38
tp336
a(I00
g38
tp337
a(I00
g38
tp338
a(I00
g38
tp339
a(I01
(lp340
F0.54113924050632911
aF0.171875
aF0.6171875
atp341
a(I01
g72
tp342
a(I00
g155
tp343
a(I00
g155
tp344
a(I01
g72
tp345
a(I01
g72
tp346
a(I01
g72
tp347
a(I01
g72
tp348
a(I01
(lp349
F0.61075949367088611
aF0.6953125
aF0.4375
atp350
a(I01
(lp351
F0.61075949367088611
aF0.6953125
aF0.2109375
atp352
a(I00
(lp353
F0.32594936708860761
aF0.7578125
aF0.34375
atp354
a(I00
(lp355
F0.32594936708860761
aF0.7578125
aF0.34375
atp356
a(I01
(lp357
F0.61075949367088611
aF0.6953125
aF0.2109375
atp358
a(I01
(lp359
F0.54113924050632911
aF0.171875
aF0.6171875
atp360
a(I00
g54
tp361
a(I00
g54
tp362
aa(lp363
(I00
g38
tp364
a(I00
g38
tp365
a(I00
g38
tp366
a(I01
(lp367
F0.088607594936708861
aF0.3515625
aF0.8046875
atp368
a(I00
(lp369
F0.088607594936708861
aF0.9375
aF0.6953125
atp370
a(I01
(lp371
F0.54113924050632911
aF0.171875
aF0.6171875
atp372
a(I01
g72
tp373
a(I00
g155
tp374
a(I00
g155
tp375
a(I01
g72
tp376
a(I01
g72
tp377
a(I01
(lp378
F0.61075949367088611
aF0.6953125
aF0.2109375
atp379
a(I01
(lp380
F0.61075949367088611
aF0.6953125
aF0.2109375
atp381
a(I01
(lp382
F0.61075949367088611
aF0.6953125
aF0.2109375
atp383
a(I00
(lp384
F0.32594936708860761
aF0.7578125
aF0.34375
atp385
a(I01
(lp386
F0.61075949367088611
aF0.6953125
aF0.2109375
atp387
a(I01
(lp388
F0.54113924050632911
aF0.171875
aF0.6171875
atp389
a(I00
(lp390
F0.088607594936708861
aF0.9375
aF0.6953125
atp391
a(I01
(lp392
F0.088607594936708861
aF0.3515625
aF0.8046875
atp393
a(I00
g54
tp394
aa(lp395
(I00
g38
tp396
a(I00
g38
tp397
a(I00
g38
tp398
a(I00
g38
tp399
a(I01
(lp400
F0.088607594936708861
aF0.3515625
aF0.8046875
atp401
a(I00
(lp402
F0.088607594936708861
aF0.9375
aF0.6953125
atp403
a(I01
(lp404
F0.54113924050632911
aF0.171875
aF0.6171875
atp405
a(I01
(lp406
F0.59493670886075944
aF0.4140625
aF0.375
atp407
a(I01
(lp408
F0.61075949367088611
aF0.6953125
aF0.2109375
atp409
a(I00
(lp410
F0.32594936708860761
aF0.7578125
aF0.34375
atp411
a(I01
(lp412
F0.61075949367088611
aF0.6953125
aF0.2109375
atp413
a(I01
(lp414
F0.61075949367088611
aF0.6953125
aF0.2109375
atp415
a(I01
(lp416
F0.61075949367088611
aF0.6953125
aF0.2109375
atp417
a(I01
(lp418
F0.61075949367088611
aF0.6953125
aF0.2109375
atp419
a(I01
(lp420
F0.59493670886075944
aF0.4140625
aF0.375
atp421
a(I01
(lp422
F0.54113924050632911
aF0.171875
aF0.6171875
atp423
a(I00
(lp424
F0.088607594936708861
aF0.9375
aF0.6953125
atp425
a(I01
(lp426
F0.088607594936708861
aF0.3515625
aF0.8046875
atp427
a(I00
g54
tp428
a(I00
g54
tp429
aa(lp430
(I00
g38
tp431
a(I00
g38
tp432
a(I00
g38
tp433
a(I00
g38
tp434
a(I00
g38
tp435
a(I01
(lp436
F0.088607594936708861
aF0.3515625
aF0.8046875
atp437
a(I01
g436
tp438
a(I00
(lp439
F0.088607594936708861
aF0.9375
aF0.6953125
atp440
a(I01
(lp441
F0.54113924050632911
aF0.171875
aF0.6171875
atp442
a(I01
g441
tp443
a(I01
g441
tp444
a(I01
g441
tp445
a(I01
g441
tp446
a(I01
g441
tp447
a(I00
(lp448
F0.088607594936708861
aF0.9375
aF0.6953125
atp449
a(I01
(lp450
F0.088607594936708861
aF0.3515625
aF0.8046875
atp451
a(I01
(lp452
F0.088607594936708861
aF0.3515625
aF0.8046875
atp453
a(I00
g54
tp454
a(I00
g54
tp455
a(I00
g54
tp456
aa(lp457
(I00
g38
tp458
a(I00
g38
tp459
a(I00
g38
tp460
a(I00
g38
tp461
a(I00
g38
tp462
a(I00
g38
tp463
a(I00
g38
tp464
a(I01
g450
tp465
a(I01
g450
tp466
a(I01
(lp467
F0.088607594936708861
aF0.3515625
aF0.8046875
atp468
a(I01
(lp469
F0.088607594936708861
aF0.3515625
aF0.8046875
atp470
a(I01
(lp471
F0.088607594936708861
aF0.3515625
aF0.8046875
atp472
a(I01
(lp473
F0.088607594936708861
aF0.3515625
aF0.8046875
atp474
a(I01
(lp475
F0.11708860759493671
aF0.5078125
aF0.359375
atp476
a(I01
(lp477
F0.11708860759493671
aF0.5078125
aF0.359375
atp478
a(I01
(lp479
F0.11708860759493671
aF0.5078125
aF0.2578125
atp480
a(I00
g54
tp481
a(I00
g54
tp482
a(I00
g54
tp483
a(I00
g54
tp484
aa(lp485
(I00
g38
tp486
a(I00
g38
tp487
a(I00
g38
tp488
a(I00
g38
tp489
a(I00
g38
tp490
a(I00
g38
tp491
a(I00
g38
tp492
a(I00
g38
tp493
a(I00
g38
tp494
a(I01
g450
tp495
a(I01
(lp496
F0.088607594936708861
aF0.3515625
aF0.6875
atp497
a(I01
(lp498
F0.088607594936708861
aF0.3515625
aF0.5859375
atp499
a(I01
(lp500
F0.088607594936708861
aF0.3515625
aF0.6875
atp501
a(I01
g450
tp502
a(I01
(lp503
F0.11708860759493671
aF0.5078125
aF0.359375
atp504
a(I01
(lp505
F0.11708860759493671
aF0.5078125
aF0.2578125
atp506
a(I00
g54
tp507
a(I00
g54
tp508
a(I00
g54
tp509
a(I00
g54
tp510
aa(lp511
(I00
g38
tp512
a(I00
g38
tp513
a(I00
g38
tp514
a(I00
g38
tp515
a(I00
g38
tp516
a(I00
g38
tp517
a(I00
g38
tp518
a(I00
g38
tp519
a(I01
g450
tp520
a(I01
(lp521
F0.088607594936708861
aF0.3515625
aF0.6875
atp522
a(I01
(lp523
F0.088607594936708861
aF0.3515625
aF0.5859375
atp524
a(I01
(lp525
F0.088607594936708861
aF0.3515625
aF0.5859375
atp526
a(I00
g54
tp527
a(I01
(lp528
F0.088607594936708861
aF0.3515625
aF0.5859375
atp529
a(I01
(lp530
F0.11708860759493671
aF0.5078125
aF0.2578125
atp531
a(I01
(lp532
F0.11708860759493671
aF0.5078125
aF0.2578125
atp533
a(I00
g54
tp534
a(I00
g54
tp535
a(I00
g54
tp536
a(I00
g54
tp537
aa(lp538
(I00
g38
tp539
a(I00
g38
tp540
a(I00
g38
tp541
a(I00
g38
tp542
a(I00
g38
tp543
a(I00
g38
tp544
a(I00
g38
tp545
a(I01
(lp546
F0.04746835443037975
aF0.1015625
aF0.8515625
atp547
a(I01
(lp548
F0.04746835443037975
aF0.1015625
aF0.8515625
atp549
a(I01
g548
tp550
a(I01
(lp551
F0.04746835443037975
aF0.1015625
aF0.71875
atp552
a(I01
(lp553
F0.04746835443037975
aF0.1015625
aF0.6171875
atp554
a(I00
g54
tp555
a(I00
g54
tp556
a(I00
g54
tp557
a(I00
g54
tp558
a(I00
g54
tp559
a(I00
g54
tp560
a(I00
g54
tp561
a(I00
g54
tp562
aa(lp563
(I00
g38
tp564
a(I00
g38
tp565
a(I00
g38
tp566
a(I00
g38
tp567
a(I00
g38
tp568
a(I00
g38
tp569
a(I01
g450
tp570
a(I01
g450
tp571
a(I01
(lp572
F0.04746835443037975
aF0.1015625
aF0.8515625
atp573
a(I01
g548
tp574
a(I01
g548
tp575
a(I01
g548
tp576
a(I01
g548
tp577
a(I01
g450
tp578
a(I00
g54
tp579
a(I00
g54
tp580
a(I00
g54
tp581
a(I00
g54
tp582
a(I00
g54
tp583
a(I00
g54
tp584
aa(lp585
(I00
g38
tp586
a(I00
g38
tp587
a(I00
g38
tp588
a(I00
g38
tp589
a(I00
g38
tp590
a(I01
g450
tp591
a(I01
g450
tp592
a(I01
(lp593
F0.088607594936708861
aF0.3515625
aF0.5859375
atp594
a(I00
(lp595
F0.088607594936708861
aF0.9375
aF0.6953125
atp596
a(I00
g595
tp597
a(I00
g595
tp598
a(I01
(lp599
F0.088607594936708861
aF0.3515625
aF0.5859375
atp600
a(I01
g599
tp601
a(I01
(lp602
F0.088607594936708861
aF0.3515625
aF0.5859375
atp603
a(I01
g450
tp604
a(I01
g450
tp605
a(I00
g54
tp606
a(I00
g54
tp607
a(I00
g54
tp608
a(I00
g54
tp609
aa(lp610
(I00
g38
tp611
a(I00
g38
tp612
a(I00
g38
tp613
a(I00
g38
tp614
a(I01
g450
tp615
a(I01
(lp616
F0.088607594936708861
aF0.3515625
aF0.6875
atp617
a(I01
(lp618
F0.088607594936708861
aF0.3515625
aF0.5859375
atp619
a(I00
g595
tp620
a(I00
g595
tp621
a(I00
g595
tp622
a(I00
g595
tp623
a(I00
g595
tp624
a(I00
g595
tp625
a(I00
g595
tp626
a(I01
g450
tp627
a(I01
(lp628
F0.088607594936708861
aF0.3515625
aF0.6875
atp629
a(I01
(lp630
F0.088607594936708861
aF0.3515625
aF0.5859375
atp631
a(I00
g54
tp632
a(I00
g54
tp633
a(I00
g54
tp634
aa(lp635
(I00
g38
tp636
a(I00
g38
tp637
a(I00
g38
tp638
a(I01
g450
tp639
a(I01
(lp640
F0.088607594936708861
aF0.3515625
aF0.5859375
atp641
a(I00
g595
tp642
a(I00
g595
tp643
a(I00
g595
tp644
a(I00
g595
tp645
a(I00
g595
tp646
a(I00
g595
tp647
a(I00
g595
tp648
a(I01
g450
tp649
a(I01
(lp650
F0.088607594936708861
aF0.3515625
aF0.6875
atp651
a(I01
(lp652
F0.088607594936708861
aF0.3515625
aF0.5859375
atp653
a(I01
g652
tp654
a(I00
g54
tp655
a(I00
g54
tp656
a(I00
g54
tp657
a(I00
g54
tp658
aa(lp659
(I00
g38
tp660
a(I00
g38
tp661
a(I01
g450
tp662
a(I01
(lp663
F0.088607594936708861
aF0.3515625
aF0.5859375
atp664
a(I00
g595
tp665
a(I00
g595
tp666
a(I00
(lp667
F0.088607594936708861
aF0.9375
aF0.6953125
atp668
a(I00
(lp669
F0.088607594936708861
aF0.9375
aF0.6953125
atp670
a(I00
(lp671
F0.088607594936708861
aF0.9375
aF0.4765625
atp672
a(I00
(lp673
F0.088607594936708861
aF0.9375
aF0.4765625
atp674
a(I00
(lp675
F0.088607594936708861
aF0.9375
aF0.4765625
atp676
a(I01
g450
tp677
a(I01
(lp678
F0.088607594936708861
aF0.3515625
aF0.5859375
atp679
a(I00
(lp680
F0.088607594936708861
aF0.9375
aF0.4765625
atp681
a(I00
g54
tp682
a(I00
g54
tp683
a(I00
g54
tp684
a(I00
g54
tp685
a(I00
g54
tp686
a(I00
g54
tp687
aa(lp688
(I01
g450
tp689
a(I01
g450
tp690
a(I01
(lp691
F0.088607594936708861
aF0.3515625
aF0.5859375
atp692
a(I00
(lp693
F0.088607594936708861
aF0.9375
aF0.4765625
atp694
a(I00
(lp695
F0.088607594936708861
aF0.9375
aF0.4765625
atp696
a(I00
(lp697
F0.088607594936708861
aF0.9375
aF0.4765625
atp698
a(I00
(lp699
F0.088607594936708861
aF0.9375
aF0.4765625
atp700
a(I00
(lp701
F0.088607594936708861
aF0.9375
aF0.4765625
atp702
a(I00
(lp703
F0.088607594936708861
aF0.9375
aF0.4765625
atp704
a(I00
(lp705
F0.088607594936708861
aF0.9375
aF0.4765625
atp706
a(I00
(lp707
F0.088607594936708861
aF0.9375
aF0.4765625
atp708
a(I01
g450
tp709
a(I01
g450
tp710
a(I01
g450
tp711
a(I00
(lp712
F0.088607594936708861
aF0.9375
aF0.4765625
atp713
a(I00
(lp714
F0.088607594936708861
aF0.9375
aF0.4765625
atp715
a(I00
g54
tp716
a(I00
g54
tp717
a(I00
g54
tp718
a(I00
g54
tp719
aasS'height'
p720
I25
sS'width'
p721
I20
sS'column_numbers'
p722
(lp723
(I1
tp724
a(I1
tp725
a(I2
tp726
a(I5
I1
I2
tp727
a(I3
I4
I1
I2
tp728
a(I2
I2
I1
I2
tp729
a(I2
I1
I3
I3
tp730
a(I1
I1
I2
I1
I1
I3
tp731
a(I2
I2
I3
I1
I3
I3
tp732
a(I3
I8
I6
tp733
a(I20
tp734
a(I21
I2
tp735
a(I3
I12
I2
I3
tp736
a(I2
I2
I9
I2
I1
I1
tp737
a(I1
I2
I1
I3
I3
tp738
a(I2
I6
I3
tp739
a(I2
I1
I2
I1
I1
tp740
a(I4
I3
I1
tp741
a(I5
I1
tp742
a(I0
tp743
asS'background'
p744
S'blue'
p745
sb.