ccopy_reg
_reconstructor
p0
(cpuzzle
Puzzle
p1
c__builtin__
object
p2
Ntp3
Rp4
(dp5
S'row_numbers'
p6
(lp7
(I1
I1
I1
I1
I1
I1
tp8
a(I1
I1
I1
I1
I1
I1
tp9
a(I3
I3
I3
I3
tp10
a(I1
I1
I1
I1
I1
I3
I1
tp11
a(I1
I1
I1
I1
I1
I3
I1
tp12
a(I1
I3
I1
I1
I3
I1
tp13
a(I1
I3
I3
I3
I1
tp14
a(I1
I3
I3
I3
I1
tp15
a(I1
I1
I1
I1
I1
tp16
a(I15
tp17
asS'name'
p18
VTest Tubes
p19
sS'cells'
p20
(lp21
(lp22
(I00
(lp23
F0.49683544303797467
aF0.1640625
aF0.875
atp24
a(I00
g23
tp25
a(I01
(lp26
F0.5253164556962026
aF0.6875
aF0.8203125
atp27
a(I00
(lp28
F0.49683544303797467
aF0.1640625
aF0.875
atp29
a(I01
(lp30
F0.5253164556962026
aF0.6875
aF0.8203125
atp31
a(I00
(lp32
F0.49683544303797467
aF0.1640625
aF0.875
atp33
a(I01
(lp34
F0.5253164556962026
aF0.6875
aF0.8203125
atp35
a(N(lp36
F0.49683544303797467
aF0.1640625
aF0.875
atp37
a(I01
(lp38
F0.5253164556962026
aF0.6875
aF0.8203125
atp39
a(N(lp40
F0.49683544303797467
aF0.1640625
aF0.875
atp41
a(I01
(lp42
F0.5253164556962026
aF0.6875
aF0.8203125
atp43
a(N(lp44
F0.49683544303797467
aF0.1640625
aF0.875
atp45
a(I01
(lp46
F0.5253164556962026
aF0.6875
aF0.8203125
atp47
a(N(lp48
F0.49683544303797467
aF0.1640625
aF0.875
atp49
a(I00
g48
tp50
aa(lp51
(Ng23
tp52
a(Ng23
tp53
a(I01
(lp54
F0.5253164556962026
aF0.6875
aF0.8203125
atp55
a(Ng28
tp56
a(I01
(lp57
F0.5253164556962026
aF0.6875
aF0.8203125
atp58
a(Ng32
tp59
a(I01
(lp60
F0.5253164556962026
aF0.6875
aF0.8203125
atp61
a(Ng36
tp62
a(I01
(lp63
F0.5253164556962026
aF0.6875
aF0.8203125
atp64
a(Ng40
tp65
a(I01
(lp66
F0.5253164556962026
aF0.6875
aF0.8203125
atp67
a(N(lp68
F0.49683544303797467
aF0.1640625
aF0.875
atp69
a(I01
(lp70
F0.5253164556962026
aF0.6875
aF0.8203125
atp71
a(Ng48
tp72
a(Ng48
tp73
aa(lp74
(I01
(lp75
F0.08860759493670886
aF0.7421875
aF0.5625
atp76
a(I01
(lp77
F0.08860759493670886
aF0.7421875
aF0.5625
atp78
a(I01
(lp79
F0.08860759493670886
aF0.7421875
aF0.5625
atp80
a(N(lp81
F0.08860759493670886
aF0.7421875
aF0.5625
atp82
a(I01
(lp83
F0.08860759493670886
aF0.7421875
aF0.5625
atp84
a(I01
(lp85
F0.08860759493670886
aF0.7421875
aF0.5625
atp86
a(I01
(lp87
F0.08860759493670886
aF0.7421875
aF0.5625
atp88
a(N(lp89
F0.08860759493670886
aF0.7421875
aF0.5625
atp90
a(I01
(lp91
F0.08860759493670886
aF0.7421875
aF0.5625
atp92
a(I01
(lp93
F0.08860759493670886
aF0.7421875
aF0.5625
atp94
a(I01
(lp95
F0.08860759493670886
aF0.7421875
aF0.5625
atp96
a(N(lp97
F0.08860759493670886
aF0.7421875
aF0.5625
atp98
a(I01
(lp99
F0.08860759493670886
aF0.7421875
aF0.5625
atp100
a(I01
(lp101
F0.08860759493670886
aF0.7421875
aF0.5625
atp102
a(I01
(lp103
F0.08860759493670886
aF0.7421875
aF0.5625
atp104
aa(lp105
(I01
(lp106
F0.08860759493670886
aF0.7421875
aF0.34375
atp107
a(I00
(lp108
F0.49683544303797467
aF0.1640625
aF0.875
atp109
a(I01
(lp110
F0.5253164556962026
aF0.6875
aF0.8203125
atp111
a(I00
(lp112
F0.49683544303797467
aF0.1640625
aF0.875
atp113
a(I01
(lp114
F0.5253164556962026
aF0.6875
aF0.8203125
atp115
a(N(lp116
F0.49683544303797467
aF0.1640625
aF0.875
atp117
a(I01
(lp118
F0.5253164556962026
aF0.6875
aF0.8203125
atp119
a(N(lp120
F0.49683544303797467
aF0.1640625
aF0.875
atp121
a(I01
(lp122
F0.5253164556962026
aF0.6875
aF0.8203125
atp123
a(N(lp124
F0.49683544303797467
aF0.1640625
aF0.875
atp125
a(I01
(lp126
F0.5253164556962026
aF0.6875
aF0.8203125
atp127
a(I01
(lp128
F0.06329113924050633
aF0.703125
aF0.8203125
atp129
a(I01
(lp130
F0.5253164556962026
aF0.6875
aF0.8203125
atp131
a(N(lp132
F0.49683544303797467
aF0.1640625
aF0.875
atp133
a(I01
(lp134
F0.08860759493670886
aF0.7421875
aF0.34375
atp135
aa(lp136
(I01
(lp137
F0.08860759493670886
aF0.7421875
aF0.34375
atp138
a(I00
g108
tp139
a(I01
(lp140
F0.5253164556962026
aF0.6875
aF0.8203125
atp141
a(Ng112
tp142
a(I01
g114
tp143
a(Ng116
tp144
a(I01
(lp145
F0.5253164556962026
aF0.6875
aF0.8203125
atp146
a(Ng120
tp147
a(I01
g122
tp148
a(Ng124
tp149
a(I01
g126
tp150
a(I01
g128
tp151
a(I01
g130
tp152
a(Ng132
tp153
a(I01
(lp154
F0.08860759493670886
aF0.7421875
aF0.34375
atp155
aa(lp156
(I01
(lp157
F0.08860759493670886
aF0.7421875
aF0.34375
atp158
a(I00
g108
tp159
a(I01
g140
tp160
a(I01
(lp161
F0.2468354430379747
aF0.9140625
aF0.8203125
atp162
a(I01
g114
tp163
a(Ng116
tp164
a(I01
g145
tp165
a(Ng120
tp166
a(I01
g122
tp167
a(Ng124
tp168
a(I01
g126
tp169
a(I01
g128
tp170
a(I01
g130
tp171
a(Ng132
tp172
a(I01
(lp173
F0.08860759493670886
aF0.7421875
aF0.34375
atp174
aa(lp175
(I01
(lp176
F0.08860759493670886
aF0.7421875
aF0.34375
atp177
a(I00
g108
tp178
a(I01
g140
tp179
a(I01
g161
tp180
a(I01
(lp181
F0.5253164556962026
aF0.6875
aF0.40625
atp182
a(Ng116
tp183
a(I01
g145
tp184
a(I01
(lp185
F0.7816455696202531
aF0.7421875
aF0.8203125
atp186
a(I01
(lp187
F0.5253164556962026
aF0.6875
aF0.40625
atp188
a(Ng124
tp189
a(I01
g126
tp190
a(I01
g128
tp191
a(I01
(lp192
F0.5253164556962026
aF0.6875
aF0.40625
atp193
a(Ng132
tp194
a(I01
(lp195
F0.08860759493670886
aF0.7421875
aF0.34375
atp196
aa(lp197
(I01
(lp198
F0.08860759493670886
aF0.7421875
aF0.34375
atp199
a(I00
g108
tp200
a(I01
g140
tp201
a(I01
(lp202
F0.2468354430379747
aF0.9140625
aF0.515625
atp203
a(I01
(lp204
F0.5253164556962026
aF0.6875
aF0.40625
atp205
a(Ng116
tp206
a(I01
g145
tp207
a(I01
(lp208
F0.7816455696202531
aF0.7421875
aF0.609375
atp209
a(I01
(lp210
F0.5253164556962026
aF0.6875
aF0.40625
atp211
a(Ng124
tp212
a(I01
g126
tp213
a(I01
(lp214
F0.06329113924050633
aF0.703125
aF0.515625
atp215
a(I01
(lp216
F0.5253164556962026
aF0.6875
aF0.40625
atp217
a(Ng132
tp218
a(I01
(lp219
F0.08860759493670886
aF0.7421875
aF0.34375
atp220
aa(lp221
(I01
(lp222
F0.08860759493670886
aF0.7421875
aF0.34375
atp223
a(I00
g108
tp224
a(I00
g108
tp225
a(I01
(lp226
F0.5253164556962026
aF0.6875
aF0.40625
atp227
a(I00
g116
tp228
a(Ng116
tp229
a(I00
g116
tp230
a(I01
(lp231
F0.5253164556962026
aF0.6875
aF0.40625
atp232
a(Ng124
tp233
a(Ng124
tp234
a(Ng124
tp235
a(I01
(lp236
F0.5253164556962026
aF0.6875
aF0.40625
atp237
a(Ng132
tp238
a(Ng132
tp239
a(I01
(lp240
F0.08860759493670886
aF0.7421875
aF0.34375
atp241
aa(lp242
(I01
(lp243
F0.08860759493670886
aF0.7421875
aF0.5625
atp244
a(I01
(lp245
F0.08860759493670886
aF0.7421875
aF0.5625
atp246
a(I01
(lp247
F0.08860759493670886
aF0.7421875
aF0.5625
atp248
a(I01
(lp249
F0.08860759493670886
aF0.7421875
aF0.5625
atp250
a(I01
(lp251
F0.08860759493670886
aF0.7421875
aF0.5625
atp252
a(I01
(lp253
F0.08860759493670886
aF0.7421875
aF0.5625
atp254
a(I01
(lp255
F0.08860759493670886
aF0.7421875
aF0.5625
atp256
a(I01
(lp257
F0.08860759493670886
aF0.7421875
aF0.5625
atp258
a(I01
(lp259
F0.08860759493670886
aF0.7421875
aF0.5625
atp260
a(I01
(lp261
F0.08860759493670886
aF0.7421875
aF0.5625
atp262
a(I01
(lp263
F0.08860759493670886
aF0.7421875
aF0.5625
atp264
a(I01
(lp265
F0.08860759493670886
aF0.7421875
aF0.5625
atp266
a(I01
(lp267
F0.08860759493670886
aF0.7421875
aF0.5625
atp268
a(I01
(lp269
F0.08860759493670886
aF0.7421875
aF0.5625
atp270
a(I01
(lp271
F0.08860759493670886
aF0.7421875
aF0.5625
atp272
aasS'height'
p273
I10
sS'width'
p274
I15
sS'column_numbers'
p275
(lp276
(I8
tp277
a(I1
I1
tp278
a(I8
I1
tp279
a(I5
tp280
a(I8
I1
tp281
a(I1
I1
tp282
a(I8
I1
tp283
a(I4
tp284
a(I8
I1
tp285
a(I1
I1
tp286
a(I8
I1
tp287
a(I7
tp288
a(I8
I1
tp289
a(I1
I1
tp290
a(I8
tp291
asS'background'
p292
S'blue'
p293
sb.