ccopy_reg
_reconstructor
p0
(cpuzzle
Puzzle
p1
c__builtin__
object
p2
Ntp3
Rp4
(dp5
S'row_numbers'
p6
(lp7
(I3
I2
I2
tp8
a(I2
I4
I2
tp9
a(I1
I2
I1
tp10
a(I1
I2
I2
I1
tp11
a(I1
I1
tp12
a(I1
I1
I1
I1
tp13
a(I1
I2
I2
I1
tp14
a(I1
I3
I3
I2
tp15
a(I1
I2
tp16
a(I1
I3
I5
I2
tp17
a(I1
I7
I2
tp18
a(I1
I3
I2
tp19
a(I1
I1
I2
I2
tp20
a(I4
I5
tp21
a(I5
tp22
asS'name'
p23
VHalloween Pumpkin
p24
sS'cells'
p25
(lp26
(lp27
(I00
(lp28
F0.629746835443038
aF0.5078125
aF0.1171875
atp29
a(I00
(lp30
F0.629746835443038
aF0.5078125
aF0.1171875
atp31
a(N(lp32
F0.629746835443038
aF0.5078125
aF0.1171875
atp33
a(I01
(lp34
F0.08227848101265822
aF0.8671875
aF0.515625
atp35
a(I01
(lp36
F0.08227848101265822
aF0.8671875
aF0.515625
atp37
a(I01
(lp38
F0.08227848101265822
aF0.8671875
aF0.515625
atp39
a(N(lp40
F0.629746835443038
aF0.5078125
aF0.1171875
atp41
a(I01
(lp42
F0.2310126582278481
aF0.6015625
aF0.25
atp43
a(I01
(lp44
F0.2310126582278481
aF0.6015625
aF0.25
atp45
a(N(lp46
F0.629746835443038
aF0.5078125
aF0.1171875
atp47
a(I01
(lp48
F0.08227848101265822
aF0.8671875
aF0.515625
atp49
a(I01
(lp50
F0.08227848101265822
aF0.8671875
aF0.515625
atp51
a(N(lp52
F0.629746835443038
aF0.5078125
aF0.1171875
atp53
a(I00
(lp54
F0.629746835443038
aF0.5078125
aF0.1171875
atp55
a(I00
(lp56
F0.629746835443038
aF0.5078125
aF0.1171875
atp57
aa(lp58
(I00
(lp59
F0.629746835443038
aF0.5078125
aF0.1171875
atp60
a(I01
(lp61
F0.08227848101265822
aF0.8671875
aF0.515625
atp62
a(I01
(lp63
F0.08227848101265822
aF0.8671875
aF0.515625
atp64
a(N(lp65
F0.12658227848101267
aF0.6640625
aF0.8828125
atp66
a(N(lp67
F0.10759493670886076
aF0.8125
aF0.921875
atp68
a(N(lp69
F0.08227848101265822
aF0.8671875
aF0.8203125
atp70
a(I01
(lp71
F0.08227848101265822
aF0.8671875
aF0.515625
atp72
a(I01
(lp73
F0.2310126582278481
aF0.6015625
aF0.25
atp74
a(I01
(lp75
F0.2310126582278481
aF0.6015625
aF0.25
atp76
a(I01
(lp77
F0.08227848101265822
aF0.8671875
aF0.515625
atp78
a(N(lp79
F0.08227848101265822
aF0.8671875
aF0.8203125
atp80
a(Ng67
tp81
a(I01
(lp82
F0.08227848101265822
aF0.8671875
aF0.515625
atp83
a(I01
(lp84
F0.08227848101265822
aF0.8671875
aF0.515625
atp85
a(I00
(lp86
F0.629746835443038
aF0.5078125
aF0.1171875
atp87
aa(lp88
(N(lp89
F0.629746835443038
aF0.5078125
aF0.1171875
atp90
a(I01
(lp91
F0.08227848101265822
aF0.8671875
aF0.515625
atp92
a(N(lp93
F0.12658227848101267
aF0.6640625
aF0.8828125
atp94
a(Ng67
tp95
a(Ng67
tp96
a(N(lp97
F0.08227848101265822
aF0.8671875
aF0.8203125
atp98
a(N(lp99
F0.08227848101265822
aF0.8671875
aF0.8203125
atp100
a(I01
(lp101
F0.2310126582278481
aF0.6015625
aF0.4140625
atp102
a(I01
(lp103
F0.2310126582278481
aF0.6015625
aF0.3671875
atp104
a(N(lp105
F0.08227848101265822
aF0.8671875
aF0.8203125
atp106
a(N(lp107
F0.08227848101265822
aF0.8671875
aF0.8203125
atp108
a(Ng67
tp109
a(Ng67
tp110
a(I01
(lp111
F0.08227848101265822
aF0.8671875
aF0.515625
atp112
a(N(lp113
F0.629746835443038
aF0.5078125
aF0.1171875
atp114
aa(lp115
(I01
(lp116
F0.08227848101265822
aF0.8671875
aF0.515625
atp117
a(N(lp118
F0.12658227848101267
aF0.6640625
aF0.8828125
atp119
a(N(lp120
F0.10759493670886076
aF0.8125
aF0.921875
atp121
a(Ng67
tp122
a(N(lp123
F0.08227848101265822
aF0.8671875
aF0.8203125
atp124
a(I01
(lp125
F0.08227848101265822
aF0.8671875
aF0.515625
atp126
a(I01
(lp127
F0.08227848101265822
aF0.8671875
aF0.515625
atp128
a(N(lp129
F0.08227848101265822
aF0.8671875
aF0.8203125
atp130
a(N(lp131
F0.08227848101265822
aF0.8671875
aF0.8203125
atp132
a(I01
(lp133
F0.08227848101265822
aF0.8671875
aF0.515625
atp134
a(I01
(lp135
F0.08227848101265822
aF0.8671875
aF0.515625
atp136
a(N(lp137
F0.08227848101265822
aF0.8671875
aF0.8203125
atp138
a(Ng67
tp139
a(Ng67
tp140
a(I01
(lp141
F0.08227848101265822
aF0.8671875
aF0.515625
atp142
aa(lp143
(I01
(lp144
F0.08227848101265822
aF0.8671875
aF0.515625
atp145
a(N(lp146
F0.12658227848101267
aF0.6640625
aF0.8828125
atp147
a(Ng67
tp148
a(I00
g67
tp149
a(I00
(lp150
F0.10759493670886076
aF0.8125
aF0.921875
atp151
a(N(lp152
F0.12658227848101267
aF0.6640625
aF0.8828125
atp153
a(N(lp154
F0.10759493670886076
aF0.8125
aF0.921875
atp155
a(N(lp156
F0.10759493670886076
aF0.8125
aF0.921875
atp157
a(N(lp158
F0.10759493670886076
aF0.8125
aF0.921875
atp159
a(N(lp160
F0.12658227848101267
aF0.6640625
aF0.8828125
atp161
a(N(lp162
F0.10759493670886076
aF0.8125
aF0.921875
atp163
a(Ng67
tp164
a(Ng67
tp165
a(Ng67
tp166
a(I01
(lp167
F0.08227848101265822
aF0.8671875
aF0.515625
atp168
aa(lp169
(I01
(lp170
F0.08227848101265822
aF0.8671875
aF0.515625
atp171
a(N(lp172
F0.12658227848101267
aF0.6640625
aF0.8828125
atp173
a(Ng67
tp174
a(I01
(lp175
F0.08227848101265822
aF0.8671875
aF0.2890625
atp176
a(N(lp177
F0.12658227848101267
aF0.6640625
aF0.8828125
atp178
a(Ng67
tp179
a(Ng67
tp180
a(Ng67
tp181
a(I00
g67
tp182
a(Ng67
tp183
a(N(lp184
F0.12658227848101267
aF0.6640625
aF0.8828125
atp185
a(I01
(lp186
F0.08227848101265822
aF0.8671875
aF0.2890625
atp187
a(Ng67
tp188
a(Ng67
tp189
a(I01
(lp190
F0.08227848101265822
aF0.8671875
aF0.515625
atp191
aa(lp192
(I01
(lp193
F0.08227848101265822
aF0.8671875
aF0.515625
atp194
a(N(lp195
F0.12658227848101267
aF0.6640625
aF0.8828125
atp196
a(Ng67
tp197
a(I01
(lp198
F0.08227848101265822
aF0.8671875
aF0.2890625
atp199
a(I01
(lp200
F0.08227848101265822
aF0.8671875
aF0.2890625
atp201
a(Ng67
tp202
a(Ng67
tp203
a(Ng67
tp204
a(Ng67
tp205
a(Ng67
tp206
a(I01
(lp207
F0.08227848101265822
aF0.8671875
aF0.2890625
atp208
a(I01
(lp209
F0.08227848101265822
aF0.8671875
aF0.2890625
atp210
a(Ng67
tp211
a(N(lp212
F0.10759493670886076
aF0.8125
aF0.921875
atp213
a(I01
(lp214
F0.08227848101265822
aF0.8671875
aF0.515625
atp215
aa(lp216
(I01
(lp217
F0.08227848101265822
aF0.8671875
aF0.515625
atp218
a(N(lp219
F0.12658227848101267
aF0.6640625
aF0.8828125
atp220
a(Ng67
tp221
a(I01
(lp222
F0.08227848101265822
aF0.8671875
aF0.2890625
atp223
a(I01
(lp224
F0.08227848101265822
aF0.8671875
aF0.2890625
atp225
a(I01
(lp226
F0.08227848101265822
aF0.8671875
aF0.2890625
atp227
a(Ng67
tp228
a(I00
g67
tp229
a(Ng67
tp230
a(I01
(lp231
F0.08227848101265822
aF0.8671875
aF0.2890625
atp232
a(I01
(lp233
F0.08227848101265822
aF0.8671875
aF0.2890625
atp234
a(I01
(lp235
F0.08227848101265822
aF0.8671875
aF0.2890625
atp236
a(Ng67
tp237
a(I01
(lp238
F0.08227848101265822
aF0.8671875
aF0.8203125
atp239
a(I01
(lp240
F0.08227848101265822
aF0.8671875
aF0.515625
atp241
aa(lp242
(I01
(lp243
F0.08227848101265822
aF0.8671875
aF0.515625
atp244
a(N(lp245
F0.12658227848101267
aF0.6640625
aF0.8828125
atp246
a(Ng67
tp247
a(Ng67
tp248
a(N(lp249
F0.12658227848101267
aF0.6640625
aF0.8828125
atp250
a(Ng67
tp251
a(Ng67
tp252
a(Ng67
tp253
a(Ng67
tp254
a(Ng67
tp255
a(N(lp256
F0.12658227848101267
aF0.6640625
aF0.8828125
atp257
a(Ng67
tp258
a(Ng67
tp259
a(I01
(lp260
F0.08227848101265822
aF0.8671875
aF0.8203125
atp261
a(I01
(lp262
F0.08227848101265822
aF0.8671875
aF0.515625
atp263
aa(lp264
(I01
(lp265
F0.08227848101265822
aF0.8671875
aF0.515625
atp266
a(Ng67
tp267
a(Ng67
tp268
a(I01
(lp269
F0.08227848101265822
aF0.8671875
aF0.2890625
atp270
a(I01
(lp271
F0.08227848101265822
aF0.8671875
aF0.2890625
atp272
a(I01
(lp273
F0.08227848101265822
aF0.8671875
aF0.2890625
atp274
a(Ng67
tp275
a(I01
(lp276
F0.08227848101265822
aF0.8671875
aF0.2890625
atp277
a(I01
(lp278
F0.08227848101265822
aF0.8671875
aF0.2890625
atp279
a(I01
(lp280
F0.08227848101265822
aF0.8671875
aF0.2890625
atp281
a(I01
(lp282
F0.08227848101265822
aF0.8671875
aF0.2890625
atp283
a(I01
(lp284
F0.08227848101265822
aF0.8671875
aF0.2890625
atp285
a(Ng67
tp286
a(I01
(lp287
F0.08227848101265822
aF0.8671875
aF0.8203125
atp288
a(I01
(lp289
F0.08227848101265822
aF0.8671875
aF0.515625
atp290
aa(lp291
(I01
(lp292
F0.08227848101265822
aF0.8671875
aF0.515625
atp293
a(Ng67
tp294
a(Ng67
tp295
a(Ng67
tp296
a(I01
(lp297
F0.08227848101265822
aF0.8671875
aF0.2890625
atp298
a(I01
(lp299
F0.08227848101265822
aF0.8671875
aF0.2890625
atp300
a(I01
(lp301
F0.08227848101265822
aF0.8671875
aF0.2890625
atp302
a(I01
(lp303
F0.08227848101265822
aF0.8671875
aF0.2890625
atp304
a(I01
(lp305
F0.08227848101265822
aF0.8671875
aF0.2890625
atp306
a(I01
(lp307
F0.08227848101265822
aF0.8671875
aF0.2890625
atp308
a(I01
(lp309
F0.08227848101265822
aF0.8671875
aF0.2890625
atp310
a(Ng67
tp311
a(Ng67
tp312
a(I01
(lp313
F0.08227848101265822
aF0.8671875
aF0.515625
atp314
a(I01
(lp315
F0.08227848101265822
aF0.8671875
aF0.515625
atp316
aa(lp317
(I01
(lp318
F0.08227848101265822
aF0.8671875
aF0.515625
atp319
a(N(lp320
F0.08227848101265822
aF0.8671875
aF0.8203125
atp321
a(Ng67
tp322
a(N(lp323
F0.10759493670886076
aF0.8125
aF0.921875
atp324
a(N(lp325
F0.12658227848101267
aF0.6640625
aF0.8828125
atp326
a(Ng67
tp327
a(I01
(lp328
F0.08227848101265822
aF0.8671875
aF0.2890625
atp329
a(I01
(lp330
F0.08227848101265822
aF0.8671875
aF0.2890625
atp331
a(I01
(lp332
F0.08227848101265822
aF0.8671875
aF0.2890625
atp333
a(Ng67
tp334
a(N(lp335
F0.12658227848101267
aF0.6640625
aF0.8828125
atp336
a(Ng67
tp337
a(N(lp338
F0.08227848101265822
aF0.8671875
aF0.8203125
atp339
a(I01
(lp340
F0.08227848101265822
aF0.8671875
aF0.515625
atp341
a(I01
(lp342
F0.08227848101265822
aF0.8671875
aF0.515625
atp343
aa(lp344
(N(lp345
F0.2911392405063291
aF0.578125
aF0.171875
atp346
a(I01
(lp347
F0.08227848101265822
aF0.8671875
aF0.515625
atp348
a(N(lp349
F0.08227848101265822
aF0.8671875
aF0.8203125
atp350
a(Ng67
tp351
a(I01
(lp352
F0.08227848101265822
aF0.8671875
aF0.515625
atp353
a(Ng67
tp354
a(Ng67
tp355
a(Ng67
tp356
a(Ng67
tp357
a(I01
(lp358
F0.08227848101265822
aF0.8671875
aF0.8203125
atp359
a(I01
(lp360
F0.08227848101265822
aF0.8671875
aF0.515625
atp361
a(N(lp362
F0.08227848101265822
aF0.8671875
aF0.8203125
atp363
a(I01
(lp364
F0.08227848101265822
aF0.8671875
aF0.515625
atp365
a(I01
(lp366
F0.08227848101265822
aF0.8671875
aF0.515625
atp367
a(N(lp368
F0.2911392405063291
aF0.578125
aF0.171875
atp369
aa(lp370
(I00
(lp371
F0.2911392405063291
aF0.578125
aF0.171875
atp372
a(N(lp373
F0.2911392405063291
aF0.578125
aF0.171875
atp374
a(I01
(lp375
F0.08227848101265822
aF0.8671875
aF0.515625
atp376
a(I01
(lp377
F0.08227848101265822
aF0.8671875
aF0.515625
atp378
a(I01
(lp379
F0.08227848101265822
aF0.8671875
aF0.515625
atp380
a(I01
(lp381
F0.08227848101265822
aF0.8671875
aF0.515625
atp382
a(Ng67
tp383
a(Ng67
tp384
a(I01
(lp385
F0.08227848101265822
aF0.8671875
aF0.8203125
atp386
a(I01
(lp387
F0.08227848101265822
aF0.8671875
aF0.515625
atp388
a(I01
(lp389
F0.08227848101265822
aF0.8671875
aF0.515625
atp390
a(I01
(lp391
F0.08227848101265822
aF0.8671875
aF0.515625
atp392
a(I01
(lp393
F0.08227848101265822
aF0.8671875
aF0.515625
atp394
a(N(lp395
F0.2911392405063291
aF0.578125
aF0.171875
atp396
a(I00
(lp397
F0.2911392405063291
aF0.578125
aF0.171875
atp398
aa(lp399
(I00
(lp400
F0.2911392405063291
aF0.578125
aF0.171875
atp401
a(I00
(lp402
F0.2911392405063291
aF0.578125
aF0.171875
atp403
a(N(lp404
F0.2911392405063291
aF0.578125
aF0.171875
atp405
a(N(lp406
F0.2911392405063291
aF0.578125
aF0.171875
atp407
a(N(lp408
F0.2911392405063291
aF0.578125
aF0.171875
atp409
a(I01
(lp410
F0.08227848101265822
aF0.8671875
aF0.515625
atp411
a(I01
(lp412
F0.08227848101265822
aF0.8671875
aF0.515625
atp413
a(I01
(lp414
F0.08227848101265822
aF0.8671875
aF0.515625
atp415
a(I01
(lp416
F0.08227848101265822
aF0.8671875
aF0.515625
atp417
a(I01
(lp418
F0.08227848101265822
aF0.8671875
aF0.515625
atp419
a(N(lp420
F0.2911392405063291
aF0.578125
aF0.171875
atp421
a(N(lp422
F0.2911392405063291
aF0.578125
aF0.171875
atp423
a(N(lp424
F0.2911392405063291
aF0.578125
aF0.171875
atp425
a(I00
(lp426
F0.2911392405063291
aF0.578125
aF0.171875
atp427
a(I00
(lp428
F0.2911392405063291
aF0.578125
aF0.171875
atp429
aasS'height'
p430
I15
sS'width'
p431
I15
sS'column_numbers'
p432
(lp433
(I9
tp434
a(I2
I1
tp435
a(I1
I1
tp436
a(I1
I3
I1
I1
tp437
a(I1
I2
I2
I2
tp438
a(I1
I1
I1
I2
I2
tp439
a(I1
I1
I2
I1
tp440
a(I3
I3
I1
tp441
a(I3
I3
I2
tp442
a(I1
I1
I1
I2
I3
tp443
a(I1
I1
I2
I2
I2
tp444
a(I1
I3
I1
I1
tp445
a(I1
I2
tp446
a(I2
I6
tp447
a(I9
tp448
asS'background'
p449
S'blue'
p450
sb.