ccopy_reg
_reconstructor
p1
(cpuzzle
Puzzle
p2
c__builtin__
object
p3
NtRp4
(dp5
S'row_numbers'
p6
(lp7
(I5
tp8
a(I1
I1
tp9
a(I2
I1
tp10
a(I5
tp11
a(I1
I2
tp12
a(I2
I4
tp13
a(I2
I1
I3
tp14
a(I1
I2
I4
tp15
a(I2
I4
I2
tp16
a(I4
I4
I2
I5
tp17
a(I4
I1
I2
I3
I7
tp18
a(I5
I2
I2
I4
I2
tp19
a(I5
I2
I2
I3
I1
I2
tp20
a(I3
I4
I2
I2
I1
I3
tp21
a(I1
I7
I3
I6
I4
tp22
a(I5
I3
I3
I2
I2
tp23
a(I3
I1
I2
I2
I2
tp24
a(I15
I2
I4
tp25
a(I3
I1
I1
I1
I1
I2
I2
I6
tp26
a(I3
I1
I2
I6
tp27
a(I15
I1
I7
tp28
a(I3
I1
I2
I1
I7
tp29
a(I3
I2
I2
I1
I2
I9
tp30
a(I7
I2
I4
I10
tp31
a(I3
I4
I1
I12
tp32
a(I7
I7
I8
tp33
a(I5
I3
I2
I5
I5
tp34
a(I6
I3
I2
I4
I2
tp35
a(I8
I2
I2
I4
tp36
a(I9
I5
I3
tp37
asS'name'
p38
VGreat Wall of China
p39
sS'cells'
p40
(lp41
(lp42
(I00
(lp43
F0.48417721518987344
aF0.0703125
aF0.9609375
atp44
a(I00
g43
tp45
a(I00
g43
tp46
a(I00
g43
tp47
a(I00
g43
tp48
a(I00
g43
tp49
a(I00
g43
tp50
a(I00
g43
tp51
a(I00
g43
tp52
a(I00
g43
tp53
a(I01
(lp54
F0.15822784810126583
aF0.1328125
aF0.6328125
atp55
a(I01
(lp56
F0.15822784810126583
aF0.1328125
aF0.6328125
atp57
a(I01
(lp58
F0.15822784810126583
aF0.1328125
aF0.6328125
atp59
a(I01
(lp60
F0.15822784810126583
aF0.1328125
aF0.6328125
atp61
a(I01
(lp62
F0.1550632911392405
aF0.1484375
aF0.8671875
atp63
a(I00
(lp64
F0.48417721518987344
aF0.0703125
aF0.9609375
atp65
a(I00
g64
tp66
a(I00
g64
tp67
a(I00
g64
tp68
a(I00
g64
tp69
a(I00
g64
tp70
a(I00
g64
tp71
a(I00
g64
tp72
a(I00
g64
tp73
a(I00
g64
tp74
a(I00
g64
tp75
a(I00
g64
tp76
a(I00
g64
tp77
a(I00
g64
tp78
a(I00
g64
tp79
aa(lp80
(I00
g43
tp81
a(I00
g43
tp82
a(I00
g43
tp83
a(I00
g43
tp84
a(I00
g43
tp85
a(I00
g43
tp86
a(I00
g43
tp87
a(I00
g43
tp88
a(I00
g43
tp89
a(I00
g43
tp90
a(I01
(lp91
F0.14556962025316456
aF0.125
aF0.4765625
atp92
a(N(lp93
F0.14556962025316456
aF0.125
aF0.4765625
atp94
a(N(lp95
F0.14556962025316456
aF0.125
aF0.4765625
atp96
a(N(lp97
F0.14556962025316456
aF0.125
aF0.4765625
atp98
a(I01
(lp99
F0.15822784810126583
aF0.1328125
aF0.6328125
atp100
a(I00
g64
tp101
a(I00
g64
tp102
a(I00
g64
tp103
a(I00
g64
tp104
a(I00
g64
tp105
a(I00
g64
tp106
a(I00
g64
tp107
a(I00
g64
tp108
a(I00
g64
tp109
a(I00
g64
tp110
a(I00
g64
tp111
a(I00
g64
tp112
a(I00
g64
tp113
a(I00
g64
tp114
a(I00
g64
tp115
aa(lp116
(I00
g43
tp117
a(I00
g43
tp118
a(I00
g43
tp119
a(I00
g43
tp120
a(I00
g43
tp121
a(I00
g43
tp122
a(I00
g43
tp123
a(I00
g43
tp124
a(I00
g43
tp125
a(I00
g43
tp126
a(I01
(lp127
F0.15822784810126583
aF0.1328125
aF0.6328125
atp128
a(I01
(lp129
F0.14556962025316456
aF0.125
aF0.4140625
atp130
a(N(lp131
F0.15822784810126583
aF0.1328125
aF0.6328125
atp132
a(N(lp133
F0.15822784810126583
aF0.1328125
aF0.6328125
atp134
a(I01
(lp135
F0.1550632911392405
aF0.1484375
aF0.8671875
atp136
a(I00
g64
tp137
a(I00
g64
tp138
a(I00
g64
tp139
a(I00
g64
tp140
a(I00
g64
tp141
a(I00
g64
tp142
a(I00
g64
tp143
a(I00
g64
tp144
a(I00
g64
tp145
a(Ng64
tp146
a(Ng64
tp147
a(Ng64
tp148
a(Ng64
tp149
a(I00
g64
tp150
a(I00
g64
tp151
aa(lp152
(I00
g43
tp153
a(I00
g43
tp154
a(I00
g43
tp155
a(I00
g43
tp156
a(I00
g43
tp157
a(I00
g43
tp158
a(I00
g43
tp159
a(I00
g43
tp160
a(I00
g43
tp161
a(I00
g43
tp162
a(I01
(lp163
F0.15822784810126583
aF0.1328125
aF0.6328125
atp164
a(I01
(lp165
F0.14556962025316456
aF0.125
aF0.4140625
atp166
a(I01
(lp167
F0.15822784810126583
aF0.1328125
aF0.6328125
atp168
a(I01
(lp169
F0.15822784810126583
aF0.1328125
aF0.6328125
atp170
a(I01
(lp171
F0.1550632911392405
aF0.1484375
aF0.8671875
atp172
a(I00
g64
tp173
a(I00
g64
tp174
a(I00
g64
tp175
a(I00
g64
tp176
a(I00
g64
tp177
a(I00
g64
tp178
a(I00
g64
tp179
a(I00
g64
tp180
a(Ng64
tp181
a(I00
g64
tp182
a(I00
g64
tp183
a(I00
g64
tp184
a(I00
g64
tp185
a(Ng64
tp186
a(I00
g64
tp187
aa(lp188
(I00
g43
tp189
a(I00
g43
tp190
a(I00
g43
tp191
a(I00
g43
tp192
a(I00
g43
tp193
a(I00
g43
tp194
a(I00
g43
tp195
a(I00
g43
tp196
a(I00
g43
tp197
a(I00
g43
tp198
a(I01
(lp199
F0.15822784810126583
aF0.1328125
aF0.6328125
atp200
a(N(lp201
F0.1550632911392405
aF0.1484375
aF0.8671875
atp202
a(I00
g201
tp203
a(I01
(lp204
F0.15822784810126583
aF0.1328125
aF0.6328125
atp205
a(I01
(lp206
F0.1550632911392405
aF0.1484375
aF0.8671875
atp207
a(I00
g64
tp208
a(I00
g64
tp209
a(I00
g64
tp210
a(I00
g64
tp211
a(I00
g64
tp212
a(I00
g64
tp213
a(I00
g64
tp214
a(Ng64
tp215
a(I00
g64
tp216
a(I00
g64
tp217
a(I00
g64
tp218
a(I00
g64
tp219
a(I00
g64
tp220
a(I00
g64
tp221
a(Ng64
tp222
aa(lp223
(I00
g43
tp224
a(I00
g43
tp225
a(I00
g43
tp226
a(I00
g43
tp227
a(I00
g43
tp228
a(I00
g43
tp229
a(I00
g43
tp230
a(I00
g43
tp231
a(I00
g43
tp232
a(I01
(lp233
F0.15822784810126583
aF0.1328125
aF0.6328125
atp234
a(I01
(lp235
F0.15822784810126583
aF0.1328125
aF0.6328125
atp236
a(Ng201
tp237
a(I01
(lp238
F0.15822784810126583
aF0.1328125
aF0.6328125
atp239
a(I01
(lp240
F0.1550632911392405
aF0.1484375
aF0.8671875
atp241
a(I01
(lp242
F0.20253164556962025
aF0.4375
aF0.6171875
atp243
a(I01
g242
tp244
a(Ng64
tp245
a(Ng64
tp246
a(I00
g64
tp247
a(I00
g64
tp248
a(Ng64
tp249
a(Ng64
tp250
a(I00
g64
tp251
a(I00
g64
tp252
a(I00
g64
tp253
a(I00
g64
tp254
a(I00
g64
tp255
a(I00
g64
tp256
a(I00
g64
tp257
a(I00
g64
tp258
aa(lp259
(I00
g43
tp260
a(I00
g43
tp261
a(I00
g43
tp262
a(I00
g43
tp263
a(I00
g43
tp264
a(I00
g43
tp265
a(I00
g43
tp266
a(I00
g43
tp267
a(I01
(lp268
F0.15822784810126583
aF0.1328125
aF0.6328125
atp269
a(I01
(lp270
F0.15822784810126583
aF0.1328125
aF0.6328125
atp271
a(I00
g201
tp272
a(Ng201
tp273
a(I01
(lp274
F0.15822784810126583
aF0.1328125
aF0.6328125
atp275
a(I00
g242
tp276
a(I01
g242
tp277
a(I01
g242
tp278
a(I01
g242
tp279
a(Ng64
tp280
a(I00
g64
tp281
a(Ng64
tp282
a(I00
g64
tp283
a(I00
g64
tp284
a(I00
g64
tp285
a(I00
g64
tp286
a(I00
g64
tp287
a(I00
g64
tp288
a(I00
g64
tp289
a(I00
g64
tp290
a(I00
g64
tp291
a(I00
g64
tp292
aa(lp293
(I00
g43
tp294
a(I00
g43
tp295
a(I00
g43
tp296
a(I00
g43
tp297
a(I00
g43
tp298
a(I00
g43
tp299
a(I00
g43
tp300
a(I00
g43
tp301
a(I01
(lp302
F0.15822784810126583
aF0.1328125
aF0.6328125
atp303
a(Ng201
tp304
a(I00
g201
tp305
a(I01
(lp306
F0.15822784810126583
aF0.1328125
aF0.6328125
atp307
a(I01
(lp308
F0.1550632911392405
aF0.1484375
aF0.8671875
atp309
a(I00
g242
tp310
a(I01
g242
tp311
a(I01
g242
tp312
a(I01
g242
tp313
a(I01
g242
tp314
a(Ng64
tp315
a(I00
g64
tp316
a(I00
g64
tp317
a(I00
g64
tp318
a(I00
g64
tp319
a(I00
g64
tp320
a(I00
g64
tp321
a(I00
g64
tp322
a(I00
g64
tp323
a(I00
g64
tp324
a(I00
g64
tp325
a(I00
g64
tp326
aa(lp327
(I00
g43
tp328
a(I00
g43
tp329
a(I00
g43
tp330
a(I00
g43
tp331
a(I00
g43
tp332
a(I00
g43
tp333
a(I00
g43
tp334
a(I01
(lp335
F0.20253164556962025
aF0.4375
aF0.6171875
atp336
a(I01
(lp337
F0.15822784810126583
aF0.1328125
aF0.6328125
atp338
a(I00
g201
tp339
a(I00
g201
tp340
a(I01
(lp341
F0.15822784810126583
aF0.1328125
aF0.6328125
atp342
a(I01
(lp343
F0.1550632911392405
aF0.1484375
aF0.8671875
atp344
a(I01
g242
tp345
a(I01
g242
tp346
a(Ng242
tp347
a(I01
g242
tp348
a(I01
g242
tp349
a(Ng64
tp350
a(I00
g64
tp351
a(I00
g64
tp352
a(I00
g64
tp353
a(I00
g64
tp354
a(I00
g64
tp355
a(I00
g64
tp356
a(I00
g64
tp357
a(I00
g64
tp358
a(I00
g64
tp359
a(I00
g64
tp360
a(I00
g64
tp361
aa(lp362
(I00
g43
tp363
a(I00
g43
tp364
a(I00
g43
tp365
a(I00
g43
tp366
a(I00
g43
tp367
a(I01
g335
tp368
a(I01
g335
tp369
a(I01
g335
tp370
a(I01
(lp371
F0.15822784810126583
aF0.1328125
aF0.6328125
atp372
a(I00
g201
tp373
a(I00
g201
tp374
a(I01
(lp375
F0.14556962025316456
aF0.125
aF0.4765625
atp376
a(I01
(lp377
F0.15822784810126583
aF0.1328125
aF0.6328125
atp378
a(I01
g242
tp379
a(I01
g242
tp380
a(Ng242
tp381
a(Ng242
tp382
a(I01
g242
tp383
a(I01
g242
tp384
a(Ng64
tp385
a(Ng64
tp386
a(I00
g64
tp387
a(I01
(lp388
F0.15822784810126583
aF0.2109375
aF0.546875
atp389
a(I01
(lp390
F0.15822784810126583
aF0.2109375
aF0.546875
atp391
a(I01
(lp392
F0.15822784810126583
aF0.2109375
aF0.546875
atp393
a(I01
(lp394
F0.15822784810126583
aF0.2109375
aF0.546875
atp395
a(I01
(lp396
F0.15189873417721519
aF0.2109375
aF0.859375
atp397
a(I00
g64
tp398
a(I00
g64
tp399
a(I00
g64
tp400
aa(lp401
(I00
g43
tp402
a(I00
g43
tp403
a(I00
g43
tp404
a(I01
g335
tp405
a(I01
g335
tp406
a(I01
g335
tp407
a(I01
g335
tp408
a(I00
g335
tp409
a(I01
(lp410
F0.15822784810126583
aF0.1328125
aF0.6328125
atp411
a(I00
g201
tp412
a(I00
g201
tp413
a(I00
g201
tp414
a(I01
(lp415
F0.15822784810126583
aF0.1328125
aF0.6328125
atp416
a(I01
(lp417
F0.15822784810126583
aF0.1328125
aF0.6328125
atp418
a(Ng242
tp419
a(Ng242
tp420
a(Ng242
tp421
a(I01
g242
tp422
a(I01
g242
tp423
a(I01
g242
tp424
a(Ng64
tp425
a(I01
(lp426
F0.15189873417721519
aF0.21875
aF0.3359375
atp427
a(I01
(lp428
F0.15189873417721519
aF0.21875
aF0.3359375
atp429
a(I01
(lp430
F0.15189873417721519
aF0.21875
aF0.3359375
atp431
a(I01
(lp432
F0.15189873417721519
aF0.21875
aF0.3359375
atp433
a(I01
(lp434
F0.15189873417721519
aF0.21875
aF0.3359375
atp435
a(I01
(lp436
F0.15822784810126583
aF0.2109375
aF0.546875
atp437
a(I01
(lp438
F0.15822784810126583
aF0.2109375
aF0.546875
atp439
a(I00
g64
tp440
a(I00
g64
tp441
aa(lp442
(Ng43
tp443
a(I01
g335
tp444
a(I01
g335
tp445
a(I01
g335
tp446
a(I01
g335
tp447
a(I01
g335
tp448
a(Ng335
tp449
a(I00
g335
tp450
a(I01
(lp451
F0.14556962025316456
aF0.125
aF0.4765625
atp452
a(I01
(lp453
F0.15822784810126583
aF0.1328125
aF0.6328125
atp454
a(I00
g201
tp455
a(I00
g201
tp456
a(I01
(lp457
F0.14556962025316456
aF0.125
aF0.4765625
atp458
a(I01
(lp459
F0.15822784810126583
aF0.1328125
aF0.6328125
atp460
a(Ng242
tp461
a(Ng242
tp462
a(Ng242
tp463
a(Ng242
tp464
a(I01
g242
tp465
a(I01
g242
tp466
a(I01
g242
tp467
a(I01
(lp468
F0.15189873417721519
aF0.21875
aF0.3359375
atp469
a(I00
(lp470
F0.15822784810126583
aF0.2109375
aF0.546875
atp471
a(I00
(lp472
F0.15822784810126583
aF0.2109375
aF0.546875
atp473
a(I00
(lp474
F0.15822784810126583
aF0.2109375
aF0.546875
atp475
a(I00
(lp476
F0.15822784810126583
aF0.2109375
aF0.546875
atp477
a(I01
(lp478
F0.15189873417721519
aF0.2109375
aF0.859375
atp479
a(I01
g478
tp480
a(Ng64
tp481
a(Ng64
tp482
aa(lp483
(I01
g335
tp484
a(I01
g335
tp485
a(I01
g335
tp486
a(I01
g335
tp487
a(I01
g335
tp488
a(Ng335
tp489
a(Ng335
tp490
a(I00
g335
tp491
a(I01
(lp492
F0.14556962025316456
aF0.125
aF0.4765625
atp493
a(I01
(lp494
F0.15822784810126583
aF0.1328125
aF0.6328125
atp495
a(I00
g201
tp496
a(I00
g201
tp497
a(I00
g201
tp498
a(I01
(lp499
F0.14556962025316456
aF0.125
aF0.4765625
atp500
a(I01
(lp501
F0.15822784810126583
aF0.1328125
aF0.6328125
atp502
a(Ng242
tp503
a(Ng242
tp504
a(Ng242
tp505
a(Ng242
tp506
a(Ng242
tp507
a(I01
g242
tp508
a(I01
(lp509
F0.15189873417721519
aF0.21875
aF0.3359375
atp510
a(I01
(lp511
F0.15189873417721519
aF0.21875
aF0.3359375
atp512
a(I00
(lp513
F0.15822784810126583
aF0.2109375
aF0.546875
atp514
a(I01
(lp515
F0.15189873417721519
aF0.21875
aF0.3359375
atp516
a(N(lp517
F0.15822784810126583
aF0.2109375
aF0.546875
atp518
a(I01
g478
tp519
a(I01
g478
tp520
a(Ng64
tp521
a(Ng64
tp522
aa(lp523
(I01
g335
tp524
a(I01
g335
tp525
a(I01
g335
tp526
a(Ng335
tp527
a(Ng335
tp528
a(Ng335
tp529
a(I00
g335
tp530
a(I01
(lp531
F0.15189873417721519
aF0.296875
aF0.453125
atp532
a(I01
g531
tp533
a(I01
g531
tp534
a(I01
(lp535
F0.15189873417721519
aF0.296875
aF0.453125
atp536
a(I00
g201
tp537
a(I00
g201
tp538
a(I00
g201
tp539
a(I01
(lp540
F0.14556962025316456
aF0.125
aF0.4765625
atp541
a(I01
(lp542
F0.15822784810126583
aF0.1328125
aF0.6328125
atp543
a(Ng242
tp544
a(Ng242
tp545
a(Ng242
tp546
a(Ng242
tp547
a(Ng242
tp548
a(I01
(lp549
F0.15189873417721519
aF0.21875
aF0.3359375
atp550
a(I01
(lp551
F0.15189873417721519
aF0.21875
aF0.3359375
atp552
a(N(lp553
F0.15822784810126583
aF0.2109375
aF0.546875
atp554
a(I01
(lp555
F0.15189873417721519
aF0.21875
aF0.3359375
atp556
a(N(lp557
F0.15822784810126583
aF0.2109375
aF0.546875
atp558
a(I01
g478
tp559
a(I01
g478
tp560
a(I01
(lp561
F0.20253164556962025
aF0.4375
aF0.6171875
atp562
a(Ng64
tp563
aa(lp564
(I01
g335
tp565
a(Ng335
tp566
a(Ng335
tp567
a(I00
g335
tp568
a(I00
g335
tp569
a(I01
g531
tp570
a(I01
g531
tp571
a(I01
g531
tp572
a(I01
g531
tp573
a(I01
g531
tp574
a(I01
g531
tp575
a(I01
g531
tp576
a(I00
g201
tp577
a(I00
g201
tp578
a(I00
g201
tp579
a(I01
(lp580
F0.14556962025316456
aF0.125
aF0.4765625
atp581
a(I01
(lp582
F0.15822784810126583
aF0.1328125
aF0.6328125
atp583
a(I01
(lp584
F0.15822784810126583
aF0.1328125
aF0.6328125
atp585
a(Ng242
tp586
a(I01
(lp587
F0.15822784810126583
aF0.2109375
aF0.546875
atp588
a(I01
(lp589
F0.15822784810126583
aF0.2109375
aF0.546875
atp590
a(I01
(lp591
F0.15189873417721519
aF0.21875
aF0.3359375
atp592
a(I01
(lp593
F0.15189873417721519
aF0.21875
aF0.3359375
atp594
a(I01
(lp595
F0.15822784810126583
aF0.2109375
aF0.546875
atp596
a(I01
(lp597
F0.15189873417721519
aF0.21875
aF0.3359375
atp598
a(N(lp599
F0.15822784810126583
aF0.2109375
aF0.546875
atp600
a(I01
g478
tp601
a(I01
g478
tp602
a(I01
g561
tp603
a(I01
g561
tp604
aa(lp605
(Ng335
tp606
a(Ng335
tp607
a(I00
g335
tp608
a(I01
g531
tp609
a(I01
g531
tp610
a(I01
g531
tp611
a(I01
g531
tp612
a(I01
g531
tp613
a(N(lp614
F0.15189873417721519
aF0.296875
aF0.84375
atp615
a(Ng614
tp616
a(Ng614
tp617
a(I01
g531
tp618
a(I01
g531
tp619
a(I01
g531
tp620
a(Ng201
tp621
a(I00
g201
tp622
a(Ng201
tp623
a(I01
(lp624
F0.15822784810126583
aF0.2109375
aF0.546875
atp625
a(I01
(lp626
F0.15822784810126583
aF0.2109375
aF0.546875
atp627
a(I01
(lp628
F0.15822784810126583
aF0.2109375
aF0.546875
atp629
a(I00
(lp630
F0.15189873417721519
aF0.2109375
aF0.859375
atp631
a(I00
g630
tp632
a(I00
g630
tp633
a(I01
(lp634
F0.15822784810126583
aF0.2109375
aF0.546875
atp635
a(I01
(lp636
F0.15822784810126583
aF0.2109375
aF0.546875
atp637
a(Ng478
tp638
a(I01
g478
tp639
a(I01
g478
tp640
a(Ng561
tp641
a(Ng561
tp642
aa(lp643
(Ng335
tp644
a(I00
g335
tp645
a(I00
g335
tp646
a(I00
g335
tp647
a(I01
(lp648
F0.15189873417721519
aF0.296875
aF0.234375
atp649
a(I01
g648
tp650
a(I01
g531
tp651
a(I00
g614
tp652
a(I00
g614
tp653
a(I00
g614
tp654
a(I00
g614
tp655
a(I00
g614
tp656
a(I01
g531
tp657
a(Ng201
tp658
a(Ng201
tp659
a(I00
g201
tp660
a(I01
(lp661
F0.15822784810126583
aF0.2109375
aF0.546875
atp662
a(I01
(lp663
F0.15822784810126583
aF0.2109375
aF0.546875
atp664
a(I00
g630
tp665
a(I00
g630
tp666
a(I00
g630
tp667
a(I00
g630
tp668
a(I01
(lp669
F0.15822784810126583
aF0.2109375
aF0.546875
atp670
a(I01
(lp671
F0.15822784810126583
aF0.2109375
aF0.546875
atp672
a(Ng478
tp673
a(I00
g478
tp674
a(I01
g478
tp675
a(I01
g478
tp676
a(I00
g561
tp677
a(Ng561
tp678
aa(lp679
(Ng335
tp680
a(I00
g335
tp681
a(I01
(lp682
F0.15189873417721519
aF0.296875
aF0.234375
atp683
a(I01
g682
tp684
a(I01
g531
tp685
a(I01
g531
tp686
a(I01
g531
tp687
a(I01
g531
tp688
a(I01
g531
tp689
a(I01
g531
tp690
a(I01
g531
tp691
a(I01
g531
tp692
a(I01
g531
tp693
a(I01
g531
tp694
a(I01
g531
tp695
a(I01
(lp696
F0.15822784810126583
aF0.2109375
aF0.546875
atp697
a(I01
(lp698
F0.15822784810126583
aF0.2109375
aF0.546875
atp699
a(I00
g630
tp700
a(I00
g630
tp701
a(I00
g630
tp702
a(I00
g630
tp703
a(I01
(lp704
F0.15822784810126583
aF0.2109375
aF0.546875
atp705
a(I01
(lp706
F0.15822784810126583
aF0.2109375
aF0.546875
atp707
a(I00
g478
tp708
a(I00
g478
tp709
a(I01
(lp710
F0.20253164556962025
aF0.734375
aF0.3828125
atp711
a(I01
(lp712
F0.20253164556962025
aF0.734375
aF0.3828125
atp713
a(I01
g712
tp714
a(I01
g712
tp715
a(I00
g561
tp716
aa(lp717
(Ng335
tp718
a(I00
g335
tp719
a(I01
g682
tp720
a(I01
g682
tp721
a(I01
g531
tp722
a(N(lp723
F0.15189873417721519
aF0.296875
aF0.84375
atp724
a(I01
g531
tp725
a(Ng723
tp726
a(I01
g531
tp727
a(Ng723
tp728
a(I01
g531
tp729
a(Ng723
tp730
a(I01
g531
tp731
a(I00
g723
tp732
a(I01
g531
tp733
a(I01
(lp734
F0.15822784810126583
aF0.2109375
aF0.546875
atp735
a(I00
g630
tp736
a(I00
g630
tp737
a(I00
g630
tp738
a(I00
g630
tp739
a(I01
(lp740
F0.15822784810126583
aF0.2109375
aF0.546875
atp741
a(I01
(lp742
F0.15822784810126583
aF0.2109375
aF0.546875
atp743
a(I00
g478
tp744
a(I00
g478
tp745
a(I01
(lp746
F0.20253164556962025
aF0.734375
aF0.3828125
atp747
a(I01
g712
tp748
a(I01
g712
tp749
a(I01
g712
tp750
a(I01
g712
tp751
a(I01
(lp752
F0.20253164556962025
aF0.734375
aF0.3828125
atp753
aa(lp754
(Ng335
tp755
a(I00
g335
tp756
a(I01
g682
tp757
a(I01
g682
tp758
a(I01
g531
tp759
a(Ng723
tp760
a(I00
g723
tp761
a(I00
g723
tp762
a(I00
g723
tp763
a(I00
g723
tp764
a(I00
g723
tp765
a(I00
g723
tp766
a(I00
g723
tp767
a(I00
g723
tp768
a(I01
g531
tp769
a(I00
g630
tp770
a(I00
g630
tp771
a(I00
g630
tp772
a(I00
g630
tp773
a(I01
(lp774
F0.15822784810126583
aF0.2109375
aF0.546875
atp775
a(I01
(lp776
F0.15822784810126583
aF0.2109375
aF0.546875
atp777
a(I00
g478
tp778
a(I00
g478
tp779
a(I00
g478
tp780
a(I01
g712
tp781
a(I01
g712
tp782
a(I01
g712
tp783
a(I01
g712
tp784
a(I01
g752
tp785
a(I01
g752
tp786
aa(lp787
(I00
g335
tp788
a(I01
g531
tp789
a(I01
g531
tp790
a(I01
g531
tp791
a(I01
g531
tp792
a(I01
g531
tp793
a(I01
g531
tp794
a(I01
g531
tp795
a(I01
g531
tp796
a(I01
g531
tp797
a(I01
g531
tp798
a(I01
g531
tp799
a(I01
g531
tp800
a(I01
g531
tp801
a(I01
g531
tp802
a(I01
g531
tp803
a(I00
g630
tp804
a(I00
g630
tp805
a(Ng630
tp806
a(I01
(lp807
F0.15822784810126583
aF0.2109375
aF0.546875
atp808
a(I00
g478
tp809
a(I00
g478
tp810
a(I00
g478
tp811
a(I01
(lp812
F0.20253164556962025
aF0.734375
aF0.3828125
atp813
a(I01
g712
tp814
a(I01
g712
tp815
a(I01
g752
tp816
a(I01
g712
tp817
a(I01
g752
tp818
a(I01
(lp819
F0.20253164556962025
aF0.734375
aF0.3828125
atp820
aa(lp821
(Ng335
tp822
a(I00
g335
tp823
a(I01
(lp824
F0.15189873417721519
aF0.296875
aF0.234375
atp825
a(I01
g824
tp826
a(I01
g531
tp827
a(N(lp828
F0.15189873417721519
aF0.296875
aF0.84375
atp829
a(I00
g828
tp830
a(I00
g828
tp831
a(I00
g828
tp832
a(I00
g828
tp833
a(I00
g828
tp834
a(I00
g828
tp835
a(I00
g828
tp836
a(I00
g828
tp837
a(I01
g531
tp838
a(I00
g630
tp839
a(I00
g630
tp840
a(I00
g630
tp841
a(I01
(lp842
F0.15822784810126583
aF0.2109375
aF0.546875
atp843
a(I01
(lp844
F0.15822784810126583
aF0.2109375
aF0.546875
atp845
a(I00
g478
tp846
a(I01
(lp847
F0.20253164556962025
aF0.734375
aF0.3828125
atp848
a(I00
g478
tp849
a(I01
g712
tp850
a(I01
g712
tp851
a(I01
g712
tp852
a(I01
g712
tp853
a(I01
g712
tp854
a(I01
g752
tp855
a(I01
g752
tp856
aa(lp857
(Ng335
tp858
a(I00
g335
tp859
a(I01
g824
tp860
a(I01
g824
tp861
a(I01
g531
tp862
a(Ng828
tp863
a(I01
(lp864
F0.15189873417721519
aF0.296875
aF0.234375
atp865
a(I01
g864
tp866
a(I00
g828
tp867
a(I00
g828
tp868
a(I00
g828
tp869
a(I01
(lp870
F0.15189873417721519
aF0.296875
aF0.234375
atp871
a(I01
g870
tp872
a(I00
g828
tp873
a(I01
g531
tp874
a(I00
g630
tp875
a(I00
g630
tp876
a(I01
(lp877
F0.15822784810126583
aF0.2109375
aF0.546875
atp878
a(I01
(lp879
F0.15822784810126583
aF0.2109375
aF0.546875
atp880
a(I00
g478
tp881
a(I00
g478
tp882
a(I01
g712
tp883
a(I01
g712
tp884
a(I01
g712
tp885
a(I01
g712
tp886
a(I01
(lp887
F0.20253164556962025
aF0.734375
aF0.3828125
atp888
a(I01
g712
tp889
a(I01
g752
tp890
a(I01
g752
tp891
a(I01
(lp892
F0.20253164556962025
aF0.734375
aF0.3828125
atp893
aa(lp894
(Ng335
tp895
a(I00
g335
tp896
a(I01
g824
tp897
a(I01
g824
tp898
a(I01
(lp899
F0.15189873417721519
aF0.296875
aF0.453125
atp900
a(I01
(lp901
F0.15189873417721519
aF0.296875
aF0.453125
atp902
a(I01
(lp903
F0.15189873417721519
aF0.296875
aF0.453125
atp904
a(I01
(lp905
F0.15189873417721519
aF0.296875
aF0.453125
atp906
a(I01
(lp907
F0.15189873417721519
aF0.296875
aF0.453125
atp908
a(I00
g828
tp909
a(I00
g828
tp910
a(I01
g870
tp911
a(I01
g870
tp912
a(I00
g828
tp913
a(I01
g531
tp914
a(I01
(lp915
F0.15189873417721519
aF0.296875
aF0.453125
atp916
a(I01
(lp917
F0.15189873417721519
aF0.296875
aF0.453125
atp918
a(I01
(lp919
F0.15189873417721519
aF0.296875
aF0.453125
atp920
a(I00
g478
tp921
a(I00
g478
tp922
a(I01
(lp923
F0.20253164556962025
aF0.734375
aF0.3828125
atp924
a(I01
g712
tp925
a(I01
g712
tp926
a(I01
g712
tp927
a(I01
(lp928
F0.20253164556962025
aF0.734375
aF0.3828125
atp929
a(I01
g712
tp930
a(I01
g752
tp931
a(I01
g752
tp932
a(I01
(lp933
F0.20253164556962025
aF0.734375
aF0.3828125
atp934
a(I01
g752
tp935
aa(lp936
(Ng335
tp937
a(I00
g335
tp938
a(I01
g824
tp939
a(I01
g824
tp940
a(I01
(lp941
F0.15189873417721519
aF0.296875
aF0.453125
atp942
a(N(lp943
F0.15189873417721519
aF0.296875
aF0.234375
atp944
a(N(lp945
F0.15189873417721519
aF0.296875
aF0.234375
atp946
a(N(lp947
F0.15189873417721519
aF0.296875
aF0.234375
atp948
a(N(lp949
F0.15189873417721519
aF0.296875
aF0.234375
atp950
a(I01
(lp951
F0.15189873417721519
aF0.296875
aF0.453125
atp952
a(I01
(lp953
F0.15189873417721519
aF0.296875
aF0.453125
atp954
a(I01
g870
tp955
a(I01
g870
tp956
a(I00
g828
tp957
a(I01
g531
tp958
a(I00
(lp959
F0.15189873417721519
aF0.296875
aF0.234375
atp960
a(I00
(lp961
F0.15189873417721519
aF0.296875
aF0.234375
atp962
a(I00
(lp963
F0.15189873417721519
aF0.296875
aF0.234375
atp964
a(I01
(lp965
F0.15189873417721519
aF0.296875
aF0.453125
atp966
a(I01
(lp967
F0.15189873417721519
aF0.296875
aF0.453125
atp968
a(I01
(lp969
F0.15189873417721519
aF0.296875
aF0.453125
atp970
a(I01
(lp971
F0.15189873417721519
aF0.296875
aF0.453125
atp972
a(I01
g712
tp973
a(I01
g712
tp974
a(I01
g712
tp975
a(I01
g712
tp976
a(I01
g752
tp977
a(I01
(lp978
F0.20253164556962025
aF0.734375
aF0.3828125
atp979
a(I01
g752
tp980
a(I01
(lp981
F0.20253164556962025
aF0.734375
aF0.3828125
atp982
aa(lp983
(I00
g335
tp984
a(I01
(lp985
F0.20886075949367089
aF0.984375
aF0.2109375
atp986
a(I01
g824
tp987
a(I01
g824
tp988
a(I01
(lp989
F0.15189873417721519
aF0.296875
aF0.234375
atp990
a(I01
(lp991
F0.15189873417721519
aF0.296875
aF0.453125
atp992
a(I01
(lp993
F0.15189873417721519
aF0.296875
aF0.453125
atp994
a(I01
(lp995
F0.15189873417721519
aF0.296875
aF0.453125
atp996
a(N(lp997
F0.15189873417721519
aF0.296875
aF0.234375
atp998
a(N(lp999
F0.15189873417721519
aF0.296875
aF0.234375
atp1000
a(N(lp1001
F0.15189873417721519
aF0.296875
aF0.234375
atp1002
a(I01
(lp1003
F0.15189873417721519
aF0.296875
aF0.453125
atp1004
a(I01
(lp1005
F0.15189873417721519
aF0.296875
aF0.453125
atp1006
a(I01
(lp1007
F0.15189873417721519
aF0.296875
aF0.453125
atp1008
a(I01
(lp1009
F0.15189873417721519
aF0.296875
aF0.453125
atp1010
a(I01
(lp1011
F0.15189873417721519
aF0.296875
aF0.453125
atp1012
a(I01
(lp1013
F0.15189873417721519
aF0.296875
aF0.453125
atp1014
a(I01
(lp1015
F0.15189873417721519
aF0.296875
aF0.453125
atp1016
a(N(lp1017
F0.15189873417721519
aF0.296875
aF0.234375
atp1018
a(N(lp1019
F0.15189873417721519
aF0.296875
aF0.234375
atp1020
a(N(lp1021
F0.15189873417721519
aF0.296875
aF0.234375
atp1022
a(I00
(lp1023
F0.15189873417721519
aF0.296875
aF0.234375
atp1024
a(I01
(lp1025
F0.15189873417721519
aF0.296875
aF0.453125
atp1026
a(I01
(lp1027
F0.15189873417721519
aF0.296875
aF0.453125
atp1028
a(I01
(lp1029
F0.15189873417721519
aF0.296875
aF0.453125
atp1030
a(I01
g752
tp1031
a(I01
(lp1032
F0.20253164556962025
aF0.734375
aF0.3828125
atp1033
a(I01
g752
tp1034
a(I01
g752
tp1035
a(I01
g752
tp1036
aa(lp1037
(I01
g985
tp1038
a(I01
g985
tp1039
a(I01
g985
tp1040
a(I01
g824
tp1041
a(I01
(lp1042
F0.15189873417721519
aF0.296875
aF0.234375
atp1043
a(N(lp1044
F0.15189873417721519
aF0.296875
aF0.234375
atp1045
a(I00
(lp1046
F0.15189873417721519
aF0.296875
aF0.234375
atp1047
a(I01
(lp1048
F0.15189873417721519
aF0.296875
aF0.234375
atp1049
a(I01
(lp1050
F0.15189873417721519
aF0.296875
aF0.453125
atp1051
a(I01
(lp1052
F0.15189873417721519
aF0.296875
aF0.453125
atp1053
a(I00
(lp1054
F0.15189873417721519
aF0.296875
aF0.234375
atp1055
a(N(lp1056
F0.15189873417721519
aF0.296875
aF0.234375
atp1057
a(I01
(lp1058
F0.15189873417721519
aF0.296875
aF0.453125
atp1059
a(I01
(lp1060
F0.15189873417721519
aF0.296875
aF0.453125
atp1061
a(N(lp1062
F0.15189873417721519
aF0.296875
aF0.84375
atp1063
a(I00
(lp1064
F0.15189873417721519
aF0.296875
aF0.84375
atp1065
a(I00
(lp1066
F0.15189873417721519
aF0.296875
aF0.84375
atp1067
a(I01
(lp1068
F0.15189873417721519
aF0.296875
aF0.453125
atp1069
a(I01
(lp1070
F0.15189873417721519
aF0.296875
aF0.453125
atp1071
a(I01
(lp1072
F0.15189873417721519
aF0.296875
aF0.453125
atp1073
a(I01
(lp1074
F0.15189873417721519
aF0.296875
aF0.453125
atp1075
a(I01
(lp1076
F0.15189873417721519
aF0.296875
aF0.453125
atp1077
a(I00
(lp1078
F0.15189873417721519
aF0.296875
aF0.234375
atp1079
a(I00
(lp1080
F0.15189873417721519
aF0.296875
aF0.234375
atp1081
a(I00
(lp1082
F0.15189873417721519
aF0.296875
aF0.234375
atp1083
a(I01
(lp1084
F0.15189873417721519
aF0.296875
aF0.453125
atp1085
a(I01
(lp1086
F0.15189873417721519
aF0.296875
aF0.453125
atp1087
a(I01
(lp1088
F0.15189873417721519
aF0.296875
aF0.453125
atp1089
a(I01
(lp1090
F0.20253164556962025
aF0.734375
aF0.3828125
atp1091
a(I01
g752
tp1092
aa(lp1093
(I01
(lp1094
F0.20886075949367089
aF0.984375
aF0.2109375
atp1095
a(I01
g1094
tp1096
a(I01
g985
tp1097
a(I01
g985
tp1098
a(I01
g985
tp1099
a(I01
g985
tp1100
a(I00
(lp1101
F0.15189873417721519
aF0.296875
aF0.234375
atp1102
a(I00
(lp1103
F0.15189873417721519
aF0.296875
aF0.234375
atp1104
a(I00
(lp1105
F0.15189873417721519
aF0.296875
aF0.234375
atp1106
a(I01
(lp1107
F0.15189873417721519
aF0.296875
aF0.234375
atp1108
a(I01
(lp1109
F0.15189873417721519
aF0.296875
aF0.453125
atp1110
a(I01
(lp1111
F0.15189873417721519
aF0.296875
aF0.453125
atp1112
a(N(lp1113
F0.15189873417721519
aF0.296875
aF0.234375
atp1114
a(I01
(lp1115
F0.15189873417721519
aF0.296875
aF0.453125
atp1116
a(I01
(lp1117
F0.15189873417721519
aF0.296875
aF0.453125
atp1118
a(N(lp1119
F0.15189873417721519
aF0.296875
aF0.84375
atp1120
a(I00
(lp1121
F0.15189873417721519
aF0.296875
aF0.84375
atp1122
a(I00
(lp1123
F0.15189873417721519
aF0.296875
aF0.84375
atp1124
a(I00
(lp1125
F0.15189873417721519
aF0.296875
aF0.84375
atp1126
a(I00
(lp1127
F0.15189873417721519
aF0.296875
aF0.84375
atp1128
a(I00
(lp1129
F0.15189873417721519
aF0.296875
aF0.84375
atp1130
a(I01
(lp1131
F0.15189873417721519
aF0.296875
aF0.453125
atp1132
a(I01
(lp1133
F0.15189873417721519
aF0.296875
aF0.453125
atp1134
a(I01
(lp1135
F0.15189873417721519
aF0.296875
aF0.453125
atp1136
a(I01
(lp1137
F0.15189873417721519
aF0.296875
aF0.453125
atp1138
a(I00
(lp1139
F0.15189873417721519
aF0.296875
aF0.234375
atp1140
a(I00
(lp1141
F0.15189873417721519
aF0.296875
aF0.234375
atp1142
a(I00
(lp1143
F0.15189873417721519
aF0.296875
aF0.234375
atp1144
a(I01
(lp1145
F0.15189873417721519
aF0.296875
aF0.453125
atp1146
a(I01
(lp1147
F0.15189873417721519
aF0.296875
aF0.453125
atp1148
aa(lp1149
(I01
g985
tp1150
a(I01
g1094
tp1151
a(I01
g1094
tp1152
a(I01
g1094
tp1153
a(I01
g1094
tp1154
a(I01
g985
tp1155
a(I01
g985
tp1156
a(I01
g985
tp1157
a(I00
(lp1158
F0.15189873417721519
aF0.296875
aF0.234375
atp1159
a(I00
(lp1160
F0.15189873417721519
aF0.296875
aF0.234375
atp1161
a(I00
(lp1162
F0.15189873417721519
aF0.296875
aF0.234375
atp1163
a(I01
(lp1164
F0.15189873417721519
aF0.296875
aF0.234375
atp1165
a(I01
(lp1166
F0.15189873417721519
aF0.296875
aF0.453125
atp1167
a(N(lp1168
F0.15189873417721519
aF0.296875
aF0.234375
atp1169
a(I01
(lp1170
F0.15189873417721519
aF0.296875
aF0.453125
atp1171
a(I01
(lp1172
F0.15189873417721519
aF0.296875
aF0.453125
atp1173
a(N(lp1174
F0.15189873417721519
aF0.296875
aF0.84375
atp1175
a(I00
(lp1176
F0.15189873417721519
aF0.296875
aF0.84375
atp1177
a(I00
(lp1178
F0.15189873417721519
aF0.296875
aF0.84375
atp1179
a(I00
(lp1180
F0.15189873417721519
aF0.296875
aF0.84375
atp1181
a(I00
(lp1182
F0.15189873417721519
aF0.296875
aF0.84375
atp1183
a(I00
(lp1184
F0.15189873417721519
aF0.296875
aF0.84375
atp1185
a(I00
(lp1186
F0.15189873417721519
aF0.296875
aF0.84375
atp1187
a(I00
(lp1188
F0.15189873417721519
aF0.296875
aF0.84375
atp1189
a(I01
(lp1190
F0.15189873417721519
aF0.296875
aF0.453125
atp1191
a(I01
(lp1192
F0.15189873417721519
aF0.296875
aF0.453125
atp1193
a(I01
(lp1194
F0.15189873417721519
aF0.296875
aF0.453125
atp1195
a(I01
(lp1196
F0.15189873417721519
aF0.296875
aF0.453125
atp1197
a(N(lp1198
F0.15189873417721519
aF0.296875
aF0.234375
atp1199
a(I00
(lp1200
F0.15189873417721519
aF0.296875
aF0.234375
atp1201
aa(lp1202
(I01
(lp1203
F0.20886075949367089
aF0.984375
aF0.2109375
atp1204
a(I01
g985
tp1205
a(I01
g1094
tp1206
a(I01
g985
tp1207
a(I01
g985
tp1208
a(I01
(lp1209
F0.20886075949367089
aF0.984375
aF0.2109375
atp1210
a(I01
g985
tp1211
a(I01
g985
tp1212
a(I01
g985
tp1213
a(I00
(lp1214
F0.15189873417721519
aF0.296875
aF0.234375
atp1215
a(I00
(lp1216
F0.15189873417721519
aF0.296875
aF0.234375
atp1217
a(I00
(lp1218
F0.15189873417721519
aF0.296875
aF0.234375
atp1219
a(I01
(lp1220
F0.15189873417721519
aF0.296875
aF0.453125
atp1221
a(I01
(lp1222
F0.15189873417721519
aF0.296875
aF0.234375
atp1223
a(I01
(lp1224
F0.15189873417721519
aF0.296875
aF0.234375
atp1225
a(I01
(lp1226
F0.15189873417721519
aF0.296875
aF0.453125
atp1227
a(I01
(lp1228
F0.15189873417721519
aF0.296875
aF0.453125
atp1229
a(N(lp1230
F0.15189873417721519
aF0.296875
aF0.84375
atp1231
a(N(lp1232
F0.15189873417721519
aF0.296875
aF0.84375
atp1233
a(I00
(lp1234
F0.15189873417721519
aF0.296875
aF0.84375
atp1235
a(I00
(lp1236
F0.15189873417721519
aF0.296875
aF0.84375
atp1237
a(I00
(lp1238
F0.15189873417721519
aF0.296875
aF0.84375
atp1239
a(I00
(lp1240
F0.15189873417721519
aF0.296875
aF0.84375
atp1241
a(I00
(lp1242
F0.15189873417721519
aF0.296875
aF0.84375
atp1243
a(I00
(lp1244
F0.15189873417721519
aF0.296875
aF0.84375
atp1245
a(I00
(lp1246
F0.15189873417721519
aF0.296875
aF0.84375
atp1247
a(I00
(lp1248
F0.15189873417721519
aF0.296875
aF0.84375
atp1249
a(I01
(lp1250
F0.15189873417721519
aF0.296875
aF0.453125
atp1251
a(I01
(lp1252
F0.15189873417721519
aF0.296875
aF0.453125
atp1253
a(I01
(lp1254
F0.15189873417721519
aF0.296875
aF0.453125
atp1255
aasS'height'
p1256
I30
sS'width'
p1257
I30
sS'column_numbers'
p1258
(lp1259
(I3
I4
tp1260
a(I3
I1
I5
tp1261
a(I3
I13
tp1262
a(I3
I1
I13
tp1263
a(I3
I15
tp1264
a(I3
I4
I1
I1
I1
I3
tp1265
a(I2
I5
I1
I2
I1
I2
tp1266
a(I2
I3
I1
I1
I2
I2
I2
tp1267
a(I9
I2
I1
I1
I1
I1
tp1268
a(I2
I4
I1
I1
I1
I2
tp1269
a(I6
I2
I2
I1
I1
I1
tp1270
a(I1
I2
I3
I2
I1
I1
I4
I2
tp1271
a(I1
I1
I7
I4
I1
I5
I2
tp1272
a(I1
I3
I5
I1
I1
I1
I3
I1
tp1273
a(I10
I2
I9
I3
tp1274
a(I3
I2
I2
I1
I1
I1
I2
tp1275
a(I3
I1
I2
I1
I1
I1
tp1276
a(I4
I3
I2
I2
tp1277
a(I3
I1
I2
I1
I1
tp1278
a(I2
I2
I3
I1
I1
tp1279
a(I2
I1
I2
I2
I1
tp1280
a(I5
I2
I4
I2
tp1281
a(I2
I3
I2
I4
I1
tp1282
a(I2
I3
I6
I1
tp1283
a(I2
I4
I8
I2
tp1284
a(I2
I10
I1
tp1285
a(I18
I1
tp1286
a(I17
I2
tp1287
a(I2
I11
I1
tp1288
a(I1
I10
I1
tp1289
asS'background'
p1290
S'blue'
p1291
sb.