ccopy_reg
_reconstructor
p0
(cpuzzle
Puzzle
p1
c__builtin__
object
p2
Ntp3
Rp4
(dp5
S'row_numbers'
p6
(lp7
(I1
I2
tp8
a(I3
I5
tp9
a(I6
I9
tp10
a(I20
tp11
a(I5
I3
I2
tp12
a(I0
tp13
a(I2
I2
tp14
a(I1
I2
I2
tp15
a(I1
I1
I1
I2
I2
I1
tp16
a(I1
I1
I1
I1
I1
I4
tp17
a(I3
tp18
a(I3
tp19
a(I2
tp20
a(I11
tp21
a(I19
tp22
asS'name'
p23
VLoch Ness Monster
p24
sS'cells'
p25
(lp26
(lp27
(I00
(lp28
F0.5189873417721519
aF0.109375
aF0.859375
atp29
a(I00
(lp30
F0.5189873417721519
aF0.109375
aF0.859375
atp31
a(I00
(lp32
F0.5189873417721519
aF0.109375
aF0.859375
atp33
a(I00
(lp34
F0.5189873417721519
aF0.109375
aF0.859375
atp35
a(I00
(lp36
F0.5189873417721519
aF0.109375
aF0.859375
atp37
a(I01
(lp38
F0.2848101265822785
aF0.1640625
aF0.21875
atp39
a(I00
(lp40
F0.5189873417721519
aF0.109375
aF0.859375
atp41
a(I00
(lp42
F0.5189873417721519
aF0.109375
aF0.859375
atp43
a(I00
(lp44
F0.5189873417721519
aF0.109375
aF0.859375
atp45
a(I00
(lp46
F0.5189873417721519
aF0.109375
aF0.859375
atp47
a(I00
(lp48
F0.5189873417721519
aF0.109375
aF0.859375
atp49
a(I00
(lp50
F0.5189873417721519
aF0.109375
aF0.859375
atp51
a(I00
(lp52
F0.5189873417721519
aF0.109375
aF0.859375
atp53
a(I00
(lp54
F0.5189873417721519
aF0.109375
aF0.859375
atp55
a(I01
(lp56
F0.2848101265822785
aF0.1640625
aF0.2890625
atp57
a(I01
(lp58
F0.2848101265822785
aF0.1640625
aF0.2890625
atp59
a(N(lp60
F0.5189873417721519
aF0.109375
aF0.859375
atp61
a(I00
(lp62
F0.5189873417721519
aF0.109375
aF0.859375
atp63
a(I00
(lp64
F0.5189873417721519
aF0.109375
aF0.859375
atp65
a(I00
(lp66
F0.5189873417721519
aF0.109375
aF0.859375
atp67
aa(lp68
(I00
(lp69
F0.5189873417721519
aF0.109375
aF0.921875
atp70
a(Ng69
tp71
a(I00
g69
tp72
a(I00
g69
tp73
a(I01
(lp74
F0.2848101265822785
aF0.1640625
aF0.21875
atp75
a(I01
(lp76
F0.2848101265822785
aF0.1640625
aF0.21875
atp77
a(I01
(lp78
F0.2848101265822785
aF0.1640625
aF0.21875
atp79
a(I00
(lp80
F0.5189873417721519
aF0.109375
aF0.921875
atp81
a(I00
g80
tp82
a(I00
g80
tp83
a(I00
g80
tp84
a(I00
g80
tp85
a(I01
(lp86
F0.2848101265822785
aF0.1640625
aF0.2890625
atp87
a(I01
(lp88
F0.2848101265822785
aF0.1640625
aF0.2890625
atp89
a(I01
(lp90
F0.2848101265822785
aF0.1640625
aF0.2890625
atp91
a(I01
(lp92
F0.2848101265822785
aF0.1640625
aF0.2890625
atp93
a(I01
(lp94
F0.2848101265822785
aF0.1640625
aF0.2890625
atp95
a(N(lp96
F0.5189873417721519
aF0.109375
aF0.921875
atp97
a(I00
g96
tp98
a(I00
g96
tp99
aa(lp100
(N(lp101
F0.5189873417721519
aF0.109375
aF0.984375
atp102
a(N(lp103
F0.5189873417721519
aF0.109375
aF0.984375
atp104
a(I01
(lp105
F0.2848101265822785
aF0.1640625
aF0.21875
atp106
a(I01
(lp107
F0.2848101265822785
aF0.1640625
aF0.21875
atp108
a(I01
(lp109
F0.2848101265822785
aF0.1640625
aF0.21875
atp110
a(I01
(lp111
F0.2848101265822785
aF0.1640625
aF0.21875
atp112
a(I01
(lp113
F0.2848101265822785
aF0.1640625
aF0.21875
atp114
a(I01
(lp115
F0.2848101265822785
aF0.1640625
aF0.21875
atp116
a(N(lp117
F0.5189873417721519
aF0.109375
aF0.984375
atp118
a(I00
(lp119
F0.5189873417721519
aF0.109375
aF0.984375
atp120
a(I01
(lp121
F0.2848101265822785
aF0.1640625
aF0.2890625
atp122
a(I01
(lp123
F0.2848101265822785
aF0.1640625
aF0.2890625
atp124
a(I01
(lp125
F0.2848101265822785
aF0.1640625
aF0.2890625
atp126
a(I01
(lp127
F0.2848101265822785
aF0.1640625
aF0.2890625
atp128
a(I01
(lp129
F0.2848101265822785
aF0.1640625
aF0.2890625
atp130
a(I01
(lp131
F0.2848101265822785
aF0.1640625
aF0.2890625
atp132
a(I01
(lp133
F0.2848101265822785
aF0.1640625
aF0.2890625
atp134
a(I01
(lp135
F0.2848101265822785
aF0.1640625
aF0.2890625
atp136
a(I01
(lp137
F0.2848101265822785
aF0.1640625
aF0.2890625
atp138
a(I00
(lp139
F0.5189873417721519
aF0.109375
aF0.984375
atp140
aa(lp141
(I01
(lp142
F0.2848101265822785
aF0.1640625
aF0.3671875
atp143
a(I01
(lp144
F0.2848101265822785
aF0.1640625
aF0.3671875
atp145
a(I01
(lp146
F0.2848101265822785
aF0.1640625
aF0.3671875
atp147
a(I01
(lp148
F0.2848101265822785
aF0.1640625
aF0.3671875
atp149
a(I01
(lp150
F0.2848101265822785
aF0.1640625
aF0.3671875
atp151
a(I01
(lp152
F0.2848101265822785
aF0.1640625
aF0.3671875
atp153
a(I01
(lp154
F0.2848101265822785
aF0.1640625
aF0.3671875
atp155
a(I01
(lp156
F0.2848101265822785
aF0.1640625
aF0.3671875
atp157
a(I01
(lp158
F0.2848101265822785
aF0.1640625
aF0.3671875
atp159
a(I01
(lp160
F0.2848101265822785
aF0.1640625
aF0.3671875
atp161
a(I01
(lp162
F0.2848101265822785
aF0.1640625
aF0.3671875
atp163
a(I01
(lp164
F0.2848101265822785
aF0.1640625
aF0.3671875
atp165
a(I01
(lp166
F0.2848101265822785
aF0.1640625
aF0.3671875
atp167
a(I01
(lp168
F0.2848101265822785
aF0.1640625
aF0.3671875
atp169
a(I01
(lp170
F0.2848101265822785
aF0.1640625
aF0.3671875
atp171
a(I01
(lp172
F0.2848101265822785
aF0.1640625
aF0.3671875
atp173
a(I01
(lp174
F0.2848101265822785
aF0.1640625
aF0.3671875
atp175
a(I01
(lp176
F0.2848101265822785
aF0.1640625
aF0.3671875
atp177
a(I01
(lp178
F0.2848101265822785
aF0.1640625
aF0.3671875
atp179
a(I01
(lp180
F0.2848101265822785
aF0.1640625
aF0.3671875
atp181
aa(lp182
(I00
(lp183
F0.5822784810126582
aF0.1875
aF0.34375
atp184
a(I00
(lp185
F0.5822784810126582
aF0.1875
aF0.34375
atp186
a(I00
(lp187
F0.5822784810126582
aF0.1875
aF0.34375
atp188
a(I01
(lp189
F0.2848101265822785
aF0.1640625
aF0.3671875
atp190
a(I01
(lp191
F0.2848101265822785
aF0.1640625
aF0.3671875
atp192
a(I01
(lp193
F0.2848101265822785
aF0.1640625
aF0.3671875
atp194
a(I01
(lp195
F0.2848101265822785
aF0.1640625
aF0.3671875
atp196
a(I01
(lp197
F0.2848101265822785
aF0.1640625
aF0.3671875
atp198
a(I00
(lp199
F0.5822784810126582
aF0.1875
aF0.34375
atp200
a(I01
(lp201
F0.2848101265822785
aF0.1640625
aF0.3671875
atp202
a(I01
(lp203
F0.2848101265822785
aF0.1640625
aF0.3671875
atp204
a(I01
(lp205
F0.2848101265822785
aF0.1640625
aF0.3671875
atp206
a(I00
(lp207
F0.5822784810126582
aF0.1875
aF0.34375
atp208
a(I00
(lp209
F0.5822784810126582
aF0.1875
aF0.34375
atp210
a(N(lp211
F0.5822784810126582
aF0.1875
aF0.34375
atp212
a(N(lp213
F0.5822784810126582
aF0.1875
aF0.34375
atp214
a(N(lp215
F0.5822784810126582
aF0.1875
aF0.34375
atp216
a(I01
(lp217
F0.2848101265822785
aF0.1640625
aF0.3671875
atp218
a(I01
(lp219
F0.2848101265822785
aF0.1640625
aF0.3671875
atp220
a(I00
(lp221
F0.5822784810126582
aF0.1875
aF0.34375
atp222
aa(lp223
(I00
(lp224
F0.5822784810126582
aF0.1875
aF0.3828125
atp225
a(I00
(lp226
F0.5822784810126582
aF0.1875
aF0.3828125
atp227
a(I00
(lp228
F0.5822784810126582
aF0.1875
aF0.3828125
atp229
a(I00
(lp230
F0.5822784810126582
aF0.1875
aF0.3828125
atp231
a(N(lp232
F0.5822784810126582
aF0.1875
aF0.3828125
atp233
a(I00
(lp234
F0.5822784810126582
aF0.1875
aF0.3828125
atp235
a(I00
(lp236
F0.5822784810126582
aF0.1875
aF0.3828125
atp237
a(I00
(lp238
F0.5822784810126582
aF0.1875
aF0.3828125
atp239
a(I00
(lp240
F0.5822784810126582
aF0.1875
aF0.3828125
atp241
a(I00
(lp242
F0.5822784810126582
aF0.1875
aF0.3828125
atp243
a(I00
(lp244
F0.5822784810126582
aF0.1875
aF0.3828125
atp245
a(I00
(lp246
F0.5822784810126582
aF0.1875
aF0.3828125
atp247
a(I00
(lp248
F0.5822784810126582
aF0.1875
aF0.3828125
atp249
a(I00
(lp250
F0.5822784810126582
aF0.1875
aF0.3828125
atp251
a(I00
(lp252
F0.5822784810126582
aF0.1875
aF0.3828125
atp253
a(I00
(lp254
F0.5822784810126582
aF0.1875
aF0.3828125
atp255
a(I00
(lp256
F0.5822784810126582
aF0.1875
aF0.3828125
atp257
a(I00
(lp258
F0.5822784810126582
aF0.1875
aF0.3828125
atp259
a(I00
(lp260
F0.5822784810126582
aF0.1875
aF0.3828125
atp261
a(I00
(lp262
F0.5822784810126582
aF0.1875
aF0.3828125
atp263
aa(lp264
(I00
(lp265
F0.5822784810126582
aF0.1875
aF0.5
atp266
a(I01
(lp267
F0.2120253164556962
aF0.5234375
aF0.328125
atp268
a(I01
(lp269
F0.2120253164556962
aF0.5234375
aF0.328125
atp270
a(N(lp271
F0.5822784810126582
aF0.1875
aF0.5
atp272
a(N(lp273
F0.5822784810126582
aF0.1875
aF0.5
atp274
a(I00
(lp275
F0.5822784810126582
aF0.1875
aF0.5
atp276
a(I00
(lp277
F0.5822784810126582
aF0.1875
aF0.5
atp278
a(I00
(lp279
F0.5822784810126582
aF0.1875
aF0.5
atp280
a(I00
(lp281
F0.5822784810126582
aF0.1875
aF0.5
atp282
a(I00
(lp283
F0.5822784810126582
aF0.1875
aF0.5
atp284
a(I00
(lp285
F0.5822784810126582
aF0.1875
aF0.5
atp286
a(I00
(lp287
F0.5822784810126582
aF0.1875
aF0.5
atp288
a(I00
(lp289
F0.5822784810126582
aF0.1875
aF0.5
atp290
a(I00
(lp291
F0.5822784810126582
aF0.1875
aF0.5
atp292
a(I00
(lp293
F0.5822784810126582
aF0.1875
aF0.5
atp294
a(N(lp295
F0.5822784810126582
aF0.1875
aF0.5
atp296
a(I01
(lp297
F0.13291139240506328
aF0.3046875
aF0.5546875
atp298
a(I01
(lp299
F0.13291139240506328
aF0.3046875
aF0.4765625
atp300
a(I00
(lp301
F0.5822784810126582
aF0.1875
aF0.5
atp302
a(I00
(lp303
F0.5822784810126582
aF0.1875
aF0.5
atp304
aa(lp305
(I00
(lp306
F0.5822784810126582
aF0.1875
aF0.609375
atp307
a(I00
g306
tp308
a(I01
(lp309
F0.2120253164556962
aF0.5234375
aF0.328125
atp310
a(Ng306
tp311
a(I00
g306
tp312
a(I01
(lp313
F0.2120253164556962
aF0.5234375
aF0.328125
atp314
a(I01
(lp315
F0.2120253164556962
aF0.5234375
aF0.328125
atp316
a(I00
g306
tp317
a(I00
g306
tp318
a(I00
g306
tp319
a(I00
g306
tp320
a(I00
g306
tp321
a(I00
g306
tp322
a(I00
g306
tp323
a(Ng306
tp324
a(Ng306
tp325
a(I01
(lp326
F0.0981012658227848
aF0.1953125
aF0.6484375
atp327
a(I01
(lp328
F0.13291139240506328
aF0.3046875
aF0.4765625
atp329
a(I00
(lp330
F0.5822784810126582
aF0.1875
aF0.609375
atp331
a(I00
(lp332
F0.5822784810126582
aF0.1875
aF0.609375
atp333
aa(lp334
(I00
g306
tp335
a(I00
g306
tp336
a(I01
(lp337
F0.2120253164556962
aF0.5234375
aF0.328125
atp338
a(Ng306
tp339
a(I01
(lp340
F0.2120253164556962
aF0.5234375
aF0.328125
atp341
a(Ng306
tp342
a(I01
(lp343
F0.2120253164556962
aF0.5234375
aF0.328125
atp344
a(Ng306
tp345
a(I01
(lp346
F0.2120253164556962
aF0.5234375
aF0.328125
atp347
a(I01
(lp348
F0.2120253164556962
aF0.5234375
aF0.328125
atp349
a(Ng306
tp350
a(I00
g306
tp351
a(Ng306
tp352
a(I01
(lp353
F0.0981012658227848
aF0.1953125
aF0.6484375
atp354
a(I01
(lp355
F0.6044303797468354
aF0.4296875
aF0.5
atp356
a(Ng306
tp357
a(Ng306
tp358
a(I01
(lp359
F0.0981012658227848
aF0.1953125
aF0.5234375
atp360
a(I00
(lp361
F0.5822784810126582
aF0.1875
aF0.609375
atp362
a(I00
(lp363
F0.5822784810126582
aF0.1875
aF0.609375
atp364
aa(lp365
(I00
g306
tp366
a(I00
(lp367
F0.5822784810126582
aF0.1875
aF0.671875
atp368
a(I01
(lp369
F0.2120253164556962
aF0.5234375
aF0.328125
atp370
a(N(lp371
F0.5822784810126582
aF0.1875
aF0.5
atp372
a(I01
(lp373
F0.2120253164556962
aF0.5234375
aF0.328125
atp374
a(N(lp375
F0.5822784810126582
aF0.1875
aF0.5
atp376
a(I01
(lp377
F0.2120253164556962
aF0.5234375
aF0.328125
atp378
a(N(lp379
F0.5822784810126582
aF0.1875
aF0.5
atp380
a(I01
(lp381
F0.2120253164556962
aF0.5234375
aF0.328125
atp382
a(N(lp383
F0.5822784810126582
aF0.1875
aF0.5
atp384
a(I01
(lp385
F0.2120253164556962
aF0.5234375
aF0.328125
atp386
a(N(lp387
F0.5822784810126582
aF0.1875
aF0.5
atp388
a(I00
(lp389
F0.5822784810126582
aF0.1875
aF0.5625
atp390
a(I00
(lp391
F0.5822784810126582
aF0.1875
aF0.609375
atp392
a(N(lp393
F0.5822784810126582
aF0.1875
aF0.609375
atp394
a(I01
(lp395
F0.6044303797468354
aF0.4296875
aF0.5
atp396
a(I01
(lp397
F0.6044303797468354
aF0.4296875
aF0.5
atp398
a(I01
(lp399
F0.6044303797468354
aF0.4296875
aF0.3828125
atp400
a(I01
(lp401
F0.6044303797468354
aF0.4296875
aF0.3828125
atp402
a(I00
(lp403
F0.5822784810126582
aF0.1875
aF0.609375
atp404
aa(lp405
(I00
g306
tp406
a(I00
g306
tp407
a(I00
g306
tp408
a(I00
(lp409
F0.5822784810126582
aF0.1875
aF0.609375
atp410
a(I00
g306
tp411
a(I00
g306
tp412
a(I00
g306
tp413
a(I00
g306
tp414
a(I00
g306
tp415
a(I00
g306
tp416
a(I00
g306
tp417
a(I00
g306
tp418
a(I00
g306
tp419
a(I00
g306
tp420
a(I00
g306
tp421
a(I00
g306
tp422
a(I01
(lp423
F0.6044303797468354
aF0.4296875
aF0.5
atp424
a(I01
(lp425
F0.6044303797468354
aF0.4296875
aF0.3828125
atp426
a(I01
(lp427
F0.6044303797468354
aF0.4296875
aF0.3828125
atp428
a(I00
(lp429
F0.5822784810126582
aF0.1875
aF0.609375
atp430
aa(lp431
(I00
g306
tp432
a(I00
g306
tp433
a(I00
g306
tp434
a(I00
g306
tp435
a(I00
g306
tp436
a(I00
g306
tp437
a(Ng306
tp438
a(Ng306
tp439
a(Ng306
tp440
a(Ng306
tp441
a(Ng306
tp442
a(Ng306
tp443
a(Ng306
tp444
a(Ng306
tp445
a(Ng306
tp446
a(Ng306
tp447
a(I01
(lp448
F0.6044303797468354
aF0.4296875
aF0.5
atp449
a(I01
(lp450
F0.6044303797468354
aF0.4296875
aF0.3828125
atp451
a(I01
(lp452
F0.0981012658227848
aF0.1953125
aF0.5234375
atp453
a(N(lp454
F0.5822784810126582
aF0.1875
aF0.609375
atp455
aa(lp456
(I00
g306
tp457
a(I00
g306
tp458
a(I00
g306
tp459
a(I00
g306
tp460
a(I00
g306
tp461
a(I00
g306
tp462
a(Ng306
tp463
a(Ng306
tp464
a(I00
g306
tp465
a(Ng306
tp466
a(Ng306
tp467
a(Ng306
tp468
a(Ng306
tp469
a(Ng306
tp470
a(Ng306
tp471
a(I00
g306
tp472
a(I01
(lp473
F0.0981012658227848
aF0.4296875
aF0.40625
atp474
a(I01
(lp475
F0.0981012658227848
aF0.4296875
aF0.296875
atp476
a(N(lp477
F0.5822784810126582
aF0.1875
aF0.609375
atp478
a(N(lp479
F0.5822784810126582
aF0.1875
aF0.609375
atp480
aa(lp481
(I00
g306
tp482
a(I00
g306
tp483
a(I00
g306
tp484
a(I00
g306
tp485
a(I00
g306
tp486
a(I00
g306
tp487
a(Ng306
tp488
a(Ng306
tp489
a(I01
(lp490
F0.2689873417721519
aF0.3671875
aF0.640625
atp491
a(I01
(lp492
F0.2689873417721519
aF0.3671875
aF0.640625
atp493
a(I01
(lp494
F0.2689873417721519
aF0.3671875
aF0.640625
atp495
a(I01
(lp496
F0.2689873417721519
aF0.3671875
aF0.640625
atp497
a(I01
(lp498
F0.2689873417721519
aF0.3671875
aF0.640625
atp499
a(I01
(lp500
F0.2689873417721519
aF0.3671875
aF0.640625
atp501
a(I01
(lp502
F0.2689873417721519
aF0.3671875
aF0.640625
atp503
a(I01
(lp504
F0.2689873417721519
aF0.3671875
aF0.640625
atp505
a(I01
(lp506
F0.0981012658227848
aF0.4296875
aF0.40625
atp507
a(I01
(lp508
F0.0981012658227848
aF0.4296875
aF0.296875
atp509
a(I01
(lp510
F0.2689873417721519
aF0.3671875
aF0.640625
atp511
a(N(lp512
F0.5822784810126582
aF0.1875
aF0.609375
atp513
aa(lp514
(I00
g306
tp515
a(I01
(lp516
F0.2689873417721519
aF0.3671875
aF0.7109375
atp517
a(I01
(lp518
F0.2689873417721519
aF0.3671875
aF0.7109375
atp519
a(I01
(lp520
F0.2689873417721519
aF0.3671875
aF0.7109375
atp521
a(I01
(lp522
F0.2689873417721519
aF0.3671875
aF0.7109375
atp523
a(I01
(lp524
F0.2689873417721519
aF0.3671875
aF0.7109375
atp525
a(I01
(lp526
F0.2689873417721519
aF0.3671875
aF0.7109375
atp527
a(I01
(lp528
F0.2689873417721519
aF0.3671875
aF0.7109375
atp529
a(I01
(lp530
F0.2689873417721519
aF0.3671875
aF0.7109375
atp531
a(I01
(lp532
F0.2689873417721519
aF0.3671875
aF0.7109375
atp533
a(I01
(lp534
F0.2689873417721519
aF0.3671875
aF0.7109375
atp535
a(I01
(lp536
F0.2689873417721519
aF0.3671875
aF0.7109375
atp537
a(I01
(lp538
F0.2689873417721519
aF0.3671875
aF0.7109375
atp539
a(I01
(lp540
F0.2689873417721519
aF0.3671875
aF0.7109375
atp541
a(I01
(lp542
F0.2689873417721519
aF0.3671875
aF0.7109375
atp543
a(I01
(lp544
F0.2689873417721519
aF0.3671875
aF0.7109375
atp545
a(I01
(lp546
F0.0981012658227848
aF0.4296875
aF0.40625
atp547
a(I01
(lp548
F0.0981012658227848
aF0.4296875
aF0.296875
atp549
a(I01
(lp550
F0.2689873417721519
aF0.3671875
aF0.7109375
atp551
a(I01
(lp552
F0.2689873417721519
aF0.3671875
aF0.7109375
atp553
aasS'height'
p554
I15
sS'width'
p555
I20
sS'column_numbers'
p556
(lp557
(I1
tp558
a(I1
I1
I1
tp559
a(I2
I4
I1
tp560
a(I3
I1
tp561
a(I4
I2
I1
tp562
a(I5
I1
I1
tp563
a(I4
I3
I1
tp564
a(I3
I1
tp565
a(I1
I2
I2
tp566
a(I2
I1
I2
tp567
a(I3
I1
I2
tp568
a(I3
I2
tp569
a(I3
I2
tp570
a(I3
I1
I2
tp571
a(I4
I1
I2
tp572
a(I4
I1
I2
tp573
a(I3
I2
I6
tp574
a(I3
I9
tp575
a(I3
I3
I2
tp576
a(I1
I1
tp577
asS'background'
p578
S'blue'
p579
sb.