ccopy_reg
_reconstructor
p0
(cpuzzle
Puzzle
p1
c__builtin__
object
p2
Ntp3
Rp4
(dp5
S'row_numbers'
p6
(lp7
(I7
I7
tp8
a(I5
I1
I2
I1
I5
tp9
a(I3
I2
I1
I2
I3
tp10
a(I2
I4
I4
I2
tp11
a(I2
I2
I1
I1
I3
I2
tp12
a(I1
I3
I2
I1
tp13
a(I1
I3
I6
I1
tp14
a(I1
I1
I8
tp15
a(I2
I9
tp16
a(I3
I8
tp17
a(I5
I6
tp18
a(I5
I4
tp19
a(I4
I4
I1
tp20
a(I1
I3
I3
I1
tp21
a(I1
I2
I3
I1
tp22
a(I2
I1
I1
I2
tp23
a(I2
I1
I2
tp24
a(I3
I1
I3
tp25
a(I5
I6
I5
tp26
a(I7
I7
tp27
asS'name'
p28
VPlanet Earth
p29
sS'cells'
p30
(lp31
(lp32
(I01
(lp33
F0.689873417721519
aF0.7578125
aF0.0703125
atp34
a(I01
g33
tp35
a(I01
g33
tp36
a(I01
g33
tp37
a(I01
g33
tp38
a(I01
g33
tp39
a(I01
(lp40
F0.509493670886076
aF0.3203125
aF0.171875
atp41
a(N(lp42
F0.509493670886076
aF0.3203125
aF0.390625
atp43
a(N(lp44
F0.5379746835443038
aF0.3046875
aF0.9921875
atp45
a(N(lp46
F0.5379746835443038
aF0.3046875
aF0.9921875
atp47
a(I00
(lp48
F0.5379746835443038
aF0.3046875
aF0.9921875
atp49
a(I00
(lp50
F0.5379746835443038
aF0.3046875
aF0.9921875
atp51
a(I00
(lp52
F0.509493670886076
aF0.3203125
aF0.390625
atp53
a(I01
(lp54
F0.509493670886076
aF0.3203125
aF0.171875
atp55
a(I01
(lp56
F0.689873417721519
aF0.7578125
aF0.0703125
atp57
a(I01
g56
tp58
a(I01
g56
tp59
a(I01
g56
tp60
a(I01
g56
tp61
a(I01
g56
tp62
aa(lp63
(I01
g33
tp64
a(I01
g33
tp65
a(I01
g33
tp66
a(I01
g33
tp67
a(I01
(lp68
F0.509493670886076
aF0.3203125
aF0.171875
atp69
a(I00
(lp70
F0.509493670886076
aF0.3203125
aF0.390625
atp71
a(I00
(lp72
F0.5379746835443038
aF0.3046875
aF0.9921875
atp73
a(I01
(lp74
F0.439873417721519
aF0.109375
aF0.90625
atp75
a(N(lp76
F0.5759493670886076
aF0.9140625
aF0.6484375
atp77
a(I01
(lp78
F0.439873417721519
aF0.109375
aF0.90625
atp79
a(I01
(lp80
F0.439873417721519
aF0.109375
aF0.90625
atp81
a(Ng76
tp82
a(I01
(lp83
F0.439873417721519
aF0.109375
aF0.90625
atp84
a(I00
(lp85
F0.5379746835443038
aF0.3046875
aF0.9921875
atp86
a(I00
(lp87
F0.509493670886076
aF0.3203125
aF0.390625
atp88
a(I01
(lp89
F0.509493670886076
aF0.3203125
aF0.171875
atp90
a(I01
g56
tp91
a(I01
g56
tp92
a(I01
g56
tp93
a(I01
g56
tp94
aa(lp95
(I01
g33
tp96
a(I01
g33
tp97
a(I01
g33
tp98
a(N(lp99
F0.509493670886076
aF0.3203125
aF0.390625
atp100
a(I00
(lp101
F0.5379746835443038
aF0.3046875
aF0.9921875
atp102
a(I01
(lp103
F0.18354430379746836
aF0.59375
aF0.6484375
atp104
a(I01
(lp105
F0.25949367088607594
aF0.7265625
aF0.5625
atp106
a(Ng76
tp107
a(I00
g76
tp108
a(I01
(lp109
F0.439873417721519
aF0.109375
aF0.90625
atp110
a(I00
g76
tp111
a(Ng76
tp112
a(I00
g76
tp113
a(I01
(lp114
F0.25949367088607594
aF0.7265625
aF0.5625
atp115
a(I01
g114
tp116
a(N(lp117
F0.5379746835443038
aF0.3046875
aF0.9921875
atp118
a(N(lp119
F0.509493670886076
aF0.3203125
aF0.390625
atp120
a(I01
g56
tp121
a(I01
g56
tp122
a(I01
g56
tp123
aa(lp124
(I01
g33
tp125
a(I01
g33
tp126
a(N(lp127
F0.509493670886076
aF0.3203125
aF0.390625
atp128
a(I01
(lp129
F0.18354430379746836
aF0.28125
aF0.9140625
atp130
a(I01
(lp131
F0.18354430379746836
aF0.59375
aF0.6484375
atp132
a(I01
g105
tp133
a(I01
g105
tp134
a(Ng76
tp135
a(I00
g76
tp136
a(I00
g76
tp137
a(I00
g76
tp138
a(I00
g76
tp139
a(I00
g76
tp140
a(I01
g114
tp141
a(I01
g114
tp142
a(I01
g114
tp143
a(I01
(lp144
F0.23417721518987342
aF0.3125
aF0.8984375
atp145
a(I00
(lp146
F0.509493670886076
aF0.3203125
aF0.390625
atp147
a(I01
g56
tp148
a(I01
g56
tp149
aa(lp150
(I01
g33
tp151
a(I01
(lp152
F0.509493670886076
aF0.3203125
aF0.171875
atp153
a(I00
(lp154
F0.5379746835443038
aF0.3046875
aF0.9921875
atp155
a(I01
(lp156
F0.10443037974683544
aF0.546875
aF0.8359375
atp157
a(I01
g105
tp158
a(Ng76
tp159
a(I01
g105
tp160
a(Ng76
tp161
a(Ng76
tp162
a(Ng76
tp163
a(I00
g76
tp164
a(Ng76
tp165
a(I01
(lp166
F0.25949367088607594
aF0.7265625
aF0.5625
atp167
a(Ng76
tp168
a(I01
g114
tp169
a(I01
(lp170
F0.18354430379746836
aF0.59375
aF0.6484375
atp171
a(I01
(lp172
F0.10443037974683544
aF0.546875
aF0.8359375
atp173
a(I00
(lp174
F0.5379746835443038
aF0.3046875
aF0.9921875
atp175
a(I01
(lp176
F0.509493670886076
aF0.3203125
aF0.171875
atp177
a(I01
g56
tp178
aa(lp179
(I01
g33
tp180
a(I00
(lp181
F0.509493670886076
aF0.3203125
aF0.390625
atp182
a(I01
(lp183
F0.10443037974683544
aF0.546875
aF0.8359375
atp184
a(I01
(lp185
F0.18354430379746836
aF0.59375
aF0.6484375
atp186
a(I01
g105
tp187
a(Ng76
tp188
a(Ng76
tp189
a(Ng76
tp190
a(Ng76
tp191
a(N(lp192
F0.5759493670886076
aF0.9140625
aF0.6484375
atp193
a(I00
g76
tp194
a(Ng76
tp195
a(Ng76
tp196
a(I00
g76
tp197
a(Ng76
tp198
a(I00
g76
tp199
a(I01
g172
tp200
a(I01
(lp201
F0.10443037974683544
aF0.546875
aF0.5
atp202
a(I00
(lp203
F0.509493670886076
aF0.3203125
aF0.390625
atp204
a(I01
g56
tp205
aa(lp206
(I01
(lp207
F0.509493670886076
aF0.3203125
aF0.171875
atp208
a(N(lp209
F0.5379746835443038
aF0.3046875
aF0.9921875
atp210
a(I01
(lp211
F0.18354430379746836
aF0.59375
aF0.6484375
atp212
a(I01
g105
tp213
a(I01
g105
tp214
a(Ng76
tp215
a(Ng76
tp216
a(Ng76
tp217
a(N(lp218
F0.5759493670886076
aF0.9140625
aF0.6484375
atp219
a(Ng76
tp220
a(Ng76
tp221
a(Ng76
tp222
a(I01
g172
tp223
a(I01
g172
tp224
a(I01
g172
tp225
a(I01
g172
tp226
a(I01
g172
tp227
a(I01
(lp228
F0.10443037974683544
aF0.546875
aF0.5
atp229
a(I00
(lp230
F0.5379746835443038
aF0.3046875
aF0.9921875
atp231
a(I01
(lp232
F0.509493670886076
aF0.3203125
aF0.171875
atp233
aa(lp234
(I00
(lp235
F0.509493670886076
aF0.3203125
aF0.390625
atp236
a(I01
(lp237
F0.33860759493670883
aF0.40625
aF0.828125
atp238
a(Ng76
tp239
a(I00
g76
tp240
a(I01
g105
tp241
a(I00
g76
tp242
a(I00
g76
tp243
a(I00
g76
tp244
a(Ng76
tp245
a(Ng76
tp246
a(Ng76
tp247
a(I01
g172
tp248
a(I01
g172
tp249
a(I01
g172
tp250
a(I01
g172
tp251
a(I01
g172
tp252
a(I01
g172
tp253
a(I01
(lp254
F0.10443037974683544
aF0.546875
aF0.5
atp255
a(I01
(lp256
F0.18354430379746836
aF0.28125
aF0.5546875
atp257
a(I00
(lp258
F0.509493670886076
aF0.3203125
aF0.390625
atp259
aa(lp260
(I00
(lp261
F0.5379746835443038
aF0.3046875
aF0.9921875
atp262
a(I01
(lp263
F0.25949367088607594
aF0.7265625
aF0.5625
atp264
a(I01
g263
tp265
a(I00
g76
tp266
a(I00
g76
tp267
a(I00
g76
tp268
a(Ng76
tp269
a(I00
g76
tp270
a(I00
g76
tp271
a(I00
g76
tp272
a(I01
g172
tp273
a(I01
g172
tp274
a(I01
g172
tp275
a(I01
g172
tp276
a(I01
g172
tp277
a(I01
g172
tp278
a(I01
(lp279
F0.10443037974683544
aF0.546875
aF0.5
atp280
a(I01
(lp281
F0.10443037974683544
aF0.546875
aF0.5
atp282
a(I01
(lp283
F0.10443037974683544
aF0.546875
aF0.5
atp284
a(N(lp285
F0.5379746835443038
aF0.3046875
aF0.9921875
atp286
aa(lp287
(I00
(lp288
F0.5379746835443038
aF0.3046875
aF0.9921875
atp289
a(I00
g76
tp290
a(I01
g263
tp291
a(I01
g263
tp292
a(I01
g263
tp293
a(I00
g76
tp294
a(I00
g76
tp295
a(I00
g76
tp296
a(I00
g76
tp297
a(I00
g76
tp298
a(Ng76
tp299
a(I01
(lp300
F0.18354430379746836
aF0.59375
aF0.6484375
atp301
a(I01
g172
tp302
a(I01
(lp303
F0.18354430379746836
aF0.59375
aF0.6484375
atp304
a(I01
(lp305
F0.25949367088607594
aF0.7265625
aF0.5625
atp306
a(I01
g305
tp307
a(I01
(lp308
F0.25949367088607594
aF0.7265625
aF0.3203125
atp309
a(I01
(lp310
F0.25949367088607594
aF0.7265625
aF0.3203125
atp311
a(I01
(lp312
F0.10443037974683544
aF0.546875
aF0.5
atp313
a(I00
(lp314
F0.5379746835443038
aF0.3046875
aF0.9921875
atp315
aa(lp316
(I00
(lp317
F0.5379746835443038
aF0.3046875
aF0.9921875
atp318
a(I00
g76
tp319
a(I01
(lp320
F0.18354430379746836
aF0.59375
aF0.6484375
atp321
a(I01
g263
tp322
a(I01
g263
tp323
a(I01
(lp324
F0.18354430379746836
aF0.59375
aF0.6484375
atp325
a(I01
(lp326
F0.10443037974683544
aF0.546875
aF0.8359375
atp327
a(I00
g76
tp328
a(I00
g76
tp329
a(I00
g76
tp330
a(I00
g76
tp331
a(Ng76
tp332
a(Ng76
tp333
a(I01
g305
tp334
a(I01
g305
tp335
a(I01
(lp336
F0.25949367088607594
aF0.7265625
aF0.3203125
atp337
a(I01
(lp338
F0.25949367088607594
aF0.7265625
aF0.3203125
atp339
a(I01
(lp340
F0.25949367088607594
aF0.7265625
aF0.3203125
atp341
a(I01
(lp342
F0.25949367088607594
aF0.7265625
aF0.3203125
atp343
a(I00
(lp344
F0.5379746835443038
aF0.3046875
aF0.9921875
atp345
aa(lp346
(I00
(lp347
F0.5379746835443038
aF0.3046875
aF0.9921875
atp348
a(I00
g76
tp349
a(I01
(lp350
F0.10443037974683544
aF0.546875
aF0.8359375
atp351
a(I01
g263
tp352
a(I01
g263
tp353
a(I01
(lp354
F0.18354430379746836
aF0.59375
aF0.6484375
atp355
a(I01
g326
tp356
a(I00
g76
tp357
a(I00
g76
tp358
a(I00
g76
tp359
a(I00
g76
tp360
a(I00
g76
tp361
a(I00
g76
tp362
a(Ng76
tp363
a(I01
(lp364
F0.25949367088607594
aF0.7265625
aF0.3203125
atp365
a(I01
(lp366
F0.25949367088607594
aF0.7265625
aF0.3203125
atp367
a(I01
(lp368
F0.25949367088607594
aF0.7265625
aF0.3203125
atp369
a(I01
(lp370
F0.25949367088607594
aF0.7265625
aF0.3203125
atp371
a(I00
(lp372
F0.5759493670886076
aF0.9140625
aF0.3515625
atp373
a(I00
(lp374
F0.5379746835443038
aF0.3046875
aF0.9921875
atp375
aa(lp376
(I00
(lp377
F0.509493670886076
aF0.3203125
aF0.390625
atp378
a(I00
(lp379
F0.5284810126582279
aF0.859375
aF0.78125
atp380
a(I00
g76
tp381
a(I01
(lp382
F0.18354430379746836
aF0.59375
aF0.6484375
atp383
a(I01
g263
tp384
a(I01
(lp385
F0.18354430379746836
aF0.59375
aF0.6484375
atp386
a(I01
g326
tp387
a(Ng76
tp388
a(I00
g76
tp389
a(Ng76
tp390
a(Ng76
tp391
a(Ng76
tp392
a(I00
g76
tp393
a(I00
(lp394
F0.5759493670886076
aF0.9140625
aF0.3515625
atp395
a(I01
(lp396
F0.25949367088607594
aF0.7265625
aF0.3203125
atp397
a(I01
(lp398
F0.25949367088607594
aF0.7265625
aF0.3203125
atp399
a(I01
(lp400
F0.25949367088607594
aF0.7265625
aF0.3203125
atp401
a(I01
(lp402
F0.25949367088607594
aF0.7265625
aF0.3203125
atp403
a(I00
(lp404
F0.5284810126582279
aF0.859375
aF0.5078125
atp405
a(I01
(lp406
F0.509493670886076
aF0.3203125
aF0.390625
atp407
aa(lp408
(I01
(lp409
F0.509493670886076
aF0.3203125
aF0.171875
atp410
a(I00
(lp411
F0.5379746835443038
aF0.3046875
aF0.9921875
atp412
a(I00
g76
tp413
a(I01
(lp414
F0.10443037974683544
aF0.546875
aF0.8359375
atp415
a(I01
(lp416
F0.18354430379746836
aF0.59375
aF0.6484375
atp417
a(I01
(lp418
F0.10443037974683544
aF0.546875
aF0.8359375
atp419
a(I00
g76
tp420
a(I00
g76
tp421
a(I00
g76
tp422
a(Ng76
tp423
a(Ng76
tp424
a(Ng76
tp425
a(I00
(lp426
F0.5759493670886076
aF0.9140625
aF0.3515625
atp427
a(I00
(lp428
F0.5759493670886076
aF0.9140625
aF0.3515625
atp429
a(I01
(lp430
F0.10443037974683544
aF0.546875
aF0.5
atp431
a(I01
(lp432
F0.10443037974683544
aF0.546875
aF0.5
atp433
a(I01
(lp434
F0.10443037974683544
aF0.546875
aF0.5
atp435
a(I00
(lp436
F0.5759493670886076
aF0.9140625
aF0.3515625
atp437
a(I00
(lp438
F0.5379746835443038
aF0.3046875
aF0.9921875
atp439
a(I01
(lp440
F0.509493670886076
aF0.3203125
aF0.171875
atp441
aa(lp442
(I01
(lp443
F0.689873417721519
aF0.7578125
aF0.0703125
atp444
a(I00
(lp445
F0.509493670886076
aF0.3203125
aF0.390625
atp446
a(I00
g76
tp447
a(I01
g414
tp448
a(I01
g414
tp449
a(I00
g76
tp450
a(I00
g76
tp451
a(I00
g76
tp452
a(I00
g76
tp453
a(Ng76
tp454
a(N(lp455
F0.5759493670886076
aF0.9140625
aF0.3515625
atp456
a(N(lp457
F0.5759493670886076
aF0.9140625
aF0.3515625
atp458
a(I00
(lp459
F0.5759493670886076
aF0.9140625
aF0.3515625
atp460
a(I00
(lp461
F0.5759493670886076
aF0.9140625
aF0.3515625
atp462
a(I01
(lp463
F0.10443037974683544
aF0.546875
aF0.5
atp464
a(I01
(lp465
F0.10443037974683544
aF0.546875
aF0.5
atp466
a(I01
(lp467
F0.25949367088607594
aF0.7265625
aF0.3203125
atp468
a(I00
(lp469
F0.5759493670886076
aF0.9140625
aF0.3515625
atp470
a(I00
(lp471
F0.509493670886076
aF0.3203125
aF0.390625
atp472
a(I01
(lp473
F0.689873417721519
aF0.7578125
aF0.0703125
atp474
aa(lp475
(I01
g443
tp476
a(I01
(lp477
F0.509493670886076
aF0.3203125
aF0.171875
atp478
a(I00
(lp479
F0.5379746835443038
aF0.3046875
aF0.9921875
atp480
a(Ng76
tp481
a(I01
g414
tp482
a(Ng76
tp483
a(I00
g76
tp484
a(I00
g76
tp485
a(I00
(lp486
F0.5759493670886076
aF0.9140625
aF0.3515625
atp487
a(I00
(lp488
F0.5759493670886076
aF0.9140625
aF0.3515625
atp489
a(I00
(lp490
F0.5759493670886076
aF0.9140625
aF0.3515625
atp491
a(I00
(lp492
F0.5759493670886076
aF0.9140625
aF0.3515625
atp493
a(I00
(lp494
F0.5759493670886076
aF0.9140625
aF0.3515625
atp495
a(I00
(lp496
F0.5759493670886076
aF0.9140625
aF0.3515625
atp497
a(N(lp498
F0.5759493670886076
aF0.9140625
aF0.3515625
atp499
a(I01
(lp500
F0.25949367088607594
aF0.7265625
aF0.3203125
atp501
a(I00
(lp502
F0.5759493670886076
aF0.9140625
aF0.3515625
atp503
a(I00
(lp504
F0.5379746835443038
aF0.3046875
aF0.9921875
atp505
a(I01
(lp506
F0.509493670886076
aF0.3203125
aF0.171875
atp507
a(I01
g473
tp508
aa(lp509
(I01
g443
tp510
a(I01
g443
tp511
a(I00
(lp512
F0.509493670886076
aF0.3203125
aF0.390625
atp513
a(I00
(lp514
F0.5284810126582279
aF0.859375
aF0.5078125
atp515
a(I00
(lp516
F0.5759493670886076
aF0.9140625
aF0.3515625
atp517
a(I01
(lp518
F0.10443037974683544
aF0.546875
aF0.5
atp519
a(N(lp520
F0.5759493670886076
aF0.9140625
aF0.3515625
atp521
a(N(lp522
F0.5759493670886076
aF0.9140625
aF0.3515625
atp523
a(N(lp524
F0.5759493670886076
aF0.9140625
aF0.3515625
atp525
a(I00
(lp526
F0.5759493670886076
aF0.9140625
aF0.3515625
atp527
a(I00
(lp528
F0.5759493670886076
aF0.9140625
aF0.3515625
atp529
a(I00
(lp530
F0.5759493670886076
aF0.9140625
aF0.3515625
atp531
a(I00
(lp532
F0.5759493670886076
aF0.9140625
aF0.3515625
atp533
a(I00
(lp534
F0.5759493670886076
aF0.9140625
aF0.3515625
atp535
a(N(lp536
F0.5759493670886076
aF0.9140625
aF0.3515625
atp537
a(I00
(lp538
F0.5759493670886076
aF0.9140625
aF0.3515625
atp539
a(N(lp540
F0.5284810126582279
aF0.859375
aF0.5078125
atp541
a(I00
(lp542
F0.509493670886076
aF0.3203125
aF0.390625
atp543
a(I01
g473
tp544
a(I01
g473
tp545
aa(lp546
(I01
g443
tp547
a(I01
g443
tp548
a(I01
g443
tp549
a(I00
(lp550
F0.509493670886076
aF0.3203125
aF0.390625
atp551
a(I00
(lp552
F0.5379746835443038
aF0.3046875
aF0.9921875
atp553
a(N(lp554
F0.5284810126582279
aF0.859375
aF0.5078125
atp555
a(N(lp556
F0.5759493670886076
aF0.9140625
aF0.3515625
atp557
a(N(lp558
F0.5759493670886076
aF0.9140625
aF0.3515625
atp559
a(I01
(lp560
F0.439873417721519
aF0.109375
aF0.4765625
atp561
a(N(lp562
F0.5759493670886076
aF0.9140625
aF0.3515625
atp563
a(N(lp564
F0.5759493670886076
aF0.9140625
aF0.3515625
atp565
a(N(lp566
F0.5759493670886076
aF0.9140625
aF0.3515625
atp567
a(N(lp568
F0.5759493670886076
aF0.9140625
aF0.3515625
atp569
a(N(lp570
F0.5759493670886076
aF0.9140625
aF0.3515625
atp571
a(N(lp572
F0.5284810126582279
aF0.859375
aF0.5078125
atp573
a(I00
(lp574
F0.5379746835443038
aF0.3046875
aF0.9921875
atp575
a(I00
(lp576
F0.509493670886076
aF0.3203125
aF0.390625
atp577
a(I01
g473
tp578
a(I01
g473
tp579
a(I01
g473
tp580
aa(lp581
(I01
g443
tp582
a(I01
g443
tp583
a(I01
g443
tp584
a(I01
g443
tp585
a(I01
(lp586
F0.509493670886076
aF0.3203125
aF0.171875
atp587
a(I00
(lp588
F0.509493670886076
aF0.3203125
aF0.390625
atp589
a(I00
(lp590
F0.5379746835443038
aF0.3046875
aF0.9921875
atp591
a(I01
(lp592
F0.439873417721519
aF0.109375
aF0.4765625
atp593
a(I01
(lp594
F0.439873417721519
aF0.109375
aF0.4765625
atp595
a(I01
(lp596
F0.439873417721519
aF0.109375
aF0.4765625
atp597
a(I01
(lp598
F0.439873417721519
aF0.109375
aF0.4765625
atp599
a(I01
(lp600
F0.439873417721519
aF0.109375
aF0.4765625
atp601
a(I01
(lp602
F0.439873417721519
aF0.109375
aF0.4765625
atp603
a(I00
(lp604
F0.5379746835443038
aF0.3046875
aF0.9921875
atp605
a(I00
(lp606
F0.509493670886076
aF0.3203125
aF0.390625
atp607
a(I01
(lp608
F0.509493670886076
aF0.3203125
aF0.171875
atp609
a(I01
g473
tp610
a(I01
g473
tp611
a(I01
g473
tp612
a(I01
g473
tp613
aa(lp614
(I01
g443
tp615
a(I01
g443
tp616
a(I01
g443
tp617
a(I01
g443
tp618
a(I01
g443
tp619
a(I01
g443
tp620
a(I01
(lp621
F0.509493670886076
aF0.3203125
aF0.171875
atp622
a(I00
(lp623
F0.509493670886076
aF0.3203125
aF0.390625
atp624
a(I00
(lp625
F0.5379746835443038
aF0.3046875
aF0.9921875
atp626
a(I00
(lp627
F0.5379746835443038
aF0.3046875
aF0.9921875
atp628
a(I00
(lp629
F0.5379746835443038
aF0.3046875
aF0.9921875
atp630
a(I00
(lp631
F0.5379746835443038
aF0.3046875
aF0.9921875
atp632
a(I00
(lp633
F0.509493670886076
aF0.3203125
aF0.390625
atp634
a(I01
(lp635
F0.509493670886076
aF0.3203125
aF0.171875
atp636
a(I01
g473
tp637
a(I01
g473
tp638
a(I01
g473
tp639
a(I01
g473
tp640
a(I01
g473
tp641
a(I01
g473
tp642
aasS'height'
p643
I20
sS'width'
p644
I20
sS'column_numbers'
p645
(lp646
(I7
I7
tp647
a(I5
I2
I5
tp648
a(I3
I2
I4
I3
tp649
a(I2
I4
I6
I2
tp650
a(I2
I5
I7
I2
tp651
a(I1
I2
I4
I1
I1
tp652
a(I1
I3
I3
I1
tp653
a(I1
I1
tp654
a(I2
tp655
a(I2
I1
tp656
a(I1
I1
I1
tp657
a(I3
I1
tp658
a(I1
I1
I4
I1
tp659
a(I1
I2
I5
I1
tp660
a(I1
I3
I9
I1
tp661
a(I2
I2
I10
I2
tp662
a(I2
I12
I2
tp663
a(I3
I8
I3
tp664
a(I5
I4
I5
tp665
a(I7
I8
tp666
asS'background'
p667
S'blue'
p668
sb.