ccopy_reg
_reconstructor
p1
(cpuzzle
Pack
p2
c__builtin__
object
p3
NtRp4
(dp5
S'uuid'
p6
S'29b59843-1eba-481e-8e2c-51e9923992c7'
p7
sS'author_name'
p8
VStompy Blondie
p9
sS'name'
p10
VTutorial
p11
sS'puzzles'
p12
(dp13
S'0001.puz'
p14
(lp15
VGarden Faucet
p16
aI5
aI5
assS'author_id'
p17
S'dc4d7a02-662f-404d-9bc5-d6dda5513a63'
p18
sS'order'
p19
(lp20
g14
asS'freemode'
p21
I00
sb.