ccopy_reg
_reconstructor
p0
(cpuzzle
Puzzle
p1
c__builtin__
object
p2
Ntp3
Rp4
(dp5
S'row_numbers'
p6
(lp7
(I15
tp8
a(I3
tp9
a(I1
I2
I2
I2
I2
tp10
a(I1
I1
I2
tp11
a(I2
I2
tp12
a(I2
I1
I1
tp13
a(I2
I2
I2
I2
I1
tp14
a(I2
I1
I1
tp15
a(I2
I2
I2
I1
tp16
a(I2
I1
I3
I1
tp17
a(I2
I2
I2
I1
tp18
a(I2
I3
tp19
a(I3
I2
I2
tp20
a(I1
I1
tp21
a(I15
tp22
asS'name'
p23
VTreasure Map
p24
sS'cells'
p25
(lp26
(lp27
(I01
(lp28
F0.5474683544303798
aF0.421875
aF0.953125
atp29
a(I01
(lp30
F0.5474683544303798
aF0.421875
aF0.953125
atp31
a(I01
(lp32
F0.5474683544303798
aF0.421875
aF0.953125
atp33
a(I01
(lp34
F0.5474683544303798
aF0.421875
aF0.953125
atp35
a(I01
(lp36
F0.5474683544303798
aF0.421875
aF0.953125
atp37
a(I01
(lp38
F0.5474683544303798
aF0.421875
aF0.953125
atp39
a(I01
(lp40
F0.5474683544303798
aF0.421875
aF0.953125
atp41
a(I01
(lp42
F0.5474683544303798
aF0.421875
aF0.953125
atp43
a(I01
(lp44
F0.5474683544303798
aF0.421875
aF0.953125
atp45
a(I01
(lp46
F0.5474683544303798
aF0.421875
aF0.953125
atp47
a(I01
(lp48
F0.5474683544303798
aF0.421875
aF0.953125
atp49
a(I01
(lp50
F0.5474683544303798
aF0.421875
aF0.953125
atp51
a(I01
(lp52
F0.5474683544303798
aF0.421875
aF0.953125
atp53
a(I01
(lp54
F0.5474683544303798
aF0.421875
aF0.953125
atp55
a(I01
(lp56
F0.5474683544303798
aF0.421875
aF0.953125
atp57
aa(lp58
(I00
(lp59
F0.16139240506329114
aF0.3046875
aF0.8203125
atp60
a(I00
(lp61
F0.16139240506329114
aF0.3046875
aF0.8203125
atp62
a(I00
(lp63
F0.16139240506329114
aF0.3046875
aF0.8203125
atp64
a(I00
(lp65
F0.16139240506329114
aF0.3046875
aF0.8203125
atp66
a(I00
(lp67
F0.16139240506329114
aF0.3046875
aF0.8203125
atp68
a(I00
(lp69
F0.16139240506329114
aF0.3046875
aF0.8203125
atp70
a(I00
(lp71
F0.16139240506329114
aF0.3046875
aF0.8203125
atp72
a(I00
(lp73
F0.16139240506329114
aF0.3046875
aF0.8203125
atp74
a(I00
(lp75
F0.16139240506329114
aF0.3046875
aF0.8203125
atp76
a(I00
(lp77
F0.16139240506329114
aF0.3046875
aF0.8203125
atp78
a(I00
(lp79
F0.16139240506329114
aF0.3046875
aF0.8203125
atp80
a(I00
(lp81
F0.16139240506329114
aF0.3046875
aF0.8203125
atp82
a(I01
(lp83
F0.5474683544303798
aF0.421875
aF0.953125
atp84
a(I01
(lp85
F0.5474683544303798
aF0.421875
aF0.953125
atp86
a(I01
(lp87
F0.5474683544303798
aF0.421875
aF0.953125
atp88
aa(lp89
(I01
(lp90
F0.5379746835443038
aF0.3203125
aF0.953125
atp91
a(I00
(lp92
F0.16139240506329114
aF0.3046875
aF0.8828125
atp93
a(I00
(lp94
F0.16139240506329114
aF0.3046875
aF0.8828125
atp95
a(I01
(lp96
F0.16139240506329114
aF0.3046875
aF0.5
atp97
a(I01
(lp98
F0.16139240506329114
aF0.3046875
aF0.5
atp99
a(I00
(lp100
F0.16139240506329114
aF0.3046875
aF0.8828125
atp101
a(I01
(lp102
F0.16139240506329114
aF0.3046875
aF0.5
atp103
a(I01
(lp104
F0.16139240506329114
aF0.3046875
aF0.5
atp105
a(I00
(lp106
F0.16139240506329114
aF0.3046875
aF0.8828125
atp107
a(I01
(lp108
F0.16139240506329114
aF0.3046875
aF0.5
atp109
a(I01
(lp110
F0.16139240506329114
aF0.3046875
aF0.5
atp111
a(I00
(lp112
F0.16139240506329114
aF0.3046875
aF0.8828125
atp113
a(I00
(lp114
F0.16139240506329114
aF0.3046875
aF0.8828125
atp115
a(I01
(lp116
F0.5379746835443038
aF0.3203125
aF0.953125
atp117
a(I01
(lp118
F0.5379746835443038
aF0.3203125
aF0.953125
atp119
aa(lp120
(I01
(lp121
F0.5379746835443038
aF0.3203125
aF0.953125
atp122
a(I00
(lp123
F0.16139240506329114
aF0.3046875
aF0.8828125
atp124
a(I00
(lp125
F0.16139240506329114
aF0.3046875
aF0.8828125
atp126
a(I00
(lp127
F0.16139240506329114
aF0.3046875
aF0.8828125
atp128
a(I00
(lp129
F0.16139240506329114
aF0.3046875
aF0.8828125
atp130
a(I00
(lp131
F0.16139240506329114
aF0.3046875
aF0.8828125
atp132
a(I00
(lp133
F0.16139240506329114
aF0.3046875
aF0.8828125
atp134
a(I00
(lp135
F0.16139240506329114
aF0.3046875
aF0.8828125
atp136
a(I00
(lp137
F0.16139240506329114
aF0.3046875
aF0.8828125
atp138
a(I00
(lp139
F0.16139240506329114
aF0.3046875
aF0.8828125
atp140
a(I01
(lp141
F0.16139240506329114
aF0.3046875
aF0.5
atp142
a(I00
(lp143
F0.16139240506329114
aF0.3046875
aF0.8828125
atp144
a(I00
(lp145
F0.16139240506329114
aF0.3046875
aF0.8828125
atp146
a(I01
(lp147
F0.5379746835443038
aF0.3203125
aF0.953125
atp148
a(I01
(lp149
F0.5379746835443038
aF0.3203125
aF0.953125
atp150
aa(lp151
(I01
(lp152
F0.5379746835443038
aF0.234375
aF0.953125
atp153
a(I01
(lp154
F0.5379746835443038
aF0.234375
aF0.953125
atp155
a(I00
(lp156
F0.16139240506329114
aF0.3046875
aF0.8828125
atp157
a(I00
(lp158
F0.16139240506329114
aF0.3046875
aF0.8828125
atp159
a(I00
(lp160
F0.16139240506329114
aF0.3046875
aF0.8828125
atp161
a(I00
(lp162
F0.16139240506329114
aF0.3046875
aF0.8828125
atp163
a(I00
(lp164
F0.16139240506329114
aF0.3046875
aF0.8828125
atp165
a(I00
(lp166
F0.16139240506329114
aF0.3046875
aF0.8828125
atp167
a(I00
(lp168
F0.16139240506329114
aF0.3046875
aF0.8828125
atp169
a(I00
(lp170
F0.16139240506329114
aF0.3046875
aF0.8828125
atp171
a(I00
(lp172
F0.16139240506329114
aF0.3046875
aF0.8828125
atp173
a(I00
(lp174
F0.16139240506329114
aF0.3046875
aF0.8828125
atp175
a(I00
(lp176
F0.16139240506329114
aF0.3046875
aF0.8828125
atp177
a(I01
(lp178
F0.5379746835443038
aF0.234375
aF0.953125
atp179
a(I01
(lp180
F0.5379746835443038
aF0.234375
aF0.953125
atp181
aa(lp182
(I01
(lp183
F0.5348101265822784
aF0.1484375
aF0.953125
atp184
a(I01
(lp185
F0.5348101265822784
aF0.1484375
aF0.953125
atp186
a(I00
(lp187
F0.16139240506329114
aF0.3046875
aF0.8828125
atp188
a(I00
(lp189
F0.16139240506329114
aF0.3046875
aF0.8828125
atp190
a(I00
(lp191
F0.16139240506329114
aF0.3046875
aF0.8828125
atp192
a(I00
(lp193
F0.16139240506329114
aF0.3046875
aF0.8828125
atp194
a(I00
(lp195
F0.16139240506329114
aF0.3046875
aF0.8828125
atp196
a(I00
(lp197
F0.16139240506329114
aF0.3046875
aF0.8828125
atp198
a(I00
(lp199
F0.16139240506329114
aF0.3046875
aF0.8828125
atp200
a(I00
(lp201
F0.16139240506329114
aF0.3046875
aF0.8828125
atp202
a(I00
(lp203
F0.16139240506329114
aF0.3046875
aF0.8828125
atp204
a(I01
(lp205
F0.16139240506329114
aF0.3046875
aF0.5
atp206
a(I00
(lp207
F0.16139240506329114
aF0.3046875
aF0.8828125
atp208
a(I00
(lp209
F0.16139240506329114
aF0.3046875
aF0.8828125
atp210
a(I01
(lp211
F0.5348101265822784
aF0.1484375
aF0.953125
atp212
aa(lp213
(I01
(lp214
F0.5316455696202531
aF0.0859375
aF0.953125
atp215
a(I01
(lp216
F0.5316455696202531
aF0.0859375
aF0.953125
atp217
a(I00
(lp218
F0.16139240506329114
aF0.3046875
aF0.8828125
atp219
a(I00
(lp220
F0.16139240506329114
aF0.3046875
aF0.8828125
atp221
a(I01
(lp222
F0.16139240506329114
aF0.3046875
aF0.5
atp223
a(I01
(lp224
F0.16139240506329114
aF0.3046875
aF0.5
atp225
a(I00
(lp226
F0.16139240506329114
aF0.3046875
aF0.8828125
atp227
a(I01
(lp228
F0.16139240506329114
aF0.3046875
aF0.5
atp229
a(I01
(lp230
F0.16139240506329114
aF0.3046875
aF0.5
atp231
a(I00
(lp232
F0.16139240506329114
aF0.3046875
aF0.8828125
atp233
a(I01
(lp234
F0.16139240506329114
aF0.3046875
aF0.5
atp235
a(I01
(lp236
F0.16139240506329114
aF0.3046875
aF0.5
atp237
a(I00
(lp238
F0.16139240506329114
aF0.3046875
aF0.8828125
atp239
a(I00
(lp240
F0.16139240506329114
aF0.3046875
aF0.8828125
atp241
a(I01
(lp242
F0.5316455696202531
aF0.0859375
aF0.953125
atp243
aa(lp244
(I01
(lp245
F0.560126582278481
aF0.265625
aF0.640625
atp246
a(I01
(lp247
F0.560126582278481
aF0.265625
aF0.640625
atp248
a(I00
(lp249
F0.16139240506329114
aF0.3046875
aF0.8828125
atp250
a(I00
(lp251
F0.16139240506329114
aF0.3046875
aF0.8828125
atp252
a(I01
(lp253
F0.16139240506329114
aF0.3046875
aF0.5
atp254
a(I00
(lp255
F0.16139240506329114
aF0.3046875
aF0.8828125
atp256
a(I00
(lp257
F0.16139240506329114
aF0.3046875
aF0.8828125
atp258
a(I00
(lp259
F0.16139240506329114
aF0.3046875
aF0.8828125
atp260
a(I00
(lp261
F0.16139240506329114
aF0.3046875
aF0.8828125
atp262
a(I00
(lp263
F0.16139240506329114
aF0.3046875
aF0.8828125
atp264
a(I00
(lp265
F0.16139240506329114
aF0.3046875
aF0.8828125
atp266
a(I00
(lp267
F0.16139240506329114
aF0.3046875
aF0.8828125
atp268
a(I00
(lp269
F0.16139240506329114
aF0.3046875
aF0.8828125
atp270
a(I00
(lp271
F0.16139240506329114
aF0.3046875
aF0.8828125
atp272
a(I01
(lp273
F0.560126582278481
aF0.265625
aF0.640625
atp274
aa(lp275
(I01
(lp276
F0.560126582278481
aF0.265625
aF0.578125
atp277
a(I01
(lp278
F0.560126582278481
aF0.265625
aF0.578125
atp279
a(I00
(lp280
F0.16139240506329114
aF0.3046875
aF0.8828125
atp281
a(I00
(lp282
F0.16139240506329114
aF0.3046875
aF0.8828125
atp283
a(I00
(lp284
F0.16139240506329114
aF0.3046875
aF0.8828125
atp285
a(I00
(lp286
F0.16139240506329114
aF0.3046875
aF0.8828125
atp287
a(I00
(lp288
F0.16139240506329114
aF0.3046875
aF0.8828125
atp289
a(I00
(lp290
F0.16139240506329114
aF0.3046875
aF0.8828125
atp291
a(I01
(lp292
F0.0379746835443038
aF0.7265625
aF0.703125
atp293
a(I01
(lp294
F0.0379746835443038
aF0.7265625
aF0.703125
atp295
a(I00
(lp296
F0.16139240506329114
aF0.3046875
aF0.8828125
atp297
a(I01
(lp298
F0.0379746835443038
aF0.7265625
aF0.703125
atp299
a(I01
(lp300
F0.0379746835443038
aF0.7265625
aF0.703125
atp301
a(I00
(lp302
F0.16139240506329114
aF0.3046875
aF0.8828125
atp303
a(I01
(lp304
F0.560126582278481
aF0.265625
aF0.578125
atp305
aa(lp306
(I01
(lp307
F0.560126582278481
aF0.265625
aF0.515625
atp308
a(I01
(lp309
F0.560126582278481
aF0.265625
aF0.515625
atp310
a(I00
(lp311
F0.16139240506329114
aF0.3046875
aF0.8828125
atp312
a(I01
(lp313
F0.16139240506329114
aF0.3046875
aF0.5
atp314
a(I00
(lp315
F0.16139240506329114
aF0.3046875
aF0.8828125
atp316
a(I00
(lp317
F0.16139240506329114
aF0.3046875
aF0.8828125
atp318
a(I00
(lp319
F0.16139240506329114
aF0.3046875
aF0.8828125
atp320
a(I00
(lp321
F0.16139240506329114
aF0.3046875
aF0.8828125
atp322
a(I00
(lp323
F0.16139240506329114
aF0.3046875
aF0.8828125
atp324
a(I01
(lp325
F0.0379746835443038
aF0.7265625
aF0.703125
atp326
a(I01
(lp327
F0.0379746835443038
aF0.7265625
aF0.703125
atp328
a(I01
(lp329
F0.0379746835443038
aF0.7265625
aF0.703125
atp330
a(I00
(lp331
F0.16139240506329114
aF0.3046875
aF0.8828125
atp332
a(I00
(lp333
F0.16139240506329114
aF0.3046875
aF0.8828125
atp334
a(I01
(lp335
F0.560126582278481
aF0.265625
aF0.515625
atp336
aa(lp337
(I01
(lp338
F0.560126582278481
aF0.265625
aF0.515625
atp339
a(I01
(lp340
F0.560126582278481
aF0.265625
aF0.515625
atp341
a(I00
(lp342
F0.16139240506329114
aF0.3046875
aF0.8828125
atp343
a(I01
(lp344
F0.16139240506329114
aF0.3046875
aF0.5
atp345
a(I01
(lp346
F0.16139240506329114
aF0.3046875
aF0.5
atp347
a(I00
(lp348
F0.16139240506329114
aF0.3046875
aF0.8828125
atp349
a(I01
(lp350
F0.16139240506329114
aF0.3046875
aF0.5
atp351
a(I01
(lp352
F0.16139240506329114
aF0.3046875
aF0.5
atp353
a(I00
(lp354
F0.16139240506329114
aF0.3046875
aF0.8828125
atp355
a(I00
(lp356
F0.16139240506329114
aF0.3046875
aF0.8828125
atp357
a(I01
(lp358
F0.0379746835443038
aF0.7265625
aF0.703125
atp359
a(I00
(lp360
F0.16139240506329114
aF0.3046875
aF0.8828125
atp361
a(I00
(lp362
F0.16139240506329114
aF0.3046875
aF0.8828125
atp363
a(I00
(lp364
F0.16139240506329114
aF0.3046875
aF0.8828125
atp365
a(I00
(lp366
F0.16139240506329114
aF0.3046875
aF0.8828125
atp367
aa(lp368
(I01
(lp369
F0.560126582278481
aF0.265625
aF0.46875
atp370
a(I01
(lp371
F0.560126582278481
aF0.265625
aF0.46875
atp372
a(I00
(lp373
F0.16139240506329114
aF0.3046875
aF0.8203125
atp374
a(I00
(lp375
F0.16139240506329114
aF0.3046875
aF0.8203125
atp376
a(I00
(lp377
F0.16139240506329114
aF0.3046875
aF0.8203125
atp378
a(I00
(lp379
F0.16139240506329114
aF0.3046875
aF0.8203125
atp380
a(I00
(lp381
F0.16139240506329114
aF0.3046875
aF0.8203125
atp382
a(I00
(lp383
F0.16139240506329114
aF0.3046875
aF0.8203125
atp384
a(I00
(lp385
F0.16139240506329114
aF0.3046875
aF0.8203125
atp386
a(I01
(lp387
F0.0379746835443038
aF0.7265625
aF0.703125
atp388
a(I01
(lp389
F0.0379746835443038
aF0.7265625
aF0.703125
atp390
a(I01
(lp391
F0.0379746835443038
aF0.7265625
aF0.703125
atp392
a(I00
(lp393
F0.16139240506329114
aF0.3046875
aF0.8203125
atp394
a(I00
(lp395
F0.16139240506329114
aF0.3046875
aF0.8203125
atp396
a(I00
(lp397
F0.16139240506329114
aF0.3046875
aF0.8203125
atp398
aa(lp399
(I01
(lp400
F0.560126582278481
aF0.265625
aF0.46875
atp401
a(I01
(lp402
F0.560126582278481
aF0.265625
aF0.46875
atp403
a(I01
(lp404
F0.560126582278481
aF0.265625
aF0.46875
atp405
a(I00
(lp406
F0.16139240506329114
aF0.3046875
aF0.7890625
atp407
a(I00
(lp408
F0.16139240506329114
aF0.3046875
aF0.7890625
atp409
a(I00
(lp410
F0.16139240506329114
aF0.3046875
aF0.7890625
atp411
a(I00
(lp412
F0.16139240506329114
aF0.3046875
aF0.7890625
atp413
a(I00
(lp414
F0.16139240506329114
aF0.3046875
aF0.7890625
atp415
a(I01
(lp416
F0.0379746835443038
aF0.7265625
aF0.703125
atp417
a(I01
(lp418
F0.0379746835443038
aF0.7265625
aF0.703125
atp419
a(I00
(lp420
F0.16139240506329114
aF0.3046875
aF0.7890625
atp421
a(I01
(lp422
F0.0379746835443038
aF0.7265625
aF0.703125
atp423
a(I01
(lp424
F0.0379746835443038
aF0.7265625
aF0.703125
atp425
a(I00
(lp426
F0.16139240506329114
aF0.3046875
aF0.7890625
atp427
a(I00
(lp428
F0.16139240506329114
aF0.3046875
aF0.7890625
atp429
aa(lp430
(I01
(lp431
F0.5664556962025317
aF0.4140625
aF0.4609375
atp432
a(I00
(lp433
F0.16139240506329114
aF0.3046875
aF0.6953125
atp434
a(I00
(lp435
F0.16139240506329114
aF0.3046875
aF0.6953125
atp436
a(I00
(lp437
F0.16139240506329114
aF0.3046875
aF0.6953125
atp438
a(I00
(lp439
F0.16139240506329114
aF0.3046875
aF0.6953125
atp440
a(I00
(lp441
F0.16139240506329114
aF0.3046875
aF0.6953125
atp442
a(I00
(lp443
F0.16139240506329114
aF0.3046875
aF0.6953125
atp444
a(I00
(lp445
F0.16139240506329114
aF0.3046875
aF0.6953125
atp446
a(I00
(lp447
F0.16139240506329114
aF0.3046875
aF0.6953125
atp448
a(I00
(lp449
F0.16139240506329114
aF0.3046875
aF0.6953125
atp450
a(I00
(lp451
F0.16139240506329114
aF0.3046875
aF0.6953125
atp452
a(I00
(lp453
F0.16139240506329114
aF0.3046875
aF0.6953125
atp454
a(I00
(lp455
F0.16139240506329114
aF0.3046875
aF0.6953125
atp456
a(I00
(lp457
F0.16139240506329114
aF0.3046875
aF0.6953125
atp458
a(I01
(lp459
F0.5664556962025317
aF0.4140625
aF0.4609375
atp460
aa(lp461
(I01
(lp462
F0.5664556962025317
aF0.4140625
aF0.4609375
atp463
a(I01
(lp464
F0.5664556962025317
aF0.4140625
aF0.4609375
atp465
a(I01
(lp466
F0.5664556962025317
aF0.4140625
aF0.4609375
atp467
a(I01
(lp468
F0.5664556962025317
aF0.4140625
aF0.4609375
atp469
a(I01
(lp470
F0.5664556962025317
aF0.4140625
aF0.4609375
atp471
a(I01
(lp472
F0.5664556962025317
aF0.4140625
aF0.4609375
atp473
a(I01
(lp474
F0.5664556962025317
aF0.4140625
aF0.4609375
atp475
a(I01
(lp476
F0.5664556962025317
aF0.4140625
aF0.4609375
atp477
a(I01
(lp478
F0.5664556962025317
aF0.4140625
aF0.4609375
atp479
a(I01
(lp480
F0.5664556962025317
aF0.4140625
aF0.4609375
atp481
a(I01
(lp482
F0.5664556962025317
aF0.4140625
aF0.4609375
atp483
a(I01
(lp484
F0.5664556962025317
aF0.4140625
aF0.4609375
atp485
a(I01
(lp486
F0.5664556962025317
aF0.4140625
aF0.4609375
atp487
a(I01
(lp488
F0.5664556962025317
aF0.4140625
aF0.4609375
atp489
a(I01
(lp490
F0.5664556962025317
aF0.4140625
aF0.4609375
atp491
aasS'height'
p492
I15
sS'width'
p493
I15
sS'column_numbers'
p494
(lp495
(I1
I13
tp496
a(I1
I9
I1
tp497
a(I1
I1
I1
tp498
a(I1
I1
I2
I1
tp499
a(I1
I1
I2
I1
I1
tp500
a(I1
I1
I1
tp501
a(I1
I1
I1
I1
tp502
a(I1
I1
I1
I1
I1
tp503
a(I1
I1
I1
I1
I1
tp504
a(I1
I1
I2
I2
I1
tp505
a(I1
I2
I1
I3
I1
tp506
a(I1
I2
I2
I2
I1
tp507
a(I2
I1
I1
I1
tp508
a(I5
I1
tp509
a(I10
I2
tp510
asS'background'
p511
S'blue'
p512
sb.