ccopy_reg
_reconstructor
p0
(cpuzzle
Puzzle
p1
c__builtin__
object
p2
Ntp3
Rp4
(dp5
S'row_numbers'
p6
(lp7
(I6
I2
I6
tp8
a(I2
I4
I2
I4
I2
tp9
a(I2
I2
I2
I2
I2
tp10
a(I2
I2
I2
I2
I2
tp11
a(I4
I2
I2
I2
I4
tp12
a(I2
tp13
a(I20
tp14
a(I20
tp15
a(I2
tp16
a(I4
I2
I2
I2
I4
tp17
a(I2
I2
I2
I2
I2
tp18
a(I2
I2
I2
I2
I2
tp19
a(I2
I4
I2
I4
I2
tp20
a(I6
I2
I6
tp21
a(I8
I2
I8
tp22
asS'name'
p23
VUnion Jack
p24
sS'cells'
p25
(lp26
(lp27
(N(lp28
F0.0031645569620253164
aF0.0234375
aF0.921875
atp29
a(I00
(lp30
F0.0031645569620253164
aF0.0234375
aF0.921875
atp31
a(I01
(lp32
F0.6582278481012658
aF0.609375
aF0.4140625
atp33
a(I01
(lp34
F0.6582278481012658
aF0.609375
aF0.4140625
atp35
a(I01
(lp36
F0.6582278481012658
aF0.609375
aF0.4140625
atp37
a(I01
(lp38
F0.6582278481012658
aF0.609375
aF0.4140625
atp39
a(I01
(lp40
F0.6582278481012658
aF0.609375
aF0.4140625
atp41
a(I01
(lp42
F0.6582278481012658
aF0.609375
aF0.4140625
atp43
a(N(lp44
F0.0031645569620253164
aF0.0234375
aF0.921875
atp45
a(I01
(lp46
F0.006329113924050633
aF0.765625
aF0.7421875
atp47
a(I01
(lp48
F0.006329113924050633
aF0.765625
aF0.7421875
atp49
a(N(lp50
F0.0031645569620253164
aF0.0234375
aF0.921875
atp51
a(I01
(lp52
F0.6582278481012658
aF0.609375
aF0.4140625
atp53
a(I01
(lp54
F0.6582278481012658
aF0.609375
aF0.4140625
atp55
a(I01
(lp56
F0.6582278481012658
aF0.609375
aF0.4140625
atp57
a(I01
(lp58
F0.6582278481012658
aF0.609375
aF0.4140625
atp59
a(I01
(lp60
F0.6582278481012658
aF0.609375
aF0.4140625
atp61
a(I01
(lp62
F0.6582278481012658
aF0.609375
aF0.4140625
atp63
a(I00
(lp64
F0.0031645569620253164
aF0.0234375
aF0.921875
atp65
a(I00
(lp66
F0.0031645569620253164
aF0.0234375
aF0.921875
atp67
aa(lp68
(I01
(lp69
F0.006329113924050633
aF0.765625
aF0.7421875
atp70
a(I01
(lp71
F0.006329113924050633
aF0.765625
aF0.7421875
atp72
a(N(lp73
F0.0031645569620253164
aF0.0234375
aF0.921875
atp74
a(N(lp75
F0.0031645569620253164
aF0.0234375
aF0.921875
atp76
a(I01
(lp77
F0.6582278481012658
aF0.609375
aF0.4140625
atp78
a(I01
(lp79
F0.6582278481012658
aF0.609375
aF0.4140625
atp80
a(I01
(lp81
F0.6582278481012658
aF0.609375
aF0.4140625
atp82
a(I01
(lp83
F0.6582278481012658
aF0.609375
aF0.4140625
atp84
a(N(lp85
F0.0031645569620253164
aF0.0234375
aF0.921875
atp86
a(I01
(lp87
F0.006329113924050633
aF0.765625
aF0.7421875
atp88
a(I01
(lp89
F0.006329113924050633
aF0.765625
aF0.7421875
atp90
a(I00
(lp91
F0.0031645569620253164
aF0.0234375
aF0.921875
atp92
a(I01
(lp93
F0.6582278481012658
aF0.609375
aF0.4140625
atp94
a(I01
(lp95
F0.6582278481012658
aF0.609375
aF0.4140625
atp96
a(I01
(lp97
F0.6582278481012658
aF0.609375
aF0.4140625
atp98
a(I01
(lp99
F0.6582278481012658
aF0.609375
aF0.4140625
atp100
a(I00
(lp101
F0.0031645569620253164
aF0.0234375
aF0.921875
atp102
a(I00
(lp103
F0.0031645569620253164
aF0.0234375
aF0.921875
atp104
a(I01
(lp105
F0.006329113924050633
aF0.765625
aF0.7421875
atp106
a(I01
(lp107
F0.006329113924050633
aF0.765625
aF0.7421875
atp108
aa(lp109
(N(lp110
F0.0031645569620253164
aF0.0234375
aF0.921875
atp111
a(N(lp112
F0.0031645569620253164
aF0.0234375
aF0.921875
atp113
a(I01
(lp114
F0.006329113924050633
aF0.765625
aF0.7421875
atp115
a(I01
(lp116
F0.006329113924050633
aF0.765625
aF0.7421875
atp117
a(N(lp118
F0.0031645569620253164
aF0.0234375
aF0.921875
atp119
a(I00
(lp120
F0.0031645569620253164
aF0.0234375
aF0.921875
atp121
a(I01
(lp122
F0.6582278481012658
aF0.609375
aF0.4140625
atp123
a(I01
(lp124
F0.6582278481012658
aF0.609375
aF0.4140625
atp125
a(N(lp126
F0.0031645569620253164
aF0.0234375
aF0.921875
atp127
a(I01
(lp128
F0.006329113924050633
aF0.765625
aF0.7421875
atp129
a(I01
(lp130
F0.006329113924050633
aF0.765625
aF0.7421875
atp131
a(N(lp132
F0.0031645569620253164
aF0.0234375
aF0.921875
atp133
a(I01
(lp134
F0.6582278481012658
aF0.609375
aF0.4140625
atp135
a(I01
(lp136
F0.6582278481012658
aF0.609375
aF0.4140625
atp137
a(N(lp138
F0.0031645569620253164
aF0.0234375
aF0.921875
atp139
a(I00
(lp140
F0.0031645569620253164
aF0.0234375
aF0.921875
atp141
a(I01
(lp142
F0.006329113924050633
aF0.765625
aF0.7421875
atp143
a(I01
(lp144
F0.006329113924050633
aF0.765625
aF0.7421875
atp145
a(I00
(lp146
F0.0031645569620253164
aF0.0234375
aF0.921875
atp147
a(I00
(lp148
F0.0031645569620253164
aF0.0234375
aF0.921875
atp149
aa(lp150
(I01
(lp151
F0.6582278481012658
aF0.609375
aF0.4140625
atp152
a(I01
(lp153
F0.6582278481012658
aF0.609375
aF0.4140625
atp154
a(I00
(lp155
F0.0031645569620253164
aF0.0234375
aF0.921875
atp156
a(I00
(lp157
F0.0031645569620253164
aF0.0234375
aF0.921875
atp158
a(I01
(lp159
F0.006329113924050633
aF0.765625
aF0.7421875
atp160
a(I01
(lp161
F0.006329113924050633
aF0.765625
aF0.7421875
atp162
a(N(lp163
F0.0031645569620253164
aF0.0234375
aF0.921875
atp164
a(N(lp165
F0.0031645569620253164
aF0.0234375
aF0.921875
atp166
a(N(lp167
F0.0031645569620253164
aF0.0234375
aF0.921875
atp168
a(I01
(lp169
F0.006329113924050633
aF0.765625
aF0.7421875
atp170
a(I01
(lp171
F0.006329113924050633
aF0.765625
aF0.7421875
atp172
a(I00
(lp173
F0.0031645569620253164
aF0.0234375
aF0.921875
atp174
a(I00
(lp175
F0.0031645569620253164
aF0.0234375
aF0.921875
atp176
a(I00
(lp177
F0.0031645569620253164
aF0.0234375
aF0.921875
atp178
a(I01
(lp179
F0.006329113924050633
aF0.765625
aF0.7421875
atp180
a(I01
(lp181
F0.006329113924050633
aF0.765625
aF0.7421875
atp182
a(I00
(lp183
F0.0031645569620253164
aF0.0234375
aF0.921875
atp184
a(I00
(lp185
F0.0031645569620253164
aF0.0234375
aF0.921875
atp186
a(I01
(lp187
F0.6582278481012658
aF0.609375
aF0.4140625
atp188
a(I01
(lp189
F0.6582278481012658
aF0.609375
aF0.4140625
atp190
aa(lp191
(I01
(lp192
F0.6582278481012658
aF0.609375
aF0.4140625
atp193
a(I01
(lp194
F0.6582278481012658
aF0.609375
aF0.4140625
atp195
a(I01
(lp196
F0.6582278481012658
aF0.609375
aF0.4140625
atp197
a(I01
(lp198
F0.6582278481012658
aF0.609375
aF0.4140625
atp199
a(N(lp200
F0.0031645569620253164
aF0.0234375
aF0.921875
atp201
a(N(lp202
F0.0031645569620253164
aF0.0234375
aF0.921875
atp203
a(I01
(lp204
F0.006329113924050633
aF0.765625
aF0.7421875
atp205
a(I01
(lp206
F0.006329113924050633
aF0.765625
aF0.7421875
atp207
a(N(lp208
F0.0031645569620253164
aF0.0234375
aF0.921875
atp209
a(I01
(lp210
F0.006329113924050633
aF0.765625
aF0.7421875
atp211
a(I01
(lp212
F0.006329113924050633
aF0.765625
aF0.7421875
atp213
a(N(lp214
F0.0031645569620253164
aF0.0234375
aF0.921875
atp215
a(I01
(lp216
F0.006329113924050633
aF0.765625
aF0.7421875
atp217
a(I01
(lp218
F0.006329113924050633
aF0.765625
aF0.7421875
atp219
a(N(lp220
F0.0031645569620253164
aF0.0234375
aF0.921875
atp221
a(I00
(lp222
F0.0031645569620253164
aF0.0234375
aF0.921875
atp223
a(I01
(lp224
F0.6582278481012658
aF0.609375
aF0.4140625
atp225
a(I01
(lp226
F0.6582278481012658
aF0.609375
aF0.4140625
atp227
a(I01
(lp228
F0.6582278481012658
aF0.609375
aF0.4140625
atp229
a(I01
(lp230
F0.6582278481012658
aF0.609375
aF0.4140625
atp231
aa(lp232
(N(lp233
F0.0031645569620253164
aF0.0234375
aF0.921875
atp234
a(N(lp235
F0.0031645569620253164
aF0.0234375
aF0.921875
atp236
a(N(lp237
F0.0031645569620253164
aF0.0234375
aF0.921875
atp238
a(N(lp239
F0.0031645569620253164
aF0.0234375
aF0.921875
atp240
a(N(lp241
F0.0031645569620253164
aF0.0234375
aF0.921875
atp242
a(N(lp243
F0.0031645569620253164
aF0.0234375
aF0.921875
atp244
a(N(lp245
F0.0031645569620253164
aF0.0234375
aF0.921875
atp246
a(N(lp247
F0.0031645569620253164
aF0.0234375
aF0.921875
atp248
a(N(lp249
F0.0031645569620253164
aF0.0234375
aF0.921875
atp250
a(I01
(lp251
F0.006329113924050633
aF0.765625
aF0.7421875
atp252
a(I01
(lp253
F0.006329113924050633
aF0.765625
aF0.7421875
atp254
a(N(lp255
F0.0031645569620253164
aF0.0234375
aF0.921875
atp256
a(N(lp257
F0.0031645569620253164
aF0.0234375
aF0.921875
atp258
a(N(lp259
F0.0031645569620253164
aF0.0234375
aF0.921875
atp260
a(N(lp261
F0.0031645569620253164
aF0.0234375
aF0.921875
atp262
a(I00
(lp263
F0.0031645569620253164
aF0.0234375
aF0.921875
atp264
a(I00
(lp265
F0.0031645569620253164
aF0.0234375
aF0.921875
atp266
a(I00
(lp267
F0.0031645569620253164
aF0.0234375
aF0.921875
atp268
a(I00
(lp269
F0.0031645569620253164
aF0.0234375
aF0.921875
atp270
a(I00
(lp271
F0.0031645569620253164
aF0.0234375
aF0.921875
atp272
aa(lp273
(I01
(lp274
F0.006329113924050633
aF0.765625
aF0.7421875
atp275
a(I01
(lp276
F0.006329113924050633
aF0.765625
aF0.7421875
atp277
a(I01
(lp278
F0.006329113924050633
aF0.765625
aF0.7421875
atp279
a(I01
(lp280
F0.006329113924050633
aF0.765625
aF0.7421875
atp281
a(I01
(lp282
F0.006329113924050633
aF0.765625
aF0.7421875
atp283
a(I01
(lp284
F0.006329113924050633
aF0.765625
aF0.7421875
atp285
a(I01
(lp286
F0.006329113924050633
aF0.765625
aF0.7421875
atp287
a(I01
(lp288
F0.006329113924050633
aF0.765625
aF0.7421875
atp289
a(I01
(lp290
F0.006329113924050633
aF0.765625
aF0.7421875
atp291
a(I01
(lp292
F0.006329113924050633
aF0.765625
aF0.7421875
atp293
a(I01
(lp294
F0.006329113924050633
aF0.765625
aF0.7421875
atp295
a(I01
(lp296
F0.006329113924050633
aF0.765625
aF0.7421875
atp297
a(I01
(lp298
F0.006329113924050633
aF0.765625
aF0.7421875
atp299
a(I01
(lp300
F0.006329113924050633
aF0.765625
aF0.7421875
atp301
a(I01
(lp302
F0.006329113924050633
aF0.765625
aF0.7421875
atp303
a(I01
(lp304
F0.006329113924050633
aF0.765625
aF0.7421875
atp305
a(I01
(lp306
F0.006329113924050633
aF0.765625
aF0.7421875
atp307
a(I01
(lp308
F0.006329113924050633
aF0.765625
aF0.7421875
atp309
a(I01
(lp310
F0.006329113924050633
aF0.765625
aF0.7421875
atp311
a(I01
(lp312
F0.006329113924050633
aF0.765625
aF0.7421875
atp313
aa(lp314
(I01
(lp315
F0.006329113924050633
aF0.765625
aF0.7421875
atp316
a(I01
(lp317
F0.006329113924050633
aF0.765625
aF0.7421875
atp318
a(I01
(lp319
F0.006329113924050633
aF0.765625
aF0.7421875
atp320
a(I01
(lp321
F0.006329113924050633
aF0.765625
aF0.7421875
atp322
a(I01
(lp323
F0.006329113924050633
aF0.765625
aF0.7421875
atp324
a(I01
(lp325
F0.006329113924050633
aF0.765625
aF0.7421875
atp326
a(I01
(lp327
F0.006329113924050633
aF0.765625
aF0.7421875
atp328
a(I01
(lp329
F0.006329113924050633
aF0.765625
aF0.7421875
atp330
a(I01
(lp331
F0.006329113924050633
aF0.765625
aF0.7421875
atp332
a(I01
(lp333
F0.006329113924050633
aF0.765625
aF0.7421875
atp334
a(I01
(lp335
F0.006329113924050633
aF0.765625
aF0.7421875
atp336
a(I01
(lp337
F0.006329113924050633
aF0.765625
aF0.7421875
atp338
a(I01
(lp339
F0.006329113924050633
aF0.765625
aF0.7421875
atp340
a(I01
(lp341
F0.006329113924050633
aF0.765625
aF0.7421875
atp342
a(I01
(lp343
F0.006329113924050633
aF0.765625
aF0.7421875
atp344
a(I01
(lp345
F0.006329113924050633
aF0.765625
aF0.7421875
atp346
a(I01
(lp347
F0.006329113924050633
aF0.765625
aF0.7421875
atp348
a(I01
(lp349
F0.006329113924050633
aF0.765625
aF0.7421875
atp350
a(I01
(lp351
F0.006329113924050633
aF0.765625
aF0.7421875
atp352
a(I01
(lp353
F0.006329113924050633
aF0.765625
aF0.7421875
atp354
aa(lp355
(N(lp356
F0.0031645569620253164
aF0.0234375
aF0.921875
atp357
a(N(lp358
F0.0031645569620253164
aF0.0234375
aF0.921875
atp359
a(N(lp360
F0.0031645569620253164
aF0.0234375
aF0.921875
atp361
a(I00
(lp362
F0.0031645569620253164
aF0.0234375
aF0.921875
atp363
a(N(lp364
F0.0031645569620253164
aF0.0234375
aF0.921875
atp365
a(N(lp366
F0.0031645569620253164
aF0.0234375
aF0.921875
atp367
a(N(lp368
F0.0031645569620253164
aF0.0234375
aF0.921875
atp369
a(N(lp370
F0.0031645569620253164
aF0.0234375
aF0.921875
atp371
a(N(lp372
F0.0031645569620253164
aF0.0234375
aF0.921875
atp373
a(I01
(lp374
F0.006329113924050633
aF0.765625
aF0.7421875
atp375
a(I01
(lp376
F0.006329113924050633
aF0.765625
aF0.7421875
atp377
a(N(lp378
F0.0031645569620253164
aF0.0234375
aF0.921875
atp379
a(N(lp380
F0.0031645569620253164
aF0.0234375
aF0.921875
atp381
a(N(lp382
F0.0031645569620253164
aF0.0234375
aF0.921875
atp383
a(N(lp384
F0.0031645569620253164
aF0.0234375
aF0.921875
atp385
a(I00
(lp386
F0.0031645569620253164
aF0.0234375
aF0.921875
atp387
a(I00
(lp388
F0.0031645569620253164
aF0.0234375
aF0.921875
atp389
a(I00
(lp390
F0.0031645569620253164
aF0.0234375
aF0.921875
atp391
a(I00
(lp392
F0.0031645569620253164
aF0.0234375
aF0.921875
atp393
a(I00
(lp394
F0.0031645569620253164
aF0.0234375
aF0.921875
atp395
aa(lp396
(I01
(lp397
F0.6582278481012658
aF0.609375
aF0.4140625
atp398
a(I01
(lp399
F0.6582278481012658
aF0.609375
aF0.4140625
atp400
a(I01
(lp401
F0.6582278481012658
aF0.609375
aF0.4140625
atp402
a(I01
(lp403
F0.6582278481012658
aF0.609375
aF0.4140625
atp404
a(N(lp405
F0.0031645569620253164
aF0.0234375
aF0.921875
atp406
a(N(lp407
F0.0031645569620253164
aF0.0234375
aF0.921875
atp408
a(I01
(lp409
F0.006329113924050633
aF0.765625
aF0.7421875
atp410
a(I01
(lp411
F0.006329113924050633
aF0.765625
aF0.7421875
atp412
a(N(lp413
F0.0031645569620253164
aF0.0234375
aF0.921875
atp414
a(I01
(lp415
F0.006329113924050633
aF0.765625
aF0.7421875
atp416
a(I01
(lp417
F0.006329113924050633
aF0.765625
aF0.7421875
atp418
a(N(lp419
F0.0031645569620253164
aF0.0234375
aF0.921875
atp420
a(I01
(lp421
F0.006329113924050633
aF0.765625
aF0.7421875
atp422
a(I01
(lp423
F0.006329113924050633
aF0.765625
aF0.7421875
atp424
a(N(lp425
F0.0031645569620253164
aF0.0234375
aF0.921875
atp426
a(I00
(lp427
F0.0031645569620253164
aF0.0234375
aF0.921875
atp428
a(I01
(lp429
F0.6582278481012658
aF0.609375
aF0.4140625
atp430
a(I01
(lp431
F0.6582278481012658
aF0.609375
aF0.4140625
atp432
a(I01
(lp433
F0.6582278481012658
aF0.609375
aF0.4140625
atp434
a(I01
(lp435
F0.6582278481012658
aF0.609375
aF0.4140625
atp436
aa(lp437
(I01
(lp438
F0.6582278481012658
aF0.609375
aF0.4140625
atp439
a(I01
(lp440
F0.6582278481012658
aF0.609375
aF0.4140625
atp441
a(I00
(lp442
F0.0031645569620253164
aF0.0234375
aF0.921875
atp443
a(I00
(lp444
F0.0031645569620253164
aF0.0234375
aF0.921875
atp445
a(I01
(lp446
F0.006329113924050633
aF0.765625
aF0.7421875
atp447
a(I01
(lp448
F0.006329113924050633
aF0.765625
aF0.7421875
atp449
a(I00
(lp450
F0.0031645569620253164
aF0.0234375
aF0.921875
atp451
a(I00
(lp452
F0.0031645569620253164
aF0.0234375
aF0.921875
atp453
a(I00
(lp454
F0.0031645569620253164
aF0.0234375
aF0.921875
atp455
a(I01
(lp456
F0.006329113924050633
aF0.765625
aF0.7421875
atp457
a(I01
(lp458
F0.006329113924050633
aF0.765625
aF0.7421875
atp459
a(I00
(lp460
F0.0031645569620253164
aF0.0234375
aF0.921875
atp461
a(I00
(lp462
F0.0031645569620253164
aF0.0234375
aF0.921875
atp463
a(I00
(lp464
F0.0031645569620253164
aF0.0234375
aF0.921875
atp465
a(I01
(lp466
F0.006329113924050633
aF0.765625
aF0.7421875
atp467
a(I01
(lp468
F0.006329113924050633
aF0.765625
aF0.7421875
atp469
a(I00
(lp470
F0.0031645569620253164
aF0.0234375
aF0.921875
atp471
a(I00
(lp472
F0.0031645569620253164
aF0.0234375
aF0.921875
atp473
a(I01
(lp474
F0.6582278481012658
aF0.609375
aF0.4140625
atp475
a(I01
(lp476
F0.6582278481012658
aF0.609375
aF0.4140625
atp477
aa(lp478
(I00
(lp479
F0.0031645569620253164
aF0.0234375
aF0.921875
atp480
a(I00
(lp481
F0.0031645569620253164
aF0.0234375
aF0.921875
atp482
a(I01
(lp483
F0.006329113924050633
aF0.765625
aF0.7421875
atp484
a(I01
(lp485
F0.006329113924050633
aF0.765625
aF0.7421875
atp486
a(N(lp487
F0.0031645569620253164
aF0.0234375
aF0.921875
atp488
a(I00
(lp489
F0.0031645569620253164
aF0.0234375
aF0.921875
atp490
a(I01
(lp491
F0.6582278481012658
aF0.609375
aF0.4140625
atp492
a(I01
(lp493
F0.6582278481012658
aF0.609375
aF0.4140625
atp494
a(I00
(lp495
F0.0031645569620253164
aF0.0234375
aF0.921875
atp496
a(I01
(lp497
F0.006329113924050633
aF0.765625
aF0.7421875
atp498
a(I01
(lp499
F0.006329113924050633
aF0.765625
aF0.7421875
atp500
a(I00
(lp501
F0.0031645569620253164
aF0.0234375
aF0.921875
atp502
a(I01
(lp503
F0.6582278481012658
aF0.609375
aF0.4140625
atp504
a(I01
(lp505
F0.6582278481012658
aF0.609375
aF0.4140625
atp506
a(I00
(lp507
F0.0031645569620253164
aF0.0234375
aF0.921875
atp508
a(I00
(lp509
F0.0031645569620253164
aF0.0234375
aF0.921875
atp510
a(I01
(lp511
F0.006329113924050633
aF0.765625
aF0.7421875
atp512
a(I01
(lp513
F0.006329113924050633
aF0.765625
aF0.7421875
atp514
a(I00
(lp515
F0.0031645569620253164
aF0.0234375
aF0.921875
atp516
a(I00
(lp517
F0.0031645569620253164
aF0.0234375
aF0.921875
atp518
aa(lp519
(I01
(lp520
F0.006329113924050633
aF0.765625
aF0.7421875
atp521
a(I01
(lp522
F0.006329113924050633
aF0.765625
aF0.7421875
atp523
a(I00
(lp524
F0.0031645569620253164
aF0.0234375
aF0.921875
atp525
a(I00
(lp526
F0.0031645569620253164
aF0.0234375
aF0.921875
atp527
a(I01
(lp528
F0.6582278481012658
aF0.609375
aF0.4140625
atp529
a(I01
(lp530
F0.6582278481012658
aF0.609375
aF0.4140625
atp531
a(I01
(lp532
F0.6582278481012658
aF0.609375
aF0.4140625
atp533
a(I01
(lp534
F0.6582278481012658
aF0.609375
aF0.4140625
atp535
a(I00
(lp536
F0.0031645569620253164
aF0.0234375
aF0.921875
atp537
a(I01
(lp538
F0.006329113924050633
aF0.765625
aF0.7421875
atp539
a(I01
(lp540
F0.006329113924050633
aF0.765625
aF0.7421875
atp541
a(I00
(lp542
F0.0031645569620253164
aF0.0234375
aF0.921875
atp543
a(I01
(lp544
F0.6582278481012658
aF0.609375
aF0.4140625
atp545
a(I01
(lp546
F0.6582278481012658
aF0.609375
aF0.4140625
atp547
a(I01
(lp548
F0.6582278481012658
aF0.609375
aF0.4140625
atp549
a(I01
(lp550
F0.6582278481012658
aF0.609375
aF0.4140625
atp551
a(I00
(lp552
F0.0031645569620253164
aF0.0234375
aF0.921875
atp553
a(I00
(lp554
F0.0031645569620253164
aF0.0234375
aF0.921875
atp555
a(I01
(lp556
F0.006329113924050633
aF0.765625
aF0.7421875
atp557
a(I01
(lp558
F0.006329113924050633
aF0.765625
aF0.7421875
atp559
aa(lp560
(I00
(lp561
F0.0031645569620253164
aF0.0234375
aF0.921875
atp562
a(I00
(lp563
F0.0031645569620253164
aF0.0234375
aF0.921875
atp564
a(I01
(lp565
F0.6582278481012658
aF0.609375
aF0.4140625
atp566
a(I01
(lp567
F0.6582278481012658
aF0.609375
aF0.4140625
atp568
a(I01
(lp569
F0.6582278481012658
aF0.609375
aF0.4140625
atp570
a(I01
(lp571
F0.6582278481012658
aF0.609375
aF0.4140625
atp572
a(I01
(lp573
F0.6582278481012658
aF0.609375
aF0.4140625
atp574
a(I01
(lp575
F0.6582278481012658
aF0.609375
aF0.4140625
atp576
a(I00
(lp577
F0.0031645569620253164
aF0.0234375
aF0.921875
atp578
a(I01
(lp579
F0.006329113924050633
aF0.765625
aF0.7421875
atp580
a(I01
(lp581
F0.006329113924050633
aF0.765625
aF0.7421875
atp582
a(I00
(lp583
F0.0031645569620253164
aF0.0234375
aF0.921875
atp584
a(I01
(lp585
F0.6582278481012658
aF0.609375
aF0.4140625
atp586
a(I01
(lp587
F0.6582278481012658
aF0.609375
aF0.4140625
atp588
a(I01
(lp589
F0.6582278481012658
aF0.609375
aF0.4140625
atp590
a(I01
(lp591
F0.6582278481012658
aF0.609375
aF0.4140625
atp592
a(I01
(lp593
F0.6582278481012658
aF0.609375
aF0.4140625
atp594
a(I01
(lp595
F0.6582278481012658
aF0.609375
aF0.4140625
atp596
a(I00
(lp597
F0.0031645569620253164
aF0.0234375
aF0.921875
atp598
a(I00
(lp599
F0.0031645569620253164
aF0.0234375
aF0.921875
atp600
aa(lp601
(I01
(lp602
F0.6582278481012658
aF0.609375
aF0.4140625
atp603
a(I01
(lp604
F0.6582278481012658
aF0.609375
aF0.4140625
atp605
a(I01
(lp606
F0.6582278481012658
aF0.609375
aF0.4140625
atp607
a(I01
(lp608
F0.6582278481012658
aF0.609375
aF0.4140625
atp609
a(I01
(lp610
F0.6582278481012658
aF0.609375
aF0.4140625
atp611
a(I01
(lp612
F0.6582278481012658
aF0.609375
aF0.4140625
atp613
a(I01
(lp614
F0.6582278481012658
aF0.609375
aF0.4140625
atp615
a(I01
(lp616
F0.6582278481012658
aF0.609375
aF0.4140625
atp617
a(I00
(lp618
F0.0031645569620253164
aF0.0234375
aF0.921875
atp619
a(I01
(lp620
F0.006329113924050633
aF0.765625
aF0.7421875
atp621
a(I01
(lp622
F0.006329113924050633
aF0.765625
aF0.7421875
atp623
a(I00
(lp624
F0.0031645569620253164
aF0.0234375
aF0.921875
atp625
a(I01
(lp626
F0.6582278481012658
aF0.609375
aF0.4140625
atp627
a(I01
(lp628
F0.6582278481012658
aF0.609375
aF0.4140625
atp629
a(I01
(lp630
F0.6582278481012658
aF0.609375
aF0.4140625
atp631
a(I01
(lp632
F0.6582278481012658
aF0.609375
aF0.4140625
atp633
a(I01
(lp634
F0.6582278481012658
aF0.609375
aF0.4140625
atp635
a(I01
(lp636
F0.6582278481012658
aF0.609375
aF0.4140625
atp637
a(I01
(lp638
F0.6582278481012658
aF0.609375
aF0.4140625
atp639
a(I01
(lp640
F0.6582278481012658
aF0.609375
aF0.4140625
atp641
aasS'height'
p642
I15
sS'width'
p643
I20
sS'column_numbers'
p644
(lp645
(I1
I2
I2
I2
I1
I1
tp646
a(I1
I2
I2
I2
I1
I1
tp647
a(I1
I1
I1
I2
I1
I1
I2
tp648
a(I1
I1
I1
I2
I1
I1
I2
tp649
a(I2
I1
I2
I1
I3
tp650
a(I2
I1
I2
I1
I3
tp651
a(I3
I1
I2
I1
I4
tp652
a(I3
I1
I2
I1
I4
tp653
a(I2
tp654
a(I15
tp655
a(I15
tp656
a(I2
tp657
a(I3
I1
I2
I1
I4
tp658
a(I3
I1
I2
I1
I4
tp659
a(I2
I1
I2
I1
I3
tp660
a(I2
I1
I2
I1
I3
tp661
a(I1
I1
I1
I2
I1
I1
I2
tp662
a(I1
I1
I1
I2
I1
I1
I2
tp663
a(I1
I2
I2
I2
I1
I1
tp664
a(I1
I2
I2
I2
I1
I1
tp665
asS'background'
p666
S'blue'
p667
sb.