ccopy_reg
_reconstructor
p1
(cpuzzle
Puzzle
p2
c__builtin__
object
p3
NtRp4
(dp5
S'row_numbers'
p6
(lp7
(I1
tp8
a(I2
I3
I1
tp9
a(I2
I2
I2
tp10
a(I3
I3
I3
I1
tp11
a(I2
I6
tp12
a(I3
I5
tp13
a(I9
tp14
a(I10
tp15
a(I2
I1
I10
tp16
a(I1
I3
I10
tp17
a(I2
I1
I9
tp18
a(I10
tp19
a(I2
I6
tp20
a(I2
I5
tp21
a(I2
I3
I1
I4
tp22
a(I4
I1
I3
tp23
a(I6
I3
tp24
a(I2
I3
I1
I2
tp25
a(I3
tp26
a(I3
tp27
asS'name'
p28
VNarwhal
p29
sS'cells'
p30
(lp31
(lp32
(I01
(lp33
F0.16772151898734178
aF0.21875
aF0.90625
atp34
a(N(lp35
F0.55063291139240511
aF0.3125
aF0.671875
atp36
a(Ng35
tp37
a(I00
g35
tp38
a(I00
g35
tp39
a(I00
g35
tp40
a(I00
g35
tp41
a(I00
g35
tp42
a(I00
g35
tp43
a(I00
g35
tp44
a(I00
g35
tp45
a(I00
(lp46
F0.55063291139240511
aF0.3125
aF0.7265625
atp47
a(I00
g35
tp48
a(I00
g35
tp49
a(I00
g35
tp50
a(I00
g35
tp51
a(I00
g35
tp52
a(I00
g35
tp53
a(I00
g35
tp54
a(I00
g35
tp55
aa(lp56
(N(lp57
F0.55063291139240511
aF0.3125
aF0.671875
atp58
a(I01
(lp59
F0.16772151898734178
aF0.21875
aF0.90625
atp60
a(I01
(lp61
F0.16772151898734178
aF0.21875
aF0.90625
atp62
a(Ng35
tp63
a(I00
g35
tp64
a(I00
g35
tp65
a(I00
(lp66
F0.55063291139240511
aF0.3125
aF0.7265625
atp67
a(I00
(lp68
F0.55063291139240511
aF0.3125
aF0.7265625
atp69
a(I00
g35
tp70
a(I00
(lp71
F0.55063291139240511
aF0.3125
aF0.7265625
atp72
a(I00
g35
tp73
a(I00
g35
tp74
a(I00
g35
tp75
a(I00
g35
tp76
a(Ng35
tp77
a(I01
(lp78
F0.31329113924050633
aF0.1953125
aF0.5859375
atp79
a(I01
g78
tp80
a(I01
(lp81
F0.31329113924050633
aF0.1953125
aF0.5390625
atp82
a(Ng35
tp83
a(I01
(lp84
F0.31329113924050633
aF0.1953125
aF0.5390625
atp85
aa(lp86
(Ng57
tp87
a(Ng57
tp88
a(I01
(lp89
F0.16772151898734178
aF0.21875
aF0.6640625
atp90
a(I01
(lp91
F0.16772151898734178
aF0.21875
aF0.90625
atp92
a(Ng35
tp93
a(I00
g35
tp94
a(I00
(lp95
F0.55063291139240511
aF0.3125
aF0.7265625
atp96
a(I00
(lp97
F0.55063291139240511
aF0.3125
aF0.7265625
atp98
a(I00
g35
tp99
a(I00
g35
tp100
a(I00
g35
tp101
a(I00
g35
tp102
a(I00
g35
tp103
a(I00
g35
tp104
a(I01
(lp105
F0.31329113924050633
aF0.1953125
aF0.5859375
atp106
a(I01
(lp107
F0.31329113924050633
aF0.1953125
aF0.5390625
atp108
a(N(lp109
F0.31329113924050633
aF0.265625
aF0.4140625
atp110
a(I01
g81
tp111
a(I01
g81
tp112
a(N(lp113
F0.55063291139240511
aF0.3125
aF0.671875
atp114
aa(lp115
(I00
g57
tp116
a(I00
g57
tp117
a(Ng57
tp118
a(I01
(lp119
F0.16772151898734178
aF0.21875
aF0.6640625
atp120
a(I01
(lp121
F0.16772151898734178
aF0.21875
aF0.90625
atp122
a(I01
(lp123
F0.16772151898734178
aF0.21875
aF0.90625
atp124
a(Ng35
tp125
a(I00
g35
tp126
a(I00
g35
tp127
a(I01
(lp128
F0.45886075949367089
aF0.53125
aF0.8125
atp129
a(I01
g128
tp130
a(I01
g128
tp131
a(Ng35
tp132
a(I00
g35
tp133
a(Ng35
tp134
a(I01
(lp135
F0.31329113924050633
aF0.1953125
aF0.4453125
atp136
a(I01
g135
tp137
a(I01
g135
tp138
a(Ng35
tp139
a(I01
(lp140
F0.31329113924050633
aF0.1953125
aF0.4453125
atp141
aa(lp142
(I00
g57
tp143
a(I00
g57
tp144
a(I00
g57
tp145
a(I00
g57
tp146
a(Ng57
tp147
a(I01
(lp148
F0.16772151898734178
aF0.21875
aF0.6640625
atp149
a(I01
(lp150
F0.16772151898734178
aF0.21875
aF0.90625
atp151
a(Ng35
tp152
a(I01
g128
tp153
a(I01
g128
tp154
a(I01
(lp155
F0.45886075949367089
aF0.3046875
aF0.9375
atp156
a(I01
g155
tp157
a(I01
(lp158
F0.45886075949367089
aF0.53125
aF0.8125
atp159
a(I01
g158
tp160
a(I00
g35
tp161
a(I00
g35
tp162
a(Ng35
tp163
a(Ng35
tp164
a(Ng35
tp165
a(Ng35
tp166
aa(lp167
(I00
g57
tp168
a(I00
g57
tp169
a(I00
g57
tp170
a(Ng57
tp171
a(I00
g57
tp172
a(Ng57
tp173
a(I01
(lp174
F0.16772151898734178
aF0.21875
aF0.6640625
atp175
a(I01
(lp176
F0.16772151898734178
aF0.21875
aF0.90625
atp177
a(I01
g128
tp178
a(N(lp179
F0.31329113924050633
aF0.265625
aF0.1328125
atp180
a(I01
g128
tp181
a(I01
g128
tp182
a(I01
(lp183
F0.45886075949367089
aF0.3046875
aF0.9375
atp184
a(I01
g183
tp185
a(I01
(lp186
F0.45886075949367089
aF0.53125
aF0.8125
atp187
a(I00
g35
tp188
a(I00
g35
tp189
a(I00
g35
tp190
a(I00
g35
tp191
a(I00
g35
tp192
aa(lp193
(I00
g57
tp194
a(I00
(lp195
F0.55063291139240511
aF0.3125
aF0.7265625
atp196
a(I00
g57
tp197
a(Ng57
tp198
a(Ng57
tp199
a(I00
g57
tp200
a(Ng57
tp201
a(I01
(lp202
F0.45886075949367089
aF0.53125
aF0.609375
atp203
a(I01
g128
tp204
a(I01
g128
tp205
a(I01
g128
tp206
a(I01
g128
tp207
a(I01
g128
tp208
a(I01
g128
tp209
a(I01
(lp210
F0.45886075949367089
aF0.3046875
aF0.9375
atp211
a(I01
(lp212
F0.45886075949367089
aF0.53125
aF0.8125
atp213
a(I00
g35
tp214
a(I00
g35
tp215
a(I00
g35
tp216
a(I00
g35
tp217
aa(lp218
(I00
g57
tp219
a(I00
g57
tp220
a(I00
g57
tp221
a(Ng57
tp222
a(Ng57
tp223
a(I00
g57
tp224
a(I00
g57
tp225
a(I01
(lp226
F0.45886075949367089
aF0.53125
aF0.390625
atp227
a(I01
(lp228
F0.45886075949367089
aF0.53125
aF0.609375
atp229
a(I01
g128
tp230
a(I01
g128
tp231
a(I01
g128
tp232
a(I01
g128
tp233
a(I01
g128
tp234
a(I01
g128
tp235
a(I01
(lp236
F0.45886075949367089
aF0.3046875
aF0.9375
atp237
a(I01
(lp238
F0.45886075949367089
aF0.53125
aF0.8125
atp239
a(I00
g35
tp240
a(I00
g35
tp241
a(I00
g35
tp242
aa(lp243
(I00
g57
tp244
a(Ng57
tp245
a(I01
(lp246
F0.52848101265822789
aF0.4453125
aF0.59375
atp247
a(I01
g246
tp248
a(Ng57
tp249
a(I01
(lp250
F0.52848101265822789
aF0.4453125
aF0.59375
atp251
a(Ng57
tp252
a(I00
g57
tp253
a(I01
(lp254
F0.45886075949367089
aF0.53125
aF0.390625
atp255
a(I01
(lp256
F0.45886075949367089
aF0.53125
aF0.609375
atp257
a(I01
g128
tp258
a(I01
g128
tp259
a(I01
g128
tp260
a(I01
g128
tp261
a(I01
g128
tp262
a(I01
g128
tp263
a(I01
(lp264
F0.45886075949367089
aF0.3046875
aF0.9375
atp265
a(I01
g128
tp266
a(I00
g35
tp267
a(I00
g35
tp268
aa(lp269
(I00
g57
tp270
a(I01
(lp271
F0.52848101265822789
aF0.4453125
aF0.59375
atp272
a(N(lp273
F0.53797468354430378
aF0.78125
aF0.3203125
atp274
a(I01
(lp275
F0.52215189873417722
aF0.5234375
aF0.5078125
atp276
a(I01
(lp277
F0.54430379746835444
aF0.515625
aF0.421875
atp278
a(I01
(lp279
F0.52215189873417722
aF0.5234375
aF0.5078125
atp280
a(I00
g57
tp281
a(I00
(lp282
F0.55063291139240511
aF0.3125
aF0.7265625
atp283
a(Ng57
tp284
a(I01
(lp285
F0.45886075949367089
aF0.53125
aF0.390625
atp286
a(I01
g128
tp287
a(I01
g128
tp288
a(I01
g128
tp289
a(I01
g128
tp290
a(I01
g128
tp291
a(I01
g128
tp292
a(I01
g128
tp293
a(I01
g128
tp294
a(I01
(lp295
F0.45886075949367089
aF0.53125
aF0.609375
atp296
a(I00
g35
tp297
aa(lp298
(I00
g57
tp299
a(Ng57
tp300
a(I01
(lp301
F0.54430379746835444
aF0.515625
aF0.421875
atp302
a(I01
g301
tp303
a(Ng57
tp304
a(I01
(lp305
F0.54430379746835444
aF0.515625
aF0.421875
atp306
a(Ng57
tp307
a(I00
g57
tp308
a(I00
g57
tp309
a(Ng57
tp310
a(I01
g128
tp311
a(I01
g128
tp312
a(I01
(lp313
F0.45886075949367089
aF0.53125
aF0.609375
atp314
a(I01
g128
tp315
a(I01
g128
tp316
a(I01
g128
tp317
a(I01
g128
tp318
a(I01
g128
tp319
a(I01
g295
tp320
a(Ng35
tp321
aa(lp322
(I00
g57
tp323
a(I00
g57
tp324
a(I00
g57
tp325
a(I00
g57
tp326
a(I00
g57
tp327
a(Ng57
tp328
a(N(lp329
F0.55063291139240511
aF0.3125
aF0.7265625
atp330
a(I00
(lp331
F0.55063291139240511
aF0.3125
aF0.7265625
atp332
a(I00
g57
tp333
a(Ng57
tp334
a(I01
g128
tp335
a(I01
g128
tp336
a(I01
(lp337
F0.45886075949367089
aF0.53125
aF0.390625
atp338
a(I01
(lp339
F0.45886075949367089
aF0.53125
aF0.390625
atp340
a(I01
(lp341
F0.45886075949367089
aF0.53125
aF0.609375
atp342
a(I01
g128
tp343
a(I01
g128
tp344
a(I01
g128
tp345
a(I01
g295
tp346
a(I01
(lp347
F0.45886075949367089
aF0.53125
aF0.390625
atp348
aa(lp349
(I00
g57
tp350
a(I00
g57
tp351
a(I00
g57
tp352
a(I00
g57
tp353
a(Ng57
tp354
a(Ng57
tp355
a(N(lp356
F0.55063291139240511
aF0.3125
aF0.7265625
atp357
a(I00
(lp358
F0.55063291139240511
aF0.3125
aF0.7265625
atp359
a(I00
g57
tp360
a(Ng57
tp361
a(I01
g128
tp362
a(I01
(lp363
F0.45886075949367089
aF0.53125
aF0.609375
atp364
a(Ng57
tp365
a(Ng57
tp366
a(I01
(lp367
F0.45886075949367089
aF0.53125
aF0.390625
atp368
a(I01
(lp369
F0.45886075949367089
aF0.53125
aF0.609375
atp370
a(I01
g128
tp371
a(I01
g128
tp372
a(I01
g295
tp373
a(I01
(lp374
F0.45886075949367089
aF0.53125
aF0.390625
atp375
aa(lp376
(I00
g57
tp377
a(I00
g57
tp378
a(I00
g57
tp379
a(I00
g57
tp380
a(Ng57
tp381
a(Ng57
tp382
a(Ng57
tp383
a(I00
g57
tp384
a(I00
g57
tp385
a(N(lp386
F0.55063291139240511
aF0.3125
aF0.7265625
atp387
a(I01
(lp388
F0.45886075949367089
aF0.53125
aF0.609375
atp389
a(I01
(lp390
F0.45886075949367089
aF0.53125
aF0.390625
atp391
a(I00
g57
tp392
a(I00
g57
tp393
a(Ng57
tp394
a(I01
(lp395
F0.45886075949367089
aF0.53125
aF0.390625
atp396
a(I01
g128
tp397
a(I01
g128
tp398
a(I01
g295
tp399
a(I01
(lp400
F0.45886075949367089
aF0.53125
aF0.390625
atp401
aa(lp402
(I00
g57
tp403
a(I01
(lp404
F0.18354430379746836
aF0.2890625
aF0.5859375
atp405
a(I01
g404
tp406
a(I00
g57
tp407
a(I01
(lp408
F0.18354430379746836
aF0.2890625
aF0.5859375
atp409
a(I01
g408
tp410
a(I01
g408
tp411
a(I00
g57
tp412
a(I00
g57
tp413
a(Ng57
tp414
a(I01
(lp415
F0.45886075949367089
aF0.53125
aF0.390625
atp416
a(Ng57
tp417
a(I00
g57
tp418
a(I00
g57
tp419
a(I00
g57
tp420
a(Ng57
tp421
a(I01
g128
tp422
a(I01
g295
tp423
a(I01
g295
tp424
a(I01
(lp425
F0.45886075949367089
aF0.53125
aF0.390625
atp426
aa(lp427
(I00
g57
tp428
a(I00
g57
tp429
a(I01
(lp430
F0.18354430379746836
aF0.2890625
aF0.5078125
atp431
a(I01
(lp432
F0.18354430379746836
aF0.2890625
aF0.5859375
atp433
a(I01
(lp434
F0.18354430379746836
aF0.2890625
aF0.5078125
atp435
a(I01
g434
tp436
a(N(lp437
F0.18354430379746836
aF0.2890625
aF0.3515625
atp438
a(I01
(lp439
F0.18354430379746836
aF0.2890625
aF0.5859375
atp440
a(I00
g57
tp441
a(Ng57
tp442
a(Ng57
tp443
a(N(lp444
F0.55063291139240511
aF0.3125
aF0.7265625
atp445
a(I00
g57
tp446
a(I00
g57
tp447
a(I00
g57
tp448
a(Ng57
tp449
a(I01
g128
tp450
a(I01
g295
tp451
a(I01
(lp452
F0.45886075949367089
aF0.53125
aF0.390625
atp453
a(N(lp454
F0.55063291139240511
aF0.3125
aF0.671875
atp455
aa(lp456
(I00
g57
tp457
a(I00
g57
tp458
a(I01
g430
tp459
a(I01
(lp460
F0.18354430379746836
aF0.2890625
aF0.4296875
atp461
a(I01
g434
tp462
a(I01
g434
tp463
a(I01
g434
tp464
a(I01
(lp465
F0.18354430379746836
aF0.2890625
aF0.4296875
atp466
a(I00
g57
tp467
a(I00
g57
tp468
a(I00
g57
tp469
a(Ng57
tp470
a(Ng57
tp471
a(Ng57
tp472
a(Ng57
tp473
a(I01
(lp474
F0.45886075949367089
aF0.53125
aF0.390625
atp475
a(I01
(lp476
F0.45886075949367089
aF0.53125
aF0.609375
atp477
a(I01
(lp478
F0.45886075949367089
aF0.53125
aF0.390625
atp479
a(Ng454
tp480
a(Ng454
tp481
aa(lp482
(I00
g57
tp483
a(I01
(lp484
F0.18354430379746836
aF0.2890625
aF0.4296875
atp485
a(I01
g484
tp486
a(I00
g57
tp487
a(I01
(lp488
F0.18354430379746836
aF0.2890625
aF0.4296875
atp489
a(I01
g488
tp490
a(I01
g488
tp491
a(I00
g57
tp492
a(I00
(lp493
F0.55063291139240511
aF0.3125
aF0.7265625
atp494
a(I00
(lp495
F0.55063291139240511
aF0.3125
aF0.7265625
atp496
a(I00
g57
tp497
a(Ng57
tp498
a(Ng57
tp499
a(I01
(lp500
F0.45886075949367089
aF0.53125
aF0.390625
atp501
a(Ng57
tp502
a(I01
(lp503
F0.45886075949367089
aF0.53125
aF0.390625
atp504
a(I01
(lp505
F0.45886075949367089
aF0.53125
aF0.390625
atp506
a(Ng454
tp507
a(Ng454
tp508
a(I00
g454
tp509
aa(lp510
(I00
g57
tp511
a(I00
g57
tp512
a(I00
g57
tp513
a(I00
g57
tp514
a(I00
g57
tp515
a(I00
g57
tp516
a(I00
g57
tp517
a(I00
g57
tp518
a(I00
(lp519
F0.55063291139240511
aF0.3125
aF0.7265625
atp520
a(I00
(lp521
F0.55063291139240511
aF0.3125
aF0.7265625
atp522
a(I00
g57
tp523
a(I00
g57
tp524
a(Ng57
tp525
a(I01
(lp526
F0.45886075949367089
aF0.53125
aF0.390625
atp527
a(I01
(lp528
F0.45886075949367089
aF0.53125
aF0.390625
atp529
a(I01
(lp530
F0.45886075949367089
aF0.53125
aF0.390625
atp531
a(Ng454
tp532
a(I00
g454
tp533
a(I00
g454
tp534
a(I00
g454
tp535
aa(lp536
(I00
g57
tp537
a(I00
g57
tp538
a(I00
g57
tp539
a(I00
g57
tp540
a(I00
g57
tp541
a(I00
g57
tp542
a(I00
(lp543
F0.55063291139240511
aF0.3125
aF0.7265625
atp544
a(I00
g57
tp545
a(I00
g57
tp546
a(I00
g57
tp547
a(I00
g57
tp548
a(I00
g57
tp549
a(I00
g57
tp550
a(I00
g57
tp551
a(I01
(lp552
F0.45886075949367089
aF0.53125
aF0.390625
atp553
a(I01
(lp554
F0.45886075949367089
aF0.53125
aF0.390625
atp555
a(I01
(lp556
F0.45886075949367089
aF0.53125
aF0.390625
atp557
a(Ng454
tp558
a(I00
g454
tp559
a(I00
g454
tp560
aasS'height'
p561
I20
sS'width'
p562
I20
sS'column_numbers'
p563
(lp564
(I1
tp565
a(I1
I1
I1
I1
tp566
a(I2
I1
I1
I4
tp567
a(I2
I3
I2
tp568
a(I1
I1
I4
tp569
a(I2
I3
I4
tp570
a(I2
I1
I2
tp571
a(I3
I2
tp572
a(I5
tp573
a(I2
I4
tp574
a(I12
tp575
a(I11
tp576
a(I8
tp577
a(I8
I2
tp578
a(I1
I8
I2
tp579
a(I3
I8
I4
tp580
a(I1
I1
I11
I1
tp581
a(I3
I9
tp582
a(I1
I7
tp583
a(I1
I1
I4
tp584
asS'background'
p585
S'blue'
p586
sb.