ccopy_reg
_reconstructor
p1
(cpuzzle
Puzzle
p2
c__builtin__
object
p3
NtRp4
(dp5
S'row_numbers'
p6
(lp7
(I4
I4
tp8
a(I4
I5
I4
tp9
a(I13
I4
I2
tp10
a(I3
I2
I7
I2
I2
tp11
a(I1
I1
I5
I1
I3
I2
tp12
a(I1
I4
I8
I2
I2
tp13
a(I1
I2
I5
I11
tp14
a(I1
I1
I6
I10
tp15
a(I1
I2
I5
I11
tp16
a(I1
I4
I8
I2
I2
tp17
a(I1
I1
I5
I1
I3
I2
tp18
a(I3
I2
I7
I2
I2
tp19
a(I13
I4
I2
tp20
a(I4
I5
I4
tp21
a(I4
I4
tp22
asS'name'
p23
VFormula 1
p24
sS'cells'
p25
(lp26
(lp27
(I00
(lp28
F0
aF0
aF0.34375
atp29
a(I00
g28
tp30
a(I00
g28
tp31
a(I01
(lp32
F0
aF0
aF0.046875
atp33
a(I01
(lp34
F0
aF0
aF0.09375
atp35
a(I01
(lp36
F0
aF0
aF0.09375
atp37
a(I01
(lp38
F0
aF0
aF0.046875
atp39
a(N(lp40
F0
aF0
aF0.2265625
atp41
a(N(lp42
F0
aF0
aF0.34375
atp43
a(I00
g42
tp44
a(I00
g42
tp45
a(I00
g42
tp46
a(I00
g42
tp47
a(I00
g42
tp48
a(I00
g42
tp49
a(I00
g42
tp50
a(I00
g42
tp51
a(I01
(lp52
F0
aF0
aF0.046875
atp53
a(I01
(lp54
F0
aF0
aF0.09375
atp55
a(I01
(lp56
F0
aF0
aF0.09375
atp57
a(I01
(lp58
F0
aF0
aF0.046875
atp59
a(I00
(lp60
F0
aF0
aF0.2265625
atp61
a(N(lp62
F0
aF0
aF0.34375
atp63
a(Ng62
tp64
a(I00
g62
tp65
aa(lp66
(I00
g28
tp67
a(I00
g28
tp68
a(I00
g28
tp69
a(I01
(lp70
F0
aF0
aF0.046875
atp71
a(I01
(lp72
F0
aF0
aF0.09375
atp73
a(I01
(lp74
F0
aF0
aF0.09375
atp75
a(I01
(lp76
F0
aF0
aF0.046875
atp77
a(N(lp78
F0
aF0
aF0.2265625
atp79
a(I01
(lp80
F0.0031645569620253164
aF0.828125
aF0.890625
atp81
a(I01
(lp82
F0.0031645569620253164
aF0.9296875
aF0.5703125
atp83
a(I01
(lp84
F0.0031645569620253164
aF0.9296875
aF0.46875
atp85
a(I01
(lp86
F0.0031645569620253164
aF0.9296875
aF0.46875
atp87
a(I01
(lp88
F0.0031645569620253164
aF0.9296875
aF0.3046875
atp89
a(Ng42
tp90
a(I00
g42
tp91
a(I00
g42
tp92
a(I00
g42
tp93
a(I01
(lp94
F0
aF0
aF0.046875
atp95
a(I01
(lp96
F0
aF0
aF0.09375
atp97
a(I01
(lp98
F0
aF0
aF0.09375
atp99
a(I01
(lp100
F0
aF0
aF0.046875
atp101
a(I00
(lp102
F0
aF0
aF0.2265625
atp103
a(Ng62
tp104
a(Ng62
tp105
a(I00
g62
tp106
aa(lp107
(I01
(lp108
F0.0031645569620253164
aF0.9296875
aF0.6875
atp109
a(I01
(lp110
F0.0031645569620253164
aF0.9296875
aF0.6875
atp111
a(I01
(lp112
F0.0031645569620253164
aF0.9296875
aF0.6875
atp113
a(I01
(lp114
F0
aF0
aF0.046875
atp115
a(I01
(lp116
F0
aF0
aF0.09375
atp117
a(I01
(lp118
F0
aF0
aF0.09375
atp119
a(I01
(lp120
F0
aF0
aF0.046875
atp121
a(I01
(lp122
F0.0031645569620253164
aF0.828125
aF0.890625
atp123
a(I01
(lp124
F0.0031645569620253164
aF0.9296875
aF0.5703125
atp125
a(I01
(lp126
F0.0031645569620253164
aF0.9296875
aF0.5703125
atp127
a(I01
(lp128
F0.0031645569620253164
aF0.9296875
aF0.46875
atp129
a(I01
(lp130
F0.0031645569620253164
aF0.9296875
aF0.46875
atp131
a(I01
(lp132
F0
aF0
aF0.046875
atp133
a(N(lp134
F0
aF0
aF0.2265625
atp135
a(I00
g42
tp136
a(I00
g42
tp137
a(I00
g42
tp138
a(I01
(lp139
F0
aF0
aF0.046875
atp140
a(I01
(lp141
F0
aF0
aF0.09375
atp142
a(I01
(lp143
F0
aF0
aF0.09375
atp144
a(I01
(lp145
F0
aF0
aF0.046875
atp146
a(N(lp147
F0
aF0
aF0.2265625
atp148
a(I01
(lp149
F0.0031645569620253164
aF0.9296875
aF0.6875
atp150
a(I01
(lp151
F0.0031645569620253164
aF0.9296875
aF0.6875
atp152
a(N(lp153
F0
aF0
aF0.2265625
atp154
aa(lp155
(I01
(lp156
F0.0031645569620253164
aF0.9296875
aF0.6875
atp157
a(I01
(lp158
F0.0031645569620253164
aF0.9296875
aF0.6875
atp159
a(I01
(lp160
F0.0031645569620253164
aF0.9296875
aF0.6875
atp161
a(N(lp162
F0
aF0
aF0.2265625
atp163
a(I01
(lp164
F0.59177215189873422
aF0.25
aF0.4375
atp165
a(I01
(lp166
F0.59177215189873422
aF0.25
aF0.1328125
atp167
a(N(lp168
F0
aF0
aF0.2265625
atp169
a(I01
(lp170
F0.0031645569620253164
aF0.9296875
aF0.6875
atp171
a(I01
(lp172
F0.0031645569620253164
aF0.9296875
aF0.5703125
atp173
a(I01
(lp174
F0.0031645569620253164
aF0.9296875
aF0.46875
atp175
a(I01
(lp176
F0.0031645569620253164
aF0.9296875
aF0.46875
atp177
a(I01
(lp178
F0.0031645569620253164
aF0.9296875
aF0.46875
atp179
a(I01
(lp180
F0
aF0
aF0.046875
atp181
a(I01
(lp182
F0
aF0
aF0.046875
atp183
a(Ng42
tp184
a(I00
g42
tp185
a(Ng42
tp186
a(Ng42
tp187
a(I01
(lp188
F0.59177215189873422
aF0.25
aF0.4375
atp189
a(I01
(lp190
F0.59177215189873422
aF0.25
aF0.1328125
atp191
a(N(lp192
F0
aF0
aF0.2265625
atp193
a(N(lp194
F0
aF0
aF0.2265625
atp195
a(I01
(lp196
F0.0031645569620253164
aF0.03125
aF0.8984375
atp197
a(I01
(lp198
F0.0031645569620253164
aF0.03125
aF0.8984375
atp199
a(N(lp200
F0
aF0
aF0.2265625
atp201
aa(lp202
(I01
(lp203
F0.0031645569620253164
aF0.03125
aF0.8984375
atp204
a(N(lp205
F0.0031645569620253164
aF0.03125
aF0.8984375
atp206
a(I01
(lp207
F0.0031645569620253164
aF0.03125
aF0.65625
atp208
a(N(lp209
F0
aF0
aF0.2265625
atp210
a(I01
(lp211
F0.58544303797468356
aF0.140625
aF0.6328125
atp212
a(I01
(lp213
F0.59177215189873422
aF0.25
aF0.1953125
atp214
a(I01
(lp215
F0.0031645569620253164
aF0.9296875
aF0.6875
atp216
a(I01
(lp217
F0.0031645569620253164
aF0.9296875
aF0.5703125
atp218
a(I01
(lp219
F0.0031645569620253164
aF0.9296875
aF0.5703125
atp220
a(N(lp221
F0.0031645569620253164
aF0.9296875
aF0.46875
atp222
a(N(lp223
F0.0031645569620253164
aF0.9296875
aF0.46875
atp224
a(N(lp225
F0.0031645569620253164
aF0.9296875
aF0.46875
atp226
a(N(lp227
F0.0031645569620253164
aF0.9296875
aF0.46875
atp228
a(I01
(lp229
F0.0031645569620253164
aF0.9296875
aF0.3046875
atp230
a(N(lp231
F0
aF0
aF0.2265625
atp232
a(Ng42
tp233
a(Ng42
tp234
a(I01
(lp235
F0.59177215189873422
aF0.25
aF0.1953125
atp236
a(I01
(lp237
F0.58544303797468356
aF0.140625
aF0.6328125
atp238
a(I01
(lp239
F0.59177215189873422
aF0.25
aF0.1953125
atp240
a(I00
(lp241
F0
aF0
aF0.2265625
atp242
a(Ng62
tp243
a(I01
(lp244
F0.0031645569620253164
aF0.03125
aF0.8984375
atp245
a(I01
(lp246
F0.0031645569620253164
aF0.03125
aF0.8984375
atp247
a(N(lp248
F0
aF0
aF0.2265625
atp249
aa(lp250
(I01
(lp251
F0.0031645569620253164
aF0.03125
aF0.8984375
atp252
a(N(lp253
F0.0031645569620253164
aF0.03125
aF0.8984375
atp254
a(I01
(lp255
F0.0031645569620253164
aF0.03125
aF0.65625
atp256
a(I01
(lp257
F0.0031645569620253164
aF0.9296875
aF0.390625
atp258
a(I01
(lp259
F0.0031645569620253164
aF0.9296875
aF0.46875
atp260
a(I01
(lp261
F0.0031645569620253164
aF0.9296875
aF0.46875
atp262
a(N(lp263
F0.0031645569620253164
aF0.9296875
aF0.46875
atp264
a(N(lp265
F0.0031645569620253164
aF0.9296875
aF0.46875
atp266
a(N(lp267
F0.0031645569620253164
aF0.9296875
aF0.46875
atp268
a(I01
(lp269
F0.0031645569620253164
aF0.828125
aF0.890625
atp270
a(I01
(lp271
F0.0031645569620253164
aF0.828125
aF0.890625
atp272
a(I01
(lp273
F0.0031645569620253164
aF0.828125
aF0.890625
atp274
a(I01
(lp275
F0.0031645569620253164
aF0.828125
aF0.890625
atp276
a(I01
(lp277
F0.0031645569620253164
aF0.828125
aF0.890625
atp278
a(I01
(lp279
F0.0031645569620253164
aF0.828125
aF0.890625
atp280
a(I01
(lp281
F0.0031645569620253164
aF0.828125
aF0.890625
atp282
a(I01
(lp283
F0.59177215189873422
aF0.25
aF0.1953125
atp284
a(N(lp285
F0
aF0
aF0.34375
atp286
a(I01
(lp287
F0.58544303797468356
aF0.140625
aF0.6328125
atp288
a(I01
(lp289
F0.59177215189873422
aF0.25
aF0.1953125
atp290
a(I00
(lp291
F0
aF0
aF0.2265625
atp292
a(Ng62
tp293
a(I01
(lp294
F0.0031645569620253164
aF0.03125
aF0.8984375
atp295
a(I01
(lp296
F0.0031645569620253164
aF0.03125
aF0.8984375
atp297
a(N(lp298
F0
aF0
aF0.2265625
atp299
aa(lp300
(I01
(lp301
F0.0031645569620253164
aF0.03125
aF0.8984375
atp302
a(I00
(lp303
F0.0031645569620253164
aF0.03125
aF0.8984375
atp304
a(I01
(lp305
F0.0031645569620253164
aF0.03125
aF0.65625
atp306
a(I01
(lp307
F0.0031645569620253164
aF0.9296875
aF0.390625
atp308
a(N(lp309
F0.0031645569620253164
aF0.9296875
aF0.46875
atp310
a(N(lp311
F0.0031645569620253164
aF0.9296875
aF0.46875
atp312
a(I01
(lp313
F0.0031645569620253164
aF0.828125
aF0.890625
atp314
a(I01
(lp315
F0.0031645569620253164
aF0.828125
aF0.890625
atp316
a(I01
(lp317
F0.0031645569620253164
aF0.9296875
aF0.78125
atp318
a(I01
(lp319
F0.0031645569620253164
aF0.9296875
aF0.6875
atp320
a(I01
(lp321
F0.0031645569620253164
aF0.828125
aF0.890625
atp322
a(N(lp323
F0
aF0
aF0.09375
atp324
a(N(lp325
F0
aF0
aF0.09375
atp326
a(N(lp327
F0
aF0
aF0.09375
atp328
a(I01
(lp329
F0.0031645569620253164
aF0.9296875
aF0.6875
atp330
a(I01
(lp331
F0.0031645569620253164
aF0.9296875
aF0.6875
atp332
a(I01
(lp333
F0.0031645569620253164
aF0.9296875
aF0.6875
atp334
a(I01
(lp335
F0.0031645569620253164
aF0.9296875
aF0.6875
atp336
a(I01
(lp337
F0.0031645569620253164
aF0.9296875
aF0.6875
atp338
a(I01
(lp339
F0.0031645569620253164
aF0.9296875
aF0.6875
atp340
a(I01
(lp341
F0.0031645569620253164
aF0.9296875
aF0.6875
atp342
a(I01
(lp343
F0.0031645569620253164
aF0.9296875
aF0.6875
atp344
a(I01
(lp345
F0.0031645569620253164
aF0.9296875
aF0.6875
atp346
a(I01
(lp347
F0.0031645569620253164
aF0.9296875
aF0.6875
atp348
a(I01
(lp349
F0.0031645569620253164
aF0.9296875
aF0.3046875
atp350
aa(lp351
(I01
(lp352
F0.0031645569620253164
aF0.03125
aF0.8984375
atp353
a(I00
(lp354
F0.0031645569620253164
aF0.03125
aF0.8984375
atp355
a(I01
(lp356
F0.0031645569620253164
aF0.03125
aF0.65625
atp357
a(N(lp358
F0.0031645569620253164
aF0.9296875
aF0.390625
atp359
a(I01
(lp360
F0.0031645569620253164
aF0.9296875
aF0.6875
atp361
a(I01
(lp362
F0.0031645569620253164
aF0.9296875
aF0.6875
atp363
a(I01
(lp364
F0.0031645569620253164
aF0.9296875
aF0.6875
atp365
a(I01
(lp366
F0.0031645569620253164
aF0.9296875
aF0.6875
atp367
a(I01
(lp368
F0.0031645569620253164
aF0.9296875
aF0.6875
atp369
a(I01
(lp370
F0.0031645569620253164
aF0.828125
aF0.890625
atp371
a(N(lp372
F0
aF0
aF0.09375
atp373
a(N(lp374
F0
aF0
aF0.171875
atp375
a(N(lp376
F0
aF0
aF0.2421875
atp377
a(N(lp378
F0
aF0
aF0.2421875
atp379
a(N(lp380
F0
aF0
aF0.171875
atp381
a(I01
(lp382
F0.0031645569620253164
aF0.9296875
aF0.6875
atp383
a(I01
(lp384
F0.0031645569620253164
aF0.9296875
aF0.6875
atp385
a(I01
(lp386
F0.0031645569620253164
aF0.9296875
aF0.6875
atp387
a(I01
(lp388
F0.0031645569620253164
aF0.9296875
aF0.6875
atp389
a(I01
(lp390
F0.0031645569620253164
aF0.9296875
aF0.6875
atp391
a(I01
(lp392
F0.0031645569620253164
aF0.9296875
aF0.6875
atp393
a(I01
(lp394
F0.0031645569620253164
aF0.9296875
aF0.6875
atp395
a(I01
(lp396
F0.0031645569620253164
aF0.9296875
aF0.6875
atp397
a(I01
(lp398
F0.0031645569620253164
aF0.9296875
aF0.6875
atp399
a(I01
(lp400
F0.0031645569620253164
aF0.9296875
aF0.3046875
atp401
aa(lp402
(I01
(lp403
F0.0031645569620253164
aF0.03125
aF0.8984375
atp404
a(N(lp405
F0.0031645569620253164
aF0.03125
aF0.8984375
atp406
a(I01
(lp407
F0.0031645569620253164
aF0.03125
aF0.65625
atp408
a(I01
(lp409
F0.0031645569620253164
aF0.9296875
aF0.390625
atp410
a(N(lp411
F0.0031645569620253164
aF0.9296875
aF0.46875
atp412
a(N(lp413
F0.0031645569620253164
aF0.9296875
aF0.390625
atp414
a(I01
(lp415
F0.0031645569620253164
aF0.9296875
aF0.3046875
atp416
a(I01
(lp417
F0.0031645569620253164
aF0.9296875
aF0.3046875
atp418
a(I01
(lp419
F0.0031645569620253164
aF0.9296875
aF0.46875
atp420
a(I01
(lp421
F0.0031645569620253164
aF0.9296875
aF0.6875
atp422
a(I01
(lp423
F0.0031645569620253164
aF0.828125
aF0.890625
atp424
a(N(lp425
F0
aF0
aF0.171875
atp426
a(N(lp427
F0
aF0
aF0.171875
atp428
a(N(lp429
F0
aF0
aF0.171875
atp430
a(I01
(lp431
F0.0031645569620253164
aF0.9296875
aF0.6875
atp432
a(I01
(lp433
F0.0031645569620253164
aF0.9296875
aF0.6875
atp434
a(I01
(lp435
F0.0031645569620253164
aF0.9296875
aF0.6875
atp436
a(I01
(lp437
F0.0031645569620253164
aF0.9296875
aF0.6875
atp438
a(I01
(lp439
F0.0031645569620253164
aF0.9296875
aF0.6875
atp440
a(I01
(lp441
F0.0031645569620253164
aF0.9296875
aF0.6875
atp442
a(I01
(lp443
F0.0031645569620253164
aF0.9296875
aF0.6875
atp444
a(I01
(lp445
F0.0031645569620253164
aF0.9296875
aF0.6875
atp446
a(I01
(lp447
F0.0031645569620253164
aF0.9296875
aF0.6875
atp448
a(I01
(lp449
F0.0031645569620253164
aF0.9296875
aF0.6875
atp450
a(I01
(lp451
F0.0031645569620253164
aF0.9296875
aF0.3046875
atp452
aa(lp453
(I01
(lp454
F0.0031645569620253164
aF0.03125
aF0.8984375
atp455
a(I00
(lp456
F0.0031645569620253164
aF0.03125
aF0.8984375
atp457
a(I01
(lp458
F0.0031645569620253164
aF0.03125
aF0.65625
atp459
a(I01
(lp460
F0.0031645569620253164
aF0.9296875
aF0.390625
atp461
a(I01
(lp462
F0.0031645569620253164
aF0.9296875
aF0.46875
atp463
a(I01
(lp464
F0.0031645569620253164
aF0.9296875
aF0.46875
atp465
a(N(lp466
F0.0031645569620253164
aF0.9296875
aF0.46875
atp467
a(N(lp468
F0.0031645569620253164
aF0.9296875
aF0.390625
atp469
a(N(lp470
F0.0031645569620253164
aF0.9296875
aF0.390625
atp471
a(I01
(lp472
F0.0031645569620253164
aF0.9296875
aF0.3046875
atp473
a(I01
(lp474
F0.0031645569620253164
aF0.9296875
aF0.3046875
atp475
a(I01
(lp476
F0.0031645569620253164
aF0.9296875
aF0.3046875
atp477
a(I01
(lp478
F0.0031645569620253164
aF0.9296875
aF0.3046875
atp479
a(I01
(lp480
F0.0031645569620253164
aF0.9296875
aF0.3046875
atp481
a(I01
(lp482
F0.0031645569620253164
aF0.9296875
aF0.3046875
atp483
a(I01
(lp484
F0.0031645569620253164
aF0.9296875
aF0.3046875
atp485
a(I01
(lp486
F0.59177215189873422
aF0.25
aF0.1953125
atp487
a(N(lp488
F0
aF0
aF0.2265625
atp489
a(I01
(lp490
F0.59177215189873422
aF0.25
aF0.4375
atp491
a(I01
(lp492
F0.59177215189873422
aF0.25
aF0.1328125
atp493
a(I00
(lp494
F0
aF0
aF0.2265625
atp495
a(N(lp496
F0
aF0
aF0.2265625
atp497
a(I01
(lp498
F0.0031645569620253164
aF0.03125
aF0.8984375
atp499
a(I01
(lp500
F0.0031645569620253164
aF0.03125
aF0.8984375
atp501
a(N(lp502
F0
aF0
aF0.2265625
atp503
aa(lp504
(I01
(lp505
F0.0031645569620253164
aF0.03125
aF0.8984375
atp506
a(I00
(lp507
F0.0031645569620253164
aF0.03125
aF0.8984375
atp508
a(I01
(lp509
F0.0031645569620253164
aF0.03125
aF0.65625
atp510
a(N(lp511
F0
aF0
aF0.2265625
atp512
a(I01
(lp513
F0.59177215189873422
aF0.25
aF0.4375
atp514
a(I01
(lp515
F0.59177215189873422
aF0.25
aF0.1328125
atp516
a(I01
(lp517
F0.0031645569620253164
aF0.9296875
aF0.6875
atp518
a(I01
(lp519
F0.0031645569620253164
aF0.9296875
aF0.5703125
atp520
a(I01
(lp521
F0.0031645569620253164
aF0.9296875
aF0.46875
atp522
a(N(lp523
F0.0031645569620253164
aF0.9296875
aF0.390625
atp524
a(N(lp525
F0.0031645569620253164
aF0.9296875
aF0.390625
atp526
a(N(lp527
F0.0031645569620253164
aF0.9296875
aF0.390625
atp528
a(N(lp529
F0.0031645569620253164
aF0.9296875
aF0.390625
atp530
a(I01
(lp531
F0.0031645569620253164
aF0.9296875
aF0.3046875
atp532
a(N(lp533
F0
aF0
aF0.2265625
atp534
a(N(lp535
F0
aF0
aF0.2265625
atp536
a(N(lp537
F0
aF0
aF0.2265625
atp538
a(I01
(lp539
F0.59177215189873422
aF0.25
aF0.1953125
atp540
a(I01
(lp541
F0.58544303797468356
aF0.140625
aF0.6328125
atp542
a(I01
(lp543
F0.59177215189873422
aF0.25
aF0.1953125
atp544
a(I00
(lp545
F0
aF0
aF0.2265625
atp546
a(N(lp547
F0
aF0
aF0.34375
atp548
a(I01
(lp549
F0.0031645569620253164
aF0.03125
aF0.8984375
atp550
a(I01
(lp551
F0.0031645569620253164
aF0.03125
aF0.8984375
atp552
a(N(lp553
F0
aF0
aF0.2265625
atp554
aa(lp555
(I01
(lp556
F0.0031645569620253164
aF0.9296875
aF0.6875
atp557
a(I01
(lp558
F0.0031645569620253164
aF0.9296875
aF0.6875
atp559
a(I01
(lp560
F0.0031645569620253164
aF0.9296875
aF0.6875
atp561
a(N(lp562
F0
aF0
aF0.2265625
atp563
a(I01
(lp564
F0.58544303797468356
aF0.140625
aF0.6328125
atp565
a(I01
(lp566
F0.59177215189873422
aF0.25
aF0.1953125
atp567
a(N(lp568
F0
aF0
aF0.2265625
atp569
a(I01
(lp570
F0.0031645569620253164
aF0.9296875
aF0.6875
atp571
a(I01
(lp572
F0.0031645569620253164
aF0.9296875
aF0.5703125
atp573
a(I01
(lp574
F0.0031645569620253164
aF0.9296875
aF0.46875
atp575
a(I01
(lp576
F0.0031645569620253164
aF0.9296875
aF0.46875
atp577
a(I01
(lp578
F0.0031645569620253164
aF0.9296875
aF0.46875
atp579
a(I01
(lp580
F0
aF0
aF0.046875
atp581
a(I01
(lp582
F0
aF0
aF0.046875
atp583
a(N(lp584
F0
aF0
aF0.2265625
atp585
a(I00
(lp586
F0
aF0
aF0.34375
atp587
a(Ng586
tp588
a(Ng586
tp589
a(I01
(lp590
F0.58544303797468356
aF0.140625
aF0.6328125
atp591
a(I01
(lp592
F0.59177215189873422
aF0.25
aF0.1953125
atp593
a(N(lp594
F0
aF0
aF0.2265625
atp595
a(Ng547
tp596
a(I01
(lp597
F0.0031645569620253164
aF0.03125
aF0.8984375
atp598
a(I01
(lp599
F0.0031645569620253164
aF0.03125
aF0.8984375
atp600
a(N(lp601
F0
aF0
aF0.2265625
atp602
aa(lp603
(I01
(lp604
F0.0031645569620253164
aF0.9296875
aF0.6875
atp605
a(I01
(lp606
F0.0031645569620253164
aF0.9296875
aF0.6875
atp607
a(I01
(lp608
F0.0031645569620253164
aF0.9296875
aF0.6875
atp609
a(I01
(lp610
F0
aF0
aF0.046875
atp611
a(I01
(lp612
F0
aF0
aF0.09375
atp613
a(I01
(lp614
F0
aF0
aF0.09375
atp615
a(I01
(lp616
F0
aF0
aF0.046875
atp617
a(I01
(lp618
F0.0031645569620253164
aF0.9296875
aF0.6875
atp619
a(I01
(lp620
F0.0031645569620253164
aF0.9296875
aF0.5703125
atp621
a(I01
(lp622
F0.0031645569620253164
aF0.9296875
aF0.5703125
atp623
a(I01
(lp624
F0.0031645569620253164
aF0.9296875
aF0.46875
atp625
a(I01
(lp626
F0.0031645569620253164
aF0.9296875
aF0.46875
atp627
a(I01
(lp628
F0
aF0
aF0.046875
atp629
a(N(lp630
F0
aF0
aF0.2265625
atp631
a(I00
(lp632
F0
aF0
aF0.2265625
atp633
a(I00
g586
tp634
a(I00
g586
tp635
a(I01
(lp636
F0
aF0
aF0.046875
atp637
a(I01
(lp638
F0
aF0
aF0.09375
atp639
a(I01
(lp640
F0
aF0
aF0.09375
atp641
a(I01
(lp642
F0
aF0
aF0.046875
atp643
a(I00
(lp644
F0
aF0
aF0.2265625
atp645
a(I01
(lp646
F0.0031645569620253164
aF0.9296875
aF0.6875
atp647
a(I01
(lp648
F0.0031645569620253164
aF0.9296875
aF0.6875
atp649
a(N(lp650
F0
aF0
aF0.2265625
atp651
aa(lp652
(I00
(lp653
F0
aF0
aF0.34375
atp654
a(I00
(lp655
F0
aF0
aF0.2265625
atp656
a(I00
(lp657
F0
aF0
aF0.2265625
atp658
a(I01
(lp659
F0
aF0
aF0.046875
atp660
a(I01
(lp661
F0
aF0
aF0.09375
atp662
a(I01
(lp663
F0
aF0
aF0.09375
atp664
a(I01
(lp665
F0
aF0
aF0.046875
atp666
a(N(lp667
F0
aF0
aF0.2265625
atp668
a(I01
(lp669
F0.0031645569620253164
aF0.9296875
aF0.6875
atp670
a(I01
(lp671
F0.0031645569620253164
aF0.9296875
aF0.5703125
atp672
a(I01
(lp673
F0.0031645569620253164
aF0.9296875
aF0.46875
atp674
a(I01
(lp675
F0.0031645569620253164
aF0.9296875
aF0.46875
atp676
a(I01
(lp677
F0.0031645569620253164
aF0.9296875
aF0.3046875
atp678
a(N(lp679
F0
aF0
aF0.2265625
atp680
a(I00
g586
tp681
a(I00
g586
tp682
a(I00
g586
tp683
a(I01
(lp684
F0
aF0
aF0.046875
atp685
a(I01
(lp686
F0
aF0
aF0.09375
atp687
a(I01
(lp688
F0
aF0
aF0.09375
atp689
a(I01
(lp690
F0
aF0
aF0.046875
atp691
a(I00
(lp692
F0
aF0
aF0.2265625
atp693
a(Ng547
tp694
a(N(lp695
F0
aF0
aF0.34375
atp696
a(I00
(lp697
F0
aF0
aF0.34375
atp698
aa(lp699
(I00
g653
tp700
a(I00
g653
tp701
a(I00
g653
tp702
a(I01
(lp703
F0
aF0
aF0.046875
atp704
a(I01
(lp705
F0
aF0
aF0.09375
atp706
a(I01
(lp707
F0
aF0
aF0.09375
atp708
a(I01
(lp709
F0
aF0
aF0.046875
atp710
a(N(lp711
F0
aF0
aF0.2265625
atp712
a(Ng586
tp713
a(N(lp714
F0
aF0
aF0.2265625
atp715
a(I00
(lp716
F0
aF0
aF0.2265625
atp717
a(I00
(lp718
F0
aF0
aF0.2265625
atp719
a(I00
(lp720
F0
aF0
aF0.2265625
atp721
a(I00
(lp722
F0
aF0
aF0.2265625
atp723
a(I00
g586
tp724
a(I00
g586
tp725
a(I00
g586
tp726
a(I01
(lp727
F0
aF0
aF0.046875
atp728
a(I01
(lp729
F0
aF0
aF0.09375
atp730
a(I01
(lp731
F0
aF0
aF0.09375
atp732
a(I01
(lp733
F0
aF0
aF0.046875
atp734
a(I00
(lp735
F0
aF0
aF0.2265625
atp736
a(Ng547
tp737
a(Ng547
tp738
a(I00
g547
tp739
aasS'height'
p740
I15
sS'width'
p741
I25
sS'column_numbers'
p742
(lp743
(I11
tp744
a(I2
I2
tp745
a(I11
tp746
a(I3
I2
I2
I3
tp747
a(I6
I1
I6
tp748
a(I6
I1
I6
tp749
a(I3
I1
I3
I1
I3
tp750
a(I3
I3
I3
tp751
a(I4
I3
I4
tp752
a(I3
I5
I3
tp753
a(I3
I2
I2
I3
tp754
a(I3
I1
I1
I3
tp755
a(I3
I1
I1
I3
tp756
a(I3
I3
tp757
a(I2
I2
tp758
a(I5
tp759
a(I5
tp760
a(I3
I1
I3
I1
I3
tp761
a(I15
tp762
a(I15
tp763
a(I3
I3
I3
tp764
a(I3
tp765
a(I11
tp766
a(I11
tp767
a(I3
tp768
asS'background'
p769
S'blue'
p770
sb.