ccopy_reg
_reconstructor
p1
(cpuzzle
Puzzle
p2
c__builtin__
object
p3
NtRp4
(dp5
S'row_numbers'
p6
(lp7
(I4
tp8
a(I1
I2
tp9
a(I1
I1
I3
I1
tp10
a(I3
I1
I7
tp11
a(I1
I2
I1
I9
tp12
a(I1
I4
I1
I2
I7
tp13
a(I1
I5
I4
I6
tp14
a(I1
I6
I5
I1
I2
tp15
a(I10
I8
I3
I1
tp16
a(I1
I18
I2
tp17
a(I1
I5
I10
I4
I1
tp18
a(I1
I3
I1
I1
I6
I6
I2
tp19
a(I3
I1
I1
I14
I2
tp20
a(I3
I1
I13
I1
tp21
a(I2
I1
I6
I7
I1
tp22
a(I1
I1
I5
I7
I2
tp23
a(I1
I7
I2
I4
I3
tp24
a(I1
I4
I3
I6
tp25
a(I6
I3
I5
tp26
a(I7
I4
I2
tp27
a(I6
I2
tp28
a(I8
I1
I3
tp29
a(I11
I2
I2
tp30
a(I3
I11
I1
tp31
a(I2
I9
I2
tp32
a(I4
I2
I2
I1
I1
tp33
a(I5
I4
I2
tp34
a(I2
I2
I4
I2
tp35
a(I2
I2
I2
tp36
a(I2
I2
I2
tp37
asS'name'
p38
VDragon
p39
sS'cells'
p40
(lp41
(lp42
(I00
(lp43
F0.58227848101265822
aF0.109375
aF0.359375
atp44
a(I00
g43
tp45
a(I00
g43
tp46
a(I00
g43
tp47
a(I00
g43
tp48
a(I00
g43
tp49
a(I00
g43
tp50
a(I00
g43
tp51
a(I00
g43
tp52
a(I00
(lp53
F0.58227848101265822
aF0.109375
aF0.4453125
atp54
a(I00
(lp55
F0.58227848101265822
aF0.109375
aF0.59375
atp56
a(I00
(lp57
F0.58227848101265822
aF0.109375
aF0.59375
atp58
a(I00
(lp59
F0.58227848101265822
aF0.109375
aF0.59375
atp60
a(I00
g59
tp61
a(I00
g59
tp62
a(I00
g59
tp63
a(I00
g59
tp64
a(I00
g59
tp65
a(I00
g59
tp66
a(I01
(lp67
F0.23101265822784811
aF0.28125
aF0.4765625
atp68
a(I01
g67
tp69
a(I01
g67
tp70
a(I01
g67
tp71
a(I00
(lp72
F0.58227848101265822
aF0.109375
aF0.4453125
atp73
a(I00
(lp74
F0.58227848101265822
aF0.109375
aF0.359375
atp75
a(I00
g74
tp76
a(I00
g74
tp77
a(I00
g74
tp78
a(I00
(lp79
F0.58227848101265822
aF0.109375
aF0.359375
atp80
a(I00
(lp81
F0.58227848101265822
aF0.109375
aF0.359375
atp82
aa(lp83
(I00
g43
tp84
a(I00
g43
tp85
a(I00
g43
tp86
a(I00
g43
tp87
a(I00
g43
tp88
a(I00
g43
tp89
a(I00
g43
tp90
a(I00
g43
tp91
a(I00
g43
tp92
a(I00
(lp93
F0.58227848101265822
aF0.109375
aF0.4453125
atp94
a(I00
(lp95
F0.58227848101265822
aF0.109375
aF0.59375
atp96
a(I00
(lp97
F0.58227848101265822
aF0.109375
aF0.59375
atp98
a(I00
g59
tp99
a(I00
g59
tp100
a(I00
g59
tp101
a(I00
g59
tp102
a(I00
g59
tp103
a(I00
g59
tp104
a(I01
(lp105
F0.23101265822784811
aF0.28125
aF0.4765625
atp106
a(N(lp107
F0.23101265822784811
aF0.28125
aF0.7265625
atp108
a(N(lp109
F0.23101265822784811
aF0.28125
aF0.7265625
atp110
a(N(lp111
F0.23101265822784811
aF0.28125
aF0.7265625
atp112
a(I01
(lp113
F0.23101265822784811
aF0.28125
aF0.2421875
atp114
a(I01
g67
tp115
a(Ng74
tp116
a(I00
g74
tp117
a(I00
g74
tp118
a(I00
g74
tp119
a(I00
(lp120
F0.58227848101265822
aF0.109375
aF0.359375
atp121
a(I00
(lp122
F0.58227848101265822
aF0.109375
aF0.359375
atp123
aa(lp124
(I00
g43
tp125
a(I00
g43
tp126
a(I00
g43
tp127
a(I00
g43
tp128
a(I01
g67
tp129
a(I00
g43
tp130
a(I00
g43
tp131
a(I00
g43
tp132
a(I00
g43
tp133
a(I00
(lp134
F0.58227848101265822
aF0.109375
aF0.4453125
atp135
a(I00
(lp136
F0.58227848101265822
aF0.109375
aF0.59375
atp137
a(I00
(lp138
F0.58227848101265822
aF0.109375
aF0.59375
atp139
a(Ng59
tp140
a(Ng59
tp141
a(Ng59
tp142
a(Ng59
tp143
a(Ng59
tp144
a(Ng59
tp145
a(I01
g105
tp146
a(N(lp147
F0.23101265822784811
aF0.28125
aF0.7265625
atp148
a(I01
(lp149
F0.23101265822784811
aF0.28125
aF0.2421875
atp150
a(I01
(lp151
F0.23101265822784811
aF0.28125
aF0.2421875
atp152
a(I01
(lp153
F0.23101265822784811
aF0.28125
aF0.2421875
atp154
a(N(lp155
F0.23101265822784811
aF0.28125
aF0.7265625
atp156
a(I01
g67
tp157
a(I00
g74
tp158
a(I00
g74
tp159
a(I00
g74
tp160
a(I00
g74
tp161
a(I00
(lp162
F0.58227848101265822
aF0.109375
aF0.359375
atp163
aa(lp164
(I00
g43
tp165
a(I00
g43
tp166
a(Ng43
tp167
a(I01
g67
tp168
a(I01
g67
tp169
a(I01
g67
tp170
a(I00
g43
tp171
a(I00
g43
tp172
a(I00
(lp173
F0.58227848101265822
aF0.109375
aF0.359375
atp174
a(I00
(lp175
F0.58227848101265822
aF0.109375
aF0.4453125
atp176
a(I00
(lp177
F0.58227848101265822
aF0.109375
aF0.59375
atp178
a(N(lp179
F0.58227848101265822
aF0.109375
aF0.59375
atp180
a(Ng59
tp181
a(I00
g59
tp182
a(I00
g59
tp183
a(I00
g59
tp184
a(I00
g59
tp185
a(I01
(lp186
F0.23101265822784811
aF0.28125
aF0.4765625
atp187
a(N(lp188
F0.23101265822784811
aF0.28125
aF0.7265625
atp189
a(I01
(lp190
F0.23101265822784811
aF0.28125
aF0.2421875
atp191
a(I01
(lp192
F0.23101265822784811
aF0.28125
aF0.2421875
atp193
a(I01
(lp194
F0.23101265822784811
aF0.28125
aF0.2421875
atp195
a(I01
(lp196
F0.23101265822784811
aF0.28125
aF0.2421875
atp197
a(I01
(lp198
F0.23101265822784811
aF0.28125
aF0.2421875
atp199
a(I01
(lp200
F0.23101265822784811
aF0.28125
aF0.2421875
atp201
a(I01
g67
tp202
a(I00
g74
tp203
a(I00
g74
tp204
a(I00
g74
tp205
a(I00
(lp206
F0.58227848101265822
aF0.109375
aF0.359375
atp207
aa(lp208
(I00
g43
tp209
a(Ng43
tp210
a(I01
(lp211
F0.23101265822784811
aF0.28125
aF0.4765625
atp212
a(N(lp213
F0.23101265822784811
aF0.28125
aF0.7265625
atp214
a(N(lp215
F0.23101265822784811
aF0.28125
aF0.7265625
atp216
a(I01
g67
tp217
a(I01
g67
tp218
a(I00
g43
tp219
a(I00
(lp220
F0.58227848101265822
aF0.109375
aF0.4453125
atp221
a(I00
(lp222
F0.58227848101265822
aF0.109375
aF0.59375
atp223
a(N(lp224
F0.58227848101265822
aF0.109375
aF0.59375
atp225
a(N(lp226
F0.58227848101265822
aF0.109375
aF0.59375
atp227
a(I00
g59
tp228
a(I00
g59
tp229
a(I00
g59
tp230
a(I00
g59
tp231
a(I01
g67
tp232
a(N(lp233
F0.23101265822784811
aF0.28125
aF0.7265625
atp234
a(I01
(lp235
F0.23101265822784811
aF0.28125
aF0.2421875
atp236
a(I01
(lp237
F0.23101265822784811
aF0.28125
aF0.2421875
atp238
a(I01
(lp239
F0.23101265822784811
aF0.28125
aF0.2421875
atp240
a(I01
(lp241
F0.23101265822784811
aF0.28125
aF0.2421875
atp242
a(I01
(lp243
F0.23101265822784811
aF0.28125
aF0.2421875
atp244
a(I01
(lp245
F0.23101265822784811
aF0.28125
aF0.2421875
atp246
a(I01
(lp247
F0.23101265822784811
aF0.28125
aF0.2421875
atp248
a(I01
(lp249
F0.23101265822784811
aF0.28125
aF0.2421875
atp250
a(I01
g67
tp251
a(Ng74
tp252
a(I00
g74
tp253
a(I00
(lp254
F0.58227848101265822
aF0.109375
aF0.359375
atp255
aa(lp256
(I00
g43
tp257
a(I01
g67
tp258
a(N(lp259
F0.23101265822784811
aF0.28125
aF0.7265625
atp260
a(I01
(lp261
F0.23101265822784811
aF0.28125
aF0.2421875
atp262
a(I01
(lp263
F0.23101265822784811
aF0.28125
aF0.2421875
atp264
a(I01
(lp265
F0.23101265822784811
aF0.28125
aF0.2421875
atp266
a(I01
g67
tp267
a(Ng43
tp268
a(I00
(lp269
F0.58227848101265822
aF0.109375
aF0.4453125
atp270
a(Ng59
tp271
a(Ng59
tp272
a(I00
g59
tp273
a(I00
g59
tp274
a(Ng59
tp275
a(Ng59
tp276
a(Ng59
tp277
a(I01
g67
tp278
a(N(lp279
F0.23101265822784811
aF0.28125
aF0.7265625
atp280
a(I01
(lp281
F0.23101265822784811
aF0.28125
aF0.2421875
atp282
a(I01
(lp283
F0.23101265822784811
aF0.28125
aF0.2421875
atp284
a(N(lp285
F0.58227848101265822
aF0.109375
aF0.59375
atp286
a(I01
(lp287
F0.23101265822784811
aF0.28125
aF0.2421875
atp288
a(I01
(lp289
F0.23101265822784811
aF0.28125
aF0.2421875
atp290
a(I01
(lp291
F0.23101265822784811
aF0.28125
aF0.2421875
atp292
a(I01
(lp293
F0.23101265822784811
aF0.28125
aF0.2421875
atp294
a(I01
(lp295
F0.23101265822784811
aF0.28125
aF0.2421875
atp296
a(I01
(lp297
F0.23101265822784811
aF0.28125
aF0.2421875
atp298
a(I01
g67
tp299
a(I00
g74
tp300
a(I00
(lp301
F0.58227848101265822
aF0.109375
aF0.359375
atp302
aa(lp303
(I00
g43
tp304
a(I01
g67
tp305
a(N(lp306
F0.23101265822784811
aF0.28125
aF0.7265625
atp307
a(I01
(lp308
F0.23101265822784811
aF0.28125
aF0.2421875
atp309
a(I01
(lp310
F0.23101265822784811
aF0.28125
aF0.2421875
atp311
a(I01
(lp312
F0.23101265822784811
aF0.28125
aF0.2421875
atp313
a(I01
(lp314
F0.23101265822784811
aF0.28125
aF0.2421875
atp315
a(I01
g67
tp316
a(N(lp317
F0.58227848101265822
aF0.109375
aF0.4453125
atp318
a(Ng59
tp319
a(I00
g59
tp320
a(Ng59
tp321
a(Ng59
tp322
a(Ng59
tp323
a(I00
g59
tp324
a(I01
g67
tp325
a(I01
g67
tp326
a(I01
(lp327
F0.23101265822784811
aF0.28125
aF0.2421875
atp328
a(I01
(lp329
F0.23101265822784811
aF0.28125
aF0.2421875
atp330
a(Ng285
tp331
a(Ng285
tp332
a(Ng285
tp333
a(I01
(lp334
F0.23101265822784811
aF0.28125
aF0.2421875
atp335
a(I01
(lp336
F0.23101265822784811
aF0.28125
aF0.2421875
atp337
a(I01
(lp338
F0.23101265822784811
aF0.28125
aF0.2421875
atp339
a(I01
(lp340
F0.23101265822784811
aF0.28125
aF0.2421875
atp341
a(I01
(lp342
F0.23101265822784811
aF0.28125
aF0.2421875
atp343
a(I01
(lp344
F0.23101265822784811
aF0.28125
aF0.328125
atp345
a(I00
g74
tp346
a(I00
g74
tp347
aa(lp348
(Ng43
tp349
a(I01
g67
tp350
a(N(lp351
F0.23101265822784811
aF0.28125
aF0.7265625
atp352
a(I01
(lp353
F0.23101265822784811
aF0.28125
aF0.2421875
atp354
a(I01
(lp355
F0.23101265822784811
aF0.28125
aF0.2421875
atp356
a(I01
(lp357
F0.23101265822784811
aF0.28125
aF0.2421875
atp358
a(I01
(lp359
F0.23101265822784811
aF0.28125
aF0.2421875
atp360
a(I01
(lp361
F0.23101265822784811
aF0.28125
aF0.2421875
atp362
a(I01
g67
tp363
a(I00
g59
tp364
a(Ng59
tp365
a(Ng59
tp366
a(I00
g59
tp367
a(I01
g67
tp368
a(I01
g67
tp369
a(I01
g67
tp370
a(I01
(lp371
F0.23101265822784811
aF0.28125
aF0.2421875
atp372
a(I01
(lp373
F0.23101265822784811
aF0.28125
aF0.2421875
atp374
a(Ng285
tp375
a(Ng285
tp376
a(I00
g285
tp377
a(I00
(lp378
F0.58227848101265822
aF0.109375
aF0.59375
atp379
a(I00
(lp380
F0.58227848101265822
aF0.109375
aF0.59375
atp381
a(I00
(lp382
F0.58227848101265822
aF0.109375
aF0.59375
atp383
a(I01
(lp384
F0.23101265822784811
aF0.28125
aF0.2421875
atp385
a(I00
g74
tp386
a(Ng74
tp387
a(I01
(lp388
F0.23101265822784811
aF0.28125
aF0.2421875
atp389
a(I01
g67
tp390
a(I00
g74
tp391
aa(lp392
(I01
g67
tp393
a(I01
g67
tp394
a(I01
(lp395
F0.23101265822784811
aF0.28125
aF0.2421875
atp396
a(I01
(lp397
F0.23101265822784811
aF0.28125
aF0.2421875
atp398
a(I01
(lp399
F0.23101265822784811
aF0.28125
aF0.2421875
atp400
a(I01
(lp401
F0.23101265822784811
aF0.28125
aF0.2421875
atp402
a(I01
(lp403
F0.23101265822784811
aF0.28125
aF0.2421875
atp404
a(I01
(lp405
F0.23101265822784811
aF0.28125
aF0.2421875
atp406
a(I01
(lp407
F0.23101265822784811
aF0.28125
aF0.2421875
atp408
a(I01
g67
tp409
a(I00
g59
tp410
a(I01
g67
tp411
a(I01
g67
tp412
a(I01
g67
tp413
a(I01
g67
tp414
a(I01
(lp415
F0.23101265822784811
aF0.28125
aF0.328125
atp416
a(I01
(lp417
F0.23101265822784811
aF0.28125
aF0.2421875
atp418
a(I01
(lp419
F0.23101265822784811
aF0.28125
aF0.2421875
atp420
a(I01
(lp421
F0.23101265822784811
aF0.28125
aF0.2421875
atp422
a(Ng285
tp423
a(I01
g67
tp424
a(I01
g67
tp425
a(I01
g67
tp426
a(I00
(lp427
F0.58227848101265822
aF0.109375
aF0.59375
atp428
a(I00
(lp429
F0.58227848101265822
aF0.109375
aF0.4453125
atp430
a(I00
g74
tp431
a(Ng74
tp432
a(Ng74
tp433
a(I01
g67
tp434
a(I00
g74
tp435
aa(lp436
(I01
g67
tp437
a(N(lp438
F0.23101265822784811
aF0.28125
aF0.7265625
atp439
a(I01
(lp440
F0.23101265822784811
aF0.28125
aF0.2421875
atp441
a(I01
(lp442
F0.23101265822784811
aF0.28125
aF0.2421875
atp443
a(I01
(lp444
F0.23101265822784811
aF0.28125
aF0.2421875
atp445
a(I01
(lp446
F0.23101265822784811
aF0.28125
aF0.2421875
atp447
a(I01
(lp448
F0.23101265822784811
aF0.28125
aF0.2421875
atp449
a(I01
(lp450
F0.23101265822784811
aF0.28125
aF0.2421875
atp451
a(I01
(lp452
F0.23101265822784811
aF0.28125
aF0.2421875
atp453
a(I01
(lp454
F0.23101265822784811
aF0.28125
aF0.2421875
atp455
a(I01
g67
tp456
a(I01
g67
tp457
a(I01
g67
tp458
a(I01
g67
tp459
a(I01
g67
tp460
a(I01
(lp461
F0.23101265822784811
aF0.28125
aF0.2421875
atp462
a(I01
(lp463
F0.23101265822784811
aF0.28125
aF0.2421875
atp464
a(I01
(lp465
F0.23101265822784811
aF0.28125
aF0.2421875
atp466
a(I01
g67
tp467
a(I01
g67
tp468
a(N(lp469
F0.23101265822784811
aF0.28125
aF0.7265625
atp470
a(N(lp471
F0.23101265822784811
aF0.28125
aF0.7265625
atp472
a(I01
g67
tp473
a(I01
g67
tp474
a(I00
(lp475
F0.58227848101265822
aF0.109375
aF0.4453125
atp476
a(I00
g74
tp477
a(I00
g74
tp478
a(Ng74
tp479
a(I00
g74
tp480
a(I00
g74
tp481
aa(lp482
(I01
g67
tp483
a(N(lp484
F0.23101265822784811
aF0.28125
aF0.7265625
atp485
a(I01
(lp486
F0.23101265822784811
aF0.28125
aF0.2421875
atp487
a(I01
(lp488
F0.23101265822784811
aF0.28125
aF0.2421875
atp489
a(I01
(lp490
F0.23101265822784811
aF0.28125
aF0.2421875
atp491
a(I01
(lp492
F0.23101265822784811
aF0.28125
aF0.2421875
atp493
a(I01
(lp494
F0.23101265822784811
aF0.28125
aF0.2421875
atp495
a(N(lp496
F0.58227848101265822
aF0.109375
aF0.4453125
atp497
a(I01
(lp498
F0.23101265822784811
aF0.28125
aF0.2421875
atp499
a(I01
(lp500
F0.23101265822784811
aF0.28125
aF0.2421875
atp501
a(I01
g67
tp502
a(I01
g67
tp503
a(I01
g67
tp504
a(I01
g67
tp505
a(I01
(lp506
F0.23101265822784811
aF0.28125
aF0.2421875
atp507
a(I01
(lp508
F0.23101265822784811
aF0.28125
aF0.2421875
atp509
a(I01
(lp510
F0.23101265822784811
aF0.28125
aF0.2421875
atp511
a(I01
g67
tp512
a(N(lp513
F0.23101265822784811
aF0.28125
aF0.7265625
atp514
a(N(lp515
F0.23101265822784811
aF0.28125
aF0.7265625
atp516
a(I01
(lp517
F0.23101265822784811
aF0.28125
aF0.2421875
atp518
a(I01
g67
tp519
a(I01
g67
tp520
a(I01
g67
tp521
a(I00
(lp522
F0.58227848101265822
aF0.109375
aF0.4453125
atp523
a(I00
g74
tp524
a(I00
g74
tp525
a(I01
g67
tp526
a(Ng74
tp527
a(I00
g74
tp528
aa(lp529
(I01
g67
tp530
a(N(lp531
F0.23101265822784811
aF0.28125
aF0.7265625
atp532
a(I01
(lp533
F0.23101265822784811
aF0.28125
aF0.2421875
atp534
a(I01
(lp535
F0.23101265822784811
aF0.28125
aF0.2421875
atp536
a(I01
(lp537
F0.23101265822784811
aF0.28125
aF0.2421875
atp538
a(N(lp539
F0.58227848101265822
aF0.109375
aF0.359375
atp540
a(I01
(lp541
F0.23101265822784811
aF0.28125
aF0.2421875
atp542
a(I00
(lp543
F0.58227848101265822
aF0.109375
aF0.4453125
atp544
a(I00
(lp545
F0.58227848101265822
aF0.109375
aF0.59375
atp546
a(I01
(lp547
F0.23101265822784811
aF0.28125
aF0.4765625
atp548
a(N(lp549
F0.23101265822784811
aF0.28125
aF0.7265625
atp550
a(I01
g67
tp551
a(I01
g67
tp552
a(I01
(lp553
F0.23101265822784811
aF0.28125
aF0.2421875
atp554
a(I01
(lp555
F0.23101265822784811
aF0.28125
aF0.2421875
atp556
a(I01
(lp557
F0.23101265822784811
aF0.28125
aF0.2421875
atp558
a(I01
(lp559
F0.23101265822784811
aF0.28125
aF0.4765625
atp560
a(N(lp561
F0.23101265822784811
aF0.28125
aF0.7265625
atp562
a(I01
g67
tp563
a(I01
(lp564
F0.23101265822784811
aF0.28125
aF0.2421875
atp565
a(I01
(lp566
F0.23101265822784811
aF0.28125
aF0.4765625
atp567
a(I01
g67
tp568
a(I01
g67
tp569
a(I01
(lp570
F0.23101265822784811
aF0.28125
aF0.2421875
atp571
a(I00
(lp572
F0.58227848101265822
aF0.109375
aF0.4453125
atp573
a(I00
(lp574
F0.58227848101265822
aF0.109375
aF0.359375
atp575
a(Ng74
tp576
a(I01
(lp577
F0.23101265822784811
aF0.28125
aF0.2421875
atp578
a(I01
g67
tp579
a(I00
g74
tp580
aa(lp581
(I01
g67
tp582
a(I01
(lp583
F0.23101265822784811
aF0.28125
aF0.2421875
atp584
a(I01
(lp585
F0.23101265822784811
aF0.28125
aF0.2421875
atp586
a(Ng539
tp587
a(I01
(lp588
F0.23101265822784811
aF0.28125
aF0.2421875
atp589
a(Ng539
tp590
a(N(lp591
F0.58227848101265822
aF0.109375
aF0.4453125
atp592
a(I00
(lp593
F0.58227848101265822
aF0.109375
aF0.59375
atp594
a(I01
(lp595
F0.23101265822784811
aF0.28125
aF0.4765625
atp596
a(N(lp597
F0.23101265822784811
aF0.28125
aF0.7265625
atp598
a(I01
g67
tp599
a(I01
g67
tp600
a(I01
(lp601
F0.23101265822784811
aF0.28125
aF0.328125
atp602
a(I01
(lp603
F0.23101265822784811
aF0.28125
aF0.2421875
atp604
a(I01
(lp605
F0.23101265822784811
aF0.28125
aF0.2421875
atp606
a(I01
(lp607
F0.23101265822784811
aF0.28125
aF0.2421875
atp608
a(I01
(lp609
F0.23101265822784811
aF0.28125
aF0.2421875
atp610
a(I01
g67
tp611
a(I01
(lp612
F0.23101265822784811
aF0.28125
aF0.328125
atp613
a(I01
(lp614
F0.23101265822784811
aF0.28125
aF0.2421875
atp615
a(I01
g67
tp616
a(I01
g67
tp617
a(I01
(lp618
F0.23101265822784811
aF0.28125
aF0.2421875
atp619
a(I01
(lp620
F0.23101265822784811
aF0.28125
aF0.2421875
atp621
a(I00
(lp622
F0.58227848101265822
aF0.109375
aF0.59375
atp623
a(I00
(lp624
F0.58227848101265822
aF0.109375
aF0.4453125
atp625
a(Ng74
tp626
a(I00
g74
tp627
a(I01
(lp628
F0.23101265822784811
aF0.28125
aF0.2421875
atp629
a(I01
g67
tp630
aa(lp631
(I01
g67
tp632
a(I01
(lp633
F0.23101265822784811
aF0.28125
aF0.2421875
atp634
a(I01
(lp635
F0.23101265822784811
aF0.28125
aF0.2421875
atp636
a(Ng539
tp637
a(Ng539
tp638
a(Ng539
tp639
a(N(lp640
F0.58227848101265822
aF0.109375
aF0.4453125
atp641
a(N(lp642
F0.58227848101265822
aF0.109375
aF0.59375
atp643
a(I01
g595
tp644
a(N(lp645
F0.23101265822784811
aF0.28125
aF0.7265625
atp646
a(I01
g67
tp647
a(I01
g67
tp648
a(I01
(lp649
F0.23101265822784811
aF0.28125
aF0.2421875
atp650
a(I01
(lp651
F0.23101265822784811
aF0.28125
aF0.2421875
atp652
a(I01
(lp653
F0.23101265822784811
aF0.28125
aF0.2421875
atp654
a(I01
(lp655
F0.10443037974683544
aF0.609375
aF0.6171875
atp656
a(I01
(lp657
F0.10443037974683544
aF0.609375
aF0.6171875
atp658
a(I01
(lp659
F0.23101265822784811
aF0.28125
aF0.2421875
atp660
a(I01
(lp661
F0.23101265822784811
aF0.28125
aF0.2421875
atp662
a(I01
g67
tp663
a(I01
g67
tp664
a(I01
(lp665
F0.23101265822784811
aF0.28125
aF0.2421875
atp666
a(I01
(lp667
F0.23101265822784811
aF0.28125
aF0.2421875
atp668
a(I00
(lp669
F0.58227848101265822
aF0.109375
aF0.59375
atp670
a(N(lp671
F0.58227848101265822
aF0.109375
aF0.59375
atp672
a(I00
(lp673
F0.58227848101265822
aF0.109375
aF0.4453125
atp674
a(Ng74
tp675
a(I00
g74
tp676
a(I00
g74
tp677
a(I01
g67
tp678
aa(lp679
(I01
g67
tp680
a(I01
(lp681
F0.23101265822784811
aF0.28125
aF0.2421875
atp682
a(Ng539
tp683
a(Ng539
tp684
a(Ng539
tp685
a(Ng539
tp686
a(N(lp687
F0.58227848101265822
aF0.109375
aF0.4453125
atp688
a(I01
g67
tp689
a(N(lp690
F0.23101265822784811
aF0.28125
aF0.7265625
atp691
a(I01
g67
tp692
a(I01
g67
tp693
a(I01
(lp694
F0.23101265822784811
aF0.28125
aF0.328125
atp695
a(I01
(lp696
F0.23101265822784811
aF0.28125
aF0.2421875
atp697
a(I01
(lp698
F0.23101265822784811
aF0.28125
aF0.2421875
atp699
a(I01
(lp700
F0.10443037974683544
aF0.609375
aF0.6171875
atp701
a(N(lp702
F0.12341772151898735
aF0.6171875
aF0.875
atp703
a(N(lp704
F0.12341772151898735
aF0.6171875
aF0.6484375
atp705
a(I01
(lp706
F0.10443037974683544
aF0.609375
aF0.6171875
atp707
a(I01
(lp708
F0.23101265822784811
aF0.28125
aF0.2421875
atp709
a(I01
g67
tp710
a(I01
g67
tp711
a(I01
(lp712
F0.23101265822784811
aF0.28125
aF0.2421875
atp713
a(I01
(lp714
F0.23101265822784811
aF0.28125
aF0.2421875
atp715
a(I01
(lp716
F0.23101265822784811
aF0.28125
aF0.2421875
atp717
a(N(lp718
F0.58227848101265822
aF0.109375
aF0.59375
atp719
a(I00
(lp720
F0.58227848101265822
aF0.109375
aF0.4453125
atp721
a(I00
g74
tp722
a(I00
g74
tp723
a(I00
g74
tp724
a(I01
(lp725
F0.23101265822784811
aF0.28125
aF0.328125
atp726
aa(lp727
(Ng539
tp728
a(I01
(lp729
F0.23101265822784811
aF0.28125
aF0.2421875
atp730
a(Ng539
tp731
a(Ng539
tp732
a(Ng539
tp733
a(N(lp734
F0.58227848101265822
aF0.109375
aF0.359375
atp735
a(N(lp736
F0.58227848101265822
aF0.109375
aF0.4453125
atp737
a(I01
g67
tp738
a(N(lp739
F0.23101265822784811
aF0.28125
aF0.7265625
atp740
a(I01
g67
tp741
a(I01
g67
tp742
a(I01
(lp743
F0.23101265822784811
aF0.28125
aF0.2421875
atp744
a(I01
(lp745
F0.23101265822784811
aF0.28125
aF0.2421875
atp746
a(I01
(lp747
F0.10443037974683544
aF0.609375
aF0.6171875
atp748
a(N(lp749
F0.14873417721518986
aF0.7890625
aF0.8984375
atp750
a(N(lp751
F0.12974683544303797
aF0.3828125
aF0.984375
atp752
a(Ng702
tp753
a(N(lp754
F0.12341772151898735
aF0.6171875
aF0.6484375
atp755
a(I01
(lp756
F0.10443037974683544
aF0.609375
aF0.6171875
atp757
a(I01
g67
tp758
a(I01
(lp759
F0.23101265822784811
aF0.28125
aF0.2421875
atp760
a(I01
(lp761
F0.23101265822784811
aF0.28125
aF0.2421875
atp762
a(I01
(lp763
F0.23101265822784811
aF0.28125
aF0.2421875
atp764
a(I01
(lp765
F0.23101265822784811
aF0.28125
aF0.2421875
atp766
a(I01
(lp767
F0.23101265822784811
aF0.28125
aF0.2421875
atp768
a(I00
(lp769
F0.58227848101265822
aF0.109375
aF0.4453125
atp770
a(I00
(lp771
F0.58227848101265822
aF0.109375
aF0.359375
atp772
a(I00
g74
tp773
a(I01
g67
tp774
a(I01
(lp775
F0.23101265822784811
aF0.28125
aF0.2421875
atp776
aa(lp777
(Ng539
tp778
a(I01
(lp779
F0.23101265822784811
aF0.28125
aF0.2421875
atp780
a(Ng539
tp781
a(Ng539
tp782
a(Ng539
tp783
a(N(lp784
F0.58227848101265822
aF0.109375
aF0.4453125
atp785
a(N(lp786
F0.58227848101265822
aF0.109375
aF0.59375
atp787
a(I01
g67
tp788
a(I01
g67
tp789
a(I01
g67
tp790
a(I01
g67
tp791
a(I01
(lp792
F0.23101265822784811
aF0.28125
aF0.2421875
atp793
a(I01
(lp794
F0.23101265822784811
aF0.28125
aF0.2421875
atp795
a(I01
(lp796
F0.10443037974683544
aF0.609375
aF0.6171875
atp797
a(Ng702
tp798
a(I00
g702
tp799
a(I00
(lp800
F0.4651898734177215
aF0.296875
aF0.8515625
atp801
a(N(lp802
F0.12341772151898735
aF0.6171875
aF0.6484375
atp803
a(N(lp804
F0.12341772151898735
aF0.6171875
aF0.6484375
atp805
a(I01
g67
tp806
a(I01
(lp807
F0.23101265822784811
aF0.28125
aF0.2421875
atp808
a(I00
(lp809
F0.58227848101265822
aF0.109375
aF0.59375
atp810
a(I01
(lp811
F0.23101265822784811
aF0.28125
aF0.2421875
atp812
a(I01
(lp813
F0.23101265822784811
aF0.28125
aF0.2421875
atp814
a(I01
(lp815
F0.23101265822784811
aF0.28125
aF0.2421875
atp816
a(I01
(lp817
F0.23101265822784811
aF0.28125
aF0.2421875
atp818
a(I00
(lp819
F0.58227848101265822
aF0.109375
aF0.359375
atp820
a(I01
g67
tp821
a(I01
(lp822
F0.23101265822784811
aF0.28125
aF0.2421875
atp823
a(I01
(lp824
F0.23101265822784811
aF0.28125
aF0.2421875
atp825
aa(lp826
(Ng539
tp827
a(Ng539
tp828
a(Ng539
tp829
a(Ng539
tp830
a(Ng539
tp831
a(N(lp832
F0.58227848101265822
aF0.109375
aF0.4453125
atp833
a(Ng786
tp834
a(I01
g67
tp835
a(N(lp836
F0.23101265822784811
aF0.28125
aF0.7265625
atp837
a(I01
g67
tp838
a(I01
g67
tp839
a(I01
(lp840
F0.23101265822784811
aF0.28125
aF0.2421875
atp841
a(I01
(lp842
F0.23101265822784811
aF0.28125
aF0.2421875
atp843
a(N(lp844
F0.12341772151898735
aF0.6171875
aF0.6484375
atp845
a(I00
(lp846
F0.12974683544303797
aF0.3828125
aF0.984375
atp847
a(I00
(lp848
F0.14873417721518986
aF0.7890625
aF0.8984375
atp849
a(I00
g702
tp850
a(N(lp851
F0.12974683544303797
aF0.3828125
aF0.984375
atp852
a(N(lp853
F0.12341772151898735
aF0.6171875
aF0.6484375
atp854
a(I01
g67
tp855
a(I01
(lp856
F0.23101265822784811
aF0.28125
aF0.328125
atp857
a(I01
(lp858
F0.23101265822784811
aF0.28125
aF0.2421875
atp859
a(I00
(lp860
F0.58227848101265822
aF0.109375
aF0.59375
atp861
a(I01
(lp862
F0.23101265822784811
aF0.28125
aF0.2421875
atp863
a(I01
(lp864
F0.23101265822784811
aF0.28125
aF0.2421875
atp865
a(I01
(lp866
F0.23101265822784811
aF0.28125
aF0.2421875
atp867
a(I01
(lp868
F0.23101265822784811
aF0.28125
aF0.2421875
atp869
a(I01
(lp870
F0.23101265822784811
aF0.28125
aF0.2421875
atp871
a(I01
(lp872
F0.23101265822784811
aF0.28125
aF0.2421875
atp873
a(N(lp874
F0.58227848101265822
aF0.109375
aF0.359375
atp875
aa(lp876
(Ng539
tp877
a(Ng539
tp878
a(Ng539
tp879
a(Ng539
tp880
a(N(lp881
F0.58227848101265822
aF0.109375
aF0.359375
atp882
a(N(lp883
F0.58227848101265822
aF0.109375
aF0.4453125
atp884
a(Ng786
tp885
a(I01
(lp886
F0.23101265822784811
aF0.28125
aF0.328125
atp887
a(I01
g67
tp888
a(I01
g67
tp889
a(I01
g67
tp890
a(I01
g67
tp891
a(I01
(lp892
F0.23101265822784811
aF0.28125
aF0.2421875
atp893
a(I00
(lp894
F0.12341772151898735
aF0.6171875
aF0.6484375
atp895
a(I00
g702
tp896
a(I00
g702
tp897
a(I00
(lp898
F0.12974683544303797
aF0.3828125
aF0.984375
atp899
a(I00
g702
tp900
a(N(lp901
F0.12341772151898735
aF0.6171875
aF0.6484375
atp902
a(I01
(lp903
F0.23101265822784811
aF0.28125
aF0.4765625
atp904
a(I01
g67
tp905
a(I01
(lp906
F0.23101265822784811
aF0.28125
aF0.2421875
atp907
a(I00
g860
tp908
a(Ng860
tp909
a(I01
(lp910
F0.23101265822784811
aF0.28125
aF0.2421875
atp911
a(I01
(lp912
F0.23101265822784811
aF0.28125
aF0.2421875
atp913
a(I01
(lp914
F0.23101265822784811
aF0.28125
aF0.2421875
atp915
a(I01
(lp916
F0.23101265822784811
aF0.28125
aF0.2421875
atp917
a(I01
(lp918
F0.23101265822784811
aF0.28125
aF0.2421875
atp919
a(I00
g874
tp920
aa(lp921
(Ng539
tp922
a(Ng539
tp923
a(Ng539
tp924
a(Ng539
tp925
a(N(lp926
F0.58227848101265822
aF0.109375
aF0.4453125
atp927
a(N(lp928
F0.58227848101265822
aF0.109375
aF0.59375
atp929
a(Ng786
tp930
a(I01
(lp931
F0.23101265822784811
aF0.28125
aF0.2421875
atp932
a(I01
(lp933
F0.23101265822784811
aF0.28125
aF0.328125
atp934
a(I01
g67
tp935
a(I01
g67
tp936
a(I01
g67
tp937
a(I01
g67
tp938
a(I01
g67
tp939
a(I00
g702
tp940
a(I00
(lp941
F0.12974683544303797
aF0.3828125
aF0.984375
atp942
a(I00
g702
tp943
a(I00
(lp944
F0.14873417721518986
aF0.7890625
aF0.8984375
atp945
a(I00
(lp946
F0.91139240506329111
aF0.3828125
aF0.765625
atp947
a(I01
(lp948
F0.23101265822784811
aF0.28125
aF0.4765625
atp949
a(I01
(lp950
F0.23101265822784811
aF0.28125
aF0.4765625
atp951
a(I01
(lp952
F0.23101265822784811
aF0.28125
aF0.2421875
atp953
a(I01
(lp954
F0.10443037974683544
aF0.609375
aF0.6171875
atp955
a(Ng860
tp956
a(N(lp957
F0.58227848101265822
aF0.109375
aF0.59375
atp958
a(N(lp959
F0.58227848101265822
aF0.109375
aF0.59375
atp960
a(I01
(lp961
F0.23101265822784811
aF0.28125
aF0.2421875
atp962
a(I01
(lp963
F0.23101265822784811
aF0.28125
aF0.2421875
atp964
a(I00
g874
tp965
a(I00
g874
tp966
aa(lp967
(I00
g539
tp968
a(Ng539
tp969
a(Ng539
tp970
a(Ng539
tp971
a(N(lp972
F0.58227848101265822
aF0.109375
aF0.4453125
atp973
a(Ng786
tp974
a(Ng786
tp975
a(Ng786
tp976
a(I01
(lp977
F0.23101265822784811
aF0.28125
aF0.2421875
atp978
a(I01
g67
tp979
a(I01
g67
tp980
a(I01
g67
tp981
a(I01
g67
tp982
a(I01
g67
tp983
a(I00
(lp984
F0.14873417721518986
aF0.7890625
aF0.8984375
atp985
a(I00
g702
tp986
a(I00
(lp987
F0.14873417721518986
aF0.7890625
aF0.8984375
atp988
a(I00
(lp989
F0.12974683544303797
aF0.3828125
aF0.984375
atp990
a(I00
g702
tp991
a(N(lp992
F0.12341772151898735
aF0.6171875
aF0.6484375
atp993
a(N(lp994
F0.12341772151898735
aF0.6171875
aF0.6484375
atp995
a(N(lp996
F0.12341772151898735
aF0.6171875
aF0.6484375
atp997
a(I01
(lp998
F0.10443037974683544
aF0.609375
aF0.6171875
atp999
a(I01
(lp1000
F0.10443037974683544
aF0.609375
aF0.6171875
atp1001
a(N(lp1002
F0.58227848101265822
aF0.109375
aF0.59375
atp1003
a(N(lp1004
F0.58227848101265822
aF0.109375
aF0.59375
atp1005
a(N(lp1006
F0.58227848101265822
aF0.109375
aF0.4453125
atp1007
a(N(lp1008
F0.58227848101265822
aF0.109375
aF0.359375
atp1009
a(Ng874
tp1010
a(I00
g874
tp1011
aa(lp1012
(I00
g539
tp1013
a(Ng539
tp1014
a(Ng539
tp1015
a(N(lp1016
F0.58227848101265822
aF0.109375
aF0.359375
atp1017
a(N(lp1018
F0.58227848101265822
aF0.109375
aF0.4453125
atp1019
a(Ng786
tp1020
a(Ng786
tp1021
a(I01
(lp1022
F0.23101265822784811
aF0.28125
aF0.4765625
atp1023
a(I01
(lp1024
F0.23101265822784811
aF0.28125
aF0.2421875
atp1025
a(I01
(lp1026
F0.23101265822784811
aF0.28125
aF0.2421875
atp1027
a(I01
(lp1028
F0.23101265822784811
aF0.28125
aF0.328125
atp1029
a(I01
g67
tp1030
a(I01
g67
tp1031
a(I01
g67
tp1032
a(I01
g67
tp1033
a(I00
g702
tp1034
a(I01
g67
tp1035
a(Ng702
tp1036
a(I00
(lp1037
F0.27531645569620256
aF0.390625
aF0.8828125
atp1038
a(I00
(lp1039
F0.12974683544303797
aF0.3828125
aF0.984375
atp1040
a(N(lp1041
F0.12341772151898735
aF0.6171875
aF0.6484375
atp1042
a(I01
(lp1043
F0.23101265822784811
aF0.28125
aF0.4765625
atp1044
a(I01
(lp1045
F0.10443037974683544
aF0.609375
aF0.6171875
atp1046
a(I01
(lp1047
F0.10443037974683544
aF0.609375
aF0.6171875
atp1048
a(N(lp1049
F0.58227848101265822
aF0.109375
aF0.59375
atp1050
a(I00
(lp1051
F0.58227848101265822
aF0.109375
aF0.59375
atp1052
a(I00
(lp1053
F0.58227848101265822
aF0.109375
aF0.59375
atp1054
a(I00
(lp1055
F0.58227848101265822
aF0.109375
aF0.4453125
atp1056
a(Ng874
tp1057
a(Ng874
tp1058
aa(lp1059
(I00
g539
tp1060
a(Ng539
tp1061
a(Ng539
tp1062
a(N(lp1063
F0.58227848101265822
aF0.109375
aF0.4453125
atp1064
a(N(lp1065
F0.58227848101265822
aF0.109375
aF0.59375
atp1066
a(Ng786
tp1067
a(Ng786
tp1068
a(I01
(lp1069
F0.23101265822784811
aF0.28125
aF0.4765625
atp1070
a(I01
(lp1071
F0.23101265822784811
aF0.28125
aF0.2421875
atp1072
a(I01
(lp1073
F0.23101265822784811
aF0.28125
aF0.2421875
atp1074
a(I01
(lp1075
F0.23101265822784811
aF0.28125
aF0.2421875
atp1076
a(I01
(lp1077
F0.23101265822784811
aF0.28125
aF0.2421875
atp1078
a(I01
(lp1079
F0.23101265822784811
aF0.28125
aF0.328125
atp1080
a(I01
g67
tp1081
a(I01
g67
tp1082
a(I01
(lp1083
F0.23101265822784811
aF0.28125
aF0.2421875
atp1084
a(I01
g67
tp1085
a(I01
g67
tp1086
a(Ng702
tp1087
a(I00
(lp1088
F0.14873417721518986
aF0.7890625
aF0.8984375
atp1089
a(I01
(lp1090
F0.23101265822784811
aF0.28125
aF0.4765625
atp1091
a(I01
(lp1092
F0.23101265822784811
aF0.28125
aF0.2421875
atp1093
a(N(lp1094
F0.12341772151898735
aF0.6171875
aF0.6484375
atp1095
a(I01
(lp1096
F0.10443037974683544
aF0.609375
aF0.6171875
atp1097
a(I01
(lp1098
F0.10443037974683544
aF0.609375
aF0.6171875
atp1099
a(N(lp1100
F0.58227848101265822
aF0.109375
aF0.59375
atp1101
a(I00
(lp1102
F0.58227848101265822
aF0.109375
aF0.59375
atp1103
a(I00
(lp1104
F0.58227848101265822
aF0.109375
aF0.4453125
atp1105
a(I00
g874
tp1106
a(Ng874
tp1107
aa(lp1108
(Ng539
tp1109
a(I00
g539
tp1110
a(I00
(lp1111
F0.58227848101265822
aF0.109375
aF0.359375
atp1112
a(I00
(lp1113
F0.58227848101265822
aF0.109375
aF0.4453125
atp1114
a(Ng786
tp1115
a(Ng786
tp1116
a(I01
g67
tp1117
a(I01
(lp1118
F0.23101265822784811
aF0.28125
aF0.2421875
atp1119
a(I01
(lp1120
F0.23101265822784811
aF0.28125
aF0.2421875
atp1121
a(N(lp1122
F0.12341772151898735
aF0.6171875
aF0.6484375
atp1123
a(N(lp1124
F0.12341772151898735
aF0.6171875
aF0.6484375
atp1125
a(I01
(lp1126
F0.23101265822784811
aF0.28125
aF0.2421875
atp1127
a(I01
(lp1128
F0.23101265822784811
aF0.28125
aF0.2421875
atp1129
a(I01
(lp1130
F0.23101265822784811
aF0.28125
aF0.2421875
atp1131
a(I01
(lp1132
F0.23101265822784811
aF0.28125
aF0.2421875
atp1133
a(I01
(lp1134
F0.23101265822784811
aF0.28125
aF0.2421875
atp1135
a(I01
g67
tp1136
a(I01
g67
tp1137
a(I01
g67
tp1138
a(I01
(lp1139
F0.23101265822784811
aF0.28125
aF0.4765625
atp1140
a(I01
(lp1141
F0.23101265822784811
aF0.28125
aF0.328125
atp1142
a(I01
(lp1143
F0.23101265822784811
aF0.28125
aF0.2421875
atp1144
a(I00
(lp1145
F0.12341772151898735
aF0.6171875
aF0.6484375
atp1146
a(N(lp1147
F0.12341772151898735
aF0.6171875
aF0.6484375
atp1148
a(I01
(lp1149
F0.10443037974683544
aF0.609375
aF0.6171875
atp1150
a(N(lp1151
F0.58227848101265822
aF0.109375
aF0.59375
atp1152
a(I00
(lp1153
F0.58227848101265822
aF0.109375
aF0.59375
atp1154
a(I00
(lp1155
F0.58227848101265822
aF0.109375
aF0.4453125
atp1156
a(I00
(lp1157
F0.58227848101265822
aF0.109375
aF0.359375
atp1158
a(I00
g874
tp1159
aa(lp1160
(I00
g539
tp1161
a(I00
g539
tp1162
a(I00
(lp1163
F0.58227848101265822
aF0.109375
aF0.359375
atp1164
a(I00
(lp1165
F0.58227848101265822
aF0.109375
aF0.4453125
atp1166
a(Ng786
tp1167
a(Ng786
tp1168
a(I01
g67
tp1169
a(I01
(lp1170
F0.23101265822784811
aF0.28125
aF0.2421875
atp1171
a(N(lp1172
F0.12341772151898735
aF0.6171875
aF0.6484375
atp1173
a(N(lp1174
F0.12341772151898735
aF0.6171875
aF0.875
atp1175
a(Ng1174
tp1176
a(N(lp1177
F0.12341772151898735
aF0.6171875
aF0.6484375
atp1178
a(N(lp1179
F0.12341772151898735
aF0.6171875
aF0.6484375
atp1180
a(I01
(lp1181
F0.23101265822784811
aF0.28125
aF0.2421875
atp1182
a(I01
(lp1183
F0.23101265822784811
aF0.28125
aF0.2421875
atp1184
a(I01
(lp1185
F0.23101265822784811
aF0.28125
aF0.2421875
atp1186
a(I01
g67
tp1187
a(I01
g67
tp1188
a(I01
g67
tp1189
a(I01
(lp1190
F0.23101265822784811
aF0.28125
aF0.4765625
atp1191
a(I01
(lp1192
F0.23101265822784811
aF0.28125
aF0.2421875
atp1193
a(I01
(lp1194
F0.23101265822784811
aF0.28125
aF0.2421875
atp1195
a(N(lp1196
F0.12341772151898735
aF0.6171875
aF0.6484375
atp1197
a(I00
(lp1198
F0.12341772151898735
aF0.6171875
aF0.6484375
atp1199
a(I01
(lp1200
F0.10443037974683544
aF0.609375
aF0.6171875
atp1201
a(I01
(lp1202
F0.10443037974683544
aF0.609375
aF0.6171875
atp1203
a(N(lp1204
F0.58227848101265822
aF0.109375
aF0.59375
atp1205
a(N(lp1206
F0.58227848101265822
aF0.109375
aF0.59375
atp1207
a(I00
(lp1208
F0.58227848101265822
aF0.109375
aF0.4453125
atp1209
a(I00
g874
tp1210
aa(lp1211
(I00
g539
tp1212
a(I00
g539
tp1213
a(I00
(lp1214
F0.58227848101265822
aF0.109375
aF0.4453125
atp1215
a(N(lp1216
F0.58227848101265822
aF0.109375
aF0.59375
atp1217
a(Ng786
tp1218
a(I01
(lp1219
F0.10443037974683544
aF0.609375
aF0.6171875
atp1220
a(I01
(lp1221
F0.23101265822784811
aF0.28125
aF0.2421875
atp1222
a(I01
g67
tp1223
a(I01
g67
tp1224
a(N(lp1225
F0.14873417721518986
aF0.7890625
aF0.8984375
atp1226
a(N(lp1227
F0.27531645569620256
aF0.390625
aF0.8828125
atp1228
a(Ng1174
tp1229
a(N(lp1230
F0.12341772151898735
aF0.6171875
aF0.6484375
atp1231
a(N(lp1232
F0.12341772151898735
aF0.6171875
aF0.6484375
atp1233
a(N(lp1234
F0.12341772151898735
aF0.6171875
aF0.6484375
atp1235
a(I01
(lp1236
F0.23101265822784811
aF0.28125
aF0.2421875
atp1237
a(I01
(lp1238
F0.23101265822784811
aF0.28125
aF0.4765625
atp1239
a(N(lp1240
F0.034810126582278479
aF0.828125
aF0.734375
atp1241
a(I01
g67
tp1242
a(I01
(lp1243
F0.23101265822784811
aF0.28125
aF0.4765625
atp1244
a(N(lp1245
F0.034810126582278479
aF0.828125
aF0.734375
atp1246
a(I01
(lp1247
F0.23101265822784811
aF0.28125
aF0.2421875
atp1248
a(N(lp1249
F0.12341772151898735
aF0.6171875
aF0.6484375
atp1250
a(I00
(lp1251
F0.13291139240506328
aF0.3984375
aF0.71875
atp1252
a(I00
(lp1253
F0.12341772151898735
aF0.6171875
aF0.6484375
atp1254
a(I01
(lp1255
F0.10443037974683544
aF0.609375
aF0.6171875
atp1256
a(I00
(lp1257
F0.58227848101265822
aF0.109375
aF0.59375
atp1258
a(N(lp1259
F0.58227848101265822
aF0.109375
aF0.59375
atp1260
a(I00
(lp1261
F0.58227848101265822
aF0.109375
aF0.4453125
atp1262
a(I00
g874
tp1263
aa(lp1264
(Ng539
tp1265
a(Ng539
tp1266
a(N(lp1267
F0.58227848101265822
aF0.109375
aF0.4453125
atp1268
a(N(lp1269
F0.58227848101265822
aF0.109375
aF0.59375
atp1270
a(I01
(lp1271
F0.10443037974683544
aF0.609375
aF0.6171875
atp1272
a(I01
(lp1273
F0.10443037974683544
aF0.609375
aF0.6171875
atp1274
a(I01
(lp1275
F0.23101265822784811
aF0.28125
aF0.2421875
atp1276
a(I01
g67
tp1277
a(I01
g67
tp1278
a(I00
g1174
tp1279
a(I00
(lp1280
F0.12974683544303797
aF0.3828125
aF0.984375
atp1281
a(I00
g1174
tp1282
a(I00
(lp1283
F0.14873417721518986
aF0.7890625
aF0.8984375
atp1284
a(I00
(lp1285
F0.12341772151898735
aF0.6171875
aF0.6484375
atp1286
a(I00
(lp1287
F0.13291139240506328
aF0.3984375
aF0.71875
atp1288
a(N(lp1289
F0.12341772151898735
aF0.6171875
aF0.6484375
atp1290
a(N(lp1291
F0.12341772151898735
aF0.6171875
aF0.6484375
atp1292
a(I01
(lp1293
F0.23101265822784811
aF0.28125
aF0.4765625
atp1294
a(I01
g67
tp1295
a(I01
(lp1296
F0.23101265822784811
aF0.28125
aF0.4765625
atp1297
a(I01
(lp1298
F0.23101265822784811
aF0.28125
aF0.2421875
atp1299
a(N(lp1300
F0.12341772151898735
aF0.6171875
aF0.6484375
atp1301
a(N(lp1302
F0.12341772151898735
aF0.6171875
aF0.6484375
atp1303
a(I00
(lp1304
F0.12341772151898735
aF0.6171875
aF0.6484375
atp1305
a(I00
(lp1306
F0.12341772151898735
aF0.6171875
aF0.6484375
atp1307
a(I01
(lp1308
F0.10443037974683544
aF0.609375
aF0.6171875
atp1309
a(I01
(lp1310
F0.10443037974683544
aF0.609375
aF0.6171875
atp1311
a(N(lp1312
F0.58227848101265822
aF0.109375
aF0.59375
atp1313
a(N(lp1314
F0.58227848101265822
aF0.109375
aF0.4453125
atp1315
a(I00
g874
tp1316
aa(lp1317
(Ng539
tp1318
a(N(lp1319
F0.58227848101265822
aF0.109375
aF0.359375
atp1320
a(N(lp1321
F0.58227848101265822
aF0.109375
aF0.4453125
atp1322
a(I01
(lp1323
F0.10443037974683544
aF0.609375
aF0.6171875
atp1324
a(I01
(lp1325
F0.10443037974683544
aF0.609375
aF0.6171875
atp1326
a(I00
(lp1327
F0.14873417721518986
aF0.7890625
aF0.8984375
atp1328
a(I00
g1174
tp1329
a(I01
(lp1330
F0.23101265822784811
aF0.28125
aF0.2421875
atp1331
a(I01
(lp1332
F0.23101265822784811
aF0.28125
aF0.2421875
atp1333
a(I00
g1174
tp1334
a(I00
(lp1335
F0.14873417721518986
aF0.7890625
aF0.8984375
atp1336
a(I00
g1174
tp1337
a(I00
(lp1338
F0.12974683544303797
aF0.3828125
aF0.984375
atp1339
a(I00
g1174
tp1340
a(I00
(lp1341
F0.12341772151898735
aF0.6171875
aF0.6484375
atp1342
a(I00
(lp1343
F0.12341772151898735
aF0.6171875
aF0.6484375
atp1344
a(I00
(lp1345
F0.12341772151898735
aF0.6171875
aF0.6484375
atp1346
a(I01
(lp1347
F0.23101265822784811
aF0.28125
aF0.4765625
atp1348
a(I01
g67
tp1349
a(I01
(lp1350
F0.23101265822784811
aF0.28125
aF0.4765625
atp1351
a(I01
(lp1352
F0.23101265822784811
aF0.28125
aF0.2421875
atp1353
a(N(lp1354
F0.12341772151898735
aF0.6171875
aF0.875
atp1355
a(N(lp1356
F0.12341772151898735
aF0.6171875
aF0.6484375
atp1357
a(I00
(lp1358
F0.13291139240506328
aF0.3984375
aF0.71875
atp1359
a(I00
(lp1360
F0.12341772151898735
aF0.6171875
aF0.6484375
atp1361
a(I00
(lp1362
F0.12341772151898735
aF0.6171875
aF0.6484375
atp1363
a(I01
(lp1364
F0.10443037974683544
aF0.609375
aF0.6171875
atp1365
a(I01
(lp1366
F0.10443037974683544
aF0.609375
aF0.6171875
atp1367
a(N(lp1368
F0.58227848101265822
aF0.109375
aF0.4453125
atp1369
a(Ng874
tp1370
aa(lp1371
(Ng539
tp1372
a(I00
(lp1373
F0.58227848101265822
aF0.109375
aF0.359375
atp1374
a(I01
(lp1375
F0.10443037974683544
aF0.609375
aF0.6171875
atp1376
a(I01
(lp1377
F0.10443037974683544
aF0.609375
aF0.6171875
atp1378
a(Ng1174
tp1379
a(I00
(lp1380
F0.91139240506329111
aF0.3828125
aF0.765625
atp1381
a(I00
(lp1382
F0.12974683544303797
aF0.3828125
aF0.984375
atp1383
a(I00
(lp1384
F0.14873417721518986
aF0.7890625
aF0.8984375
atp1385
a(I00
g1174
tp1386
a(I00
g1174
tp1387
a(I00
(lp1388
F0.12974683544303797
aF0.3828125
aF0.984375
atp1389
a(I00
g1174
tp1390
a(I00
g1174
tp1391
a(I00
(lp1392
F0.4651898734177215
aF0.296875
aF0.8515625
atp1393
a(I00
g1174
tp1394
a(I00
(lp1395
F0.12341772151898735
aF0.6171875
aF0.6484375
atp1396
a(I00
(lp1397
F0.12341772151898735
aF0.6171875
aF0.6484375
atp1398
a(N(lp1399
F0.14873417721518986
aF0.7890625
aF0.8984375
atp1400
a(I01
g67
tp1401
a(I01
(lp1402
F0.23101265822784811
aF0.28125
aF0.328125
atp1403
a(N(lp1404
F0.12974683544303797
aF0.3828125
aF0.984375
atp1405
a(I00
(lp1406
F0.14873417721518986
aF0.7890625
aF0.8984375
atp1407
a(I00
(lp1408
F0.12341772151898735
aF0.6171875
aF0.6484375
atp1409
a(I00
(lp1410
F0.12341772151898735
aF0.6171875
aF0.6484375
atp1411
a(I00
(lp1412
F0.13291139240506328
aF0.3984375
aF0.71875
atp1413
a(I00
(lp1414
F0.12341772151898735
aF0.6171875
aF0.6484375
atp1415
a(I00
(lp1416
F0.12341772151898735
aF0.6171875
aF0.6484375
atp1417
a(I01
(lp1418
F0.10443037974683544
aF0.609375
aF0.6171875
atp1419
a(I01
(lp1420
F0.10443037974683544
aF0.609375
aF0.6171875
atp1421
a(Ng874
tp1422
aa(lp1423
(I00
g539
tp1424
a(I01
(lp1425
F0.10443037974683544
aF0.609375
aF0.6171875
atp1426
a(I01
(lp1427
F0.10443037974683544
aF0.609375
aF0.6171875
atp1428
a(Ng1174
tp1429
a(I00
(lp1430
F0.12974683544303797
aF0.3828125
aF0.984375
atp1431
a(I00
(lp1432
F0.14873417721518986
aF0.7890625
aF0.8984375
atp1433
a(I00
g1174
tp1434
a(I00
g1174
tp1435
a(I00
(lp1436
F0.12974683544303797
aF0.3828125
aF0.984375
atp1437
a(I00
(lp1438
F0.14873417721518986
aF0.7890625
aF0.8984375
atp1439
a(I00
g1174
tp1440
a(I00
(lp1441
F0.12974683544303797
aF0.3828125
aF0.984375
atp1442
a(I00
(lp1443
F0.14873417721518986
aF0.7890625
aF0.8984375
atp1444
a(I00
g1174
tp1445
a(I00
(lp1446
F0.12974683544303797
aF0.3828125
aF0.984375
atp1447
a(I00
(lp1448
F0.14873417721518986
aF0.7890625
aF0.8984375
atp1449
a(I00
(lp1450
F0.12341772151898735
aF0.6171875
aF0.875
atp1451
a(I00
g1174
tp1452
a(I01
g67
tp1453
a(I01
(lp1454
F0.23101265822784811
aF0.28125
aF0.2421875
atp1455
a(I00
(lp1456
F0.12341772151898735
aF0.6171875
aF0.875
atp1457
a(I00
(lp1458
F0.12974683544303797
aF0.3828125
aF0.984375
atp1459
a(I00
(lp1460
F0.12341772151898735
aF0.6171875
aF0.6484375
atp1461
a(I00
(lp1462
F0.12341772151898735
aF0.6171875
aF0.6484375
atp1463
a(I00
(lp1464
F0.12341772151898735
aF0.6171875
aF0.6484375
atp1465
a(I00
(lp1466
F0.12341772151898735
aF0.6171875
aF0.6484375
atp1467
a(I00
(lp1468
F0.13291139240506328
aF0.3984375
aF0.71875
atp1469
a(I00
(lp1470
F0.12341772151898735
aF0.6171875
aF0.6484375
atp1471
a(I01
(lp1472
F0.10443037974683544
aF0.609375
aF0.6171875
atp1473
a(I01
(lp1474
F0.10443037974683544
aF0.609375
aF0.6171875
atp1475
aasS'height'
p1476
I30
sS'width'
p1477
I30
sS'column_numbers'
p1478
(lp1479
(I7
tp1480
a(I4
I5
I1
tp1481
a(I1
I6
I2
tp1482
a(I1
I7
I2
tp1483
a(I2
I8
I2
tp1484
a(I8
I2
tp1485
a(I8
I4
tp1486
a(I4
I6
I7
tp1487
a(I4
I2
I1
I6
I3
tp1488
a(I4
I9
tp1489
a(I2
I11
tp1490
a(I16
tp1491
a(I16
tp1492
a(I10
I6
tp1493
a(I8
I4
tp1494
a(I8
I4
tp1495
a(I10
I5
tp1496
a(I1
I5
I3
I3
I2
tp1497
a(I2
I3
I2
I5
I7
tp1498
a(I1
I3
I1
I9
I7
tp1499
a(I1
I3
I1
I10
I3
I2
tp1500
a(I1
I4
I1
I6
I3
I5
tp1501
a(I7
I9
I3
tp1502
a(I1
I4
I4
I4
I3
tp1503
a(I6
I4
I3
tp1504
a(I4
I3
I3
tp1505
a(I3
I3
I2
tp1506
a(I3
I2
I4
I2
tp1507
a(I2
I2
I4
I2
tp1508
a(I5
I1
tp1509
asS'background'
p1510
S'blue'
p1511
sb.