ccopy_reg
_reconstructor
p1
(cpuzzle
Puzzle
p2
c__builtin__
object
p3
NtRp4
(dp5
S'row_numbers'
p6
(lp7
(I0
tp8
a(I3
I3
I3
tp9
a(I1
I1
I1
I2
I3
tp10
a(I1
I1
I1
I2
I1
tp11
a(I1
I1
I7
I1
tp12
a(I1
I1
I1
I1
I1
I1
tp13
a(I3
I3
I1
I1
I1
I3
tp14
a(I1
I1
I1
I1
I1
I1
I1
I1
I1
tp15
a(I1
I1
I1
I1
I1
I8
I1
tp16
a(I24
tp17
a(I4
I4
I4
I4
I3
tp18
a(I2
I2
I2
I2
I2
I1
tp19
a(I4
I2
I2
I2
I11
tp20
a(I5
I5
I2
I1
I1
I1
I1
I1
I2
tp21
a(I1
I1
I1
I1
I2
I1
I2
tp22
a(I1
I13
I1
I1
I1
tp23
a(I3
I1
I1
I2
tp24
a(I1
I2
I2
I2
I1
I8
tp25
a(I2
I1
I2
I2
I1
I1
I1
tp26
a(I6
I1
I1
I1
I1
I1
I1
tp27
a(I1
I2
I10
I1
tp28
a(I6
I3
I11
tp29
a(I1
I3
I1
I1
I1
I1
I1
tp30
a(I1
I1
I2
I3
I1
tp31
a(I1
tp32
a(I4
I4
I5
I3
tp33
a(I2
I2
I2
I2
I2
I1
I2
I2
I2
tp34
a(I2
I3
I8
I3
I1
tp35
a(I5
I11
I3
tp36
a(I6
I13
I5
tp37
asS'name'
p38
VAir Palace
p39
sS'cells'
p40
(lp41
(lp42
(N(lp43
F0.54430379746835444
aF0.296875
aF0.9453125
atp44
a(N(lp45
F0.54430379746835444
aF0.296875
aF0.9453125
atp46
a(N(lp47
F0.54430379746835444
aF0.296875
aF0.9453125
atp48
a(N(lp49
F0.54430379746835444
aF0.296875
aF0.9453125
atp50
a(Ng43
tp51
a(Ng43
tp52
a(Ng43
tp53
a(Ng43
tp54
a(Ng43
tp55
a(Ng43
tp56
a(Ng43
tp57
a(Ng43
tp58
a(Ng43
tp59
a(Ng43
tp60
a(Ng43
tp61
a(Ng43
tp62
a(Ng43
tp63
a(Ng43
tp64
a(Ng43
tp65
a(Ng43
tp66
a(Ng43
tp67
a(Ng43
tp68
a(Ng43
tp69
a(Ng43
tp70
a(Ng43
tp71
a(Ng43
tp72
a(Ng43
tp73
a(Ng43
tp74
a(Ng43
tp75
a(Ng43
tp76
aa(lp77
(I00
(lp78
F0.54430379746835444
aF0.296875
aF0.9453125
atp79
a(I00
(lp80
F0.54430379746835444
aF0.296875
aF0.9453125
atp81
a(I00
(lp82
F0.54430379746835444
aF0.296875
aF0.9453125
atp83
a(I00
(lp84
F0.54430379746835444
aF0.296875
aF0.9453125
atp85
a(I00
(lp86
F0.54430379746835444
aF0.296875
aF0.9453125
atp87
a(I00
(lp88
F0.54430379746835444
aF0.296875
aF0.9453125
atp89
a(N(lp90
F0.54430379746835444
aF0.296875
aF0.9453125
atp91
a(Ng43
tp92
a(Ng43
tp93
a(I01
(lp94
F0.072784810126582278
aF0.1171875
aF0.71875
atp95
a(I01
(lp96
F0.072784810126582278
aF0.2734375
aF0.65625
atp97
a(I01
(lp98
F0.072784810126582278
aF0.2734375
aF0.4140625
atp99
a(Ng43
tp100
a(I01
(lp101
F0.072784810126582278
aF0.1171875
aF0.71875
atp102
a(I01
(lp103
F0.072784810126582278
aF0.2734375
aF0.65625
atp104
a(I01
(lp105
F0.072784810126582278
aF0.2734375
aF0.4140625
atp106
a(Ng43
tp107
a(I00
g43
tp108
a(Ng43
tp109
a(I01
(lp110
F0.025316455696202531
aF0.0078125
aF0.921875
atp111
a(I01
(lp112
F0.025316455696202531
aF0.0078125
aF0.8125
atp113
a(I01
(lp114
F0.025316455696202531
aF0.0078125
aF0.6953125
atp115
a(Ng43
tp116
a(Ng43
tp117
a(Ng43
tp118
a(Ng43
tp119
a(Ng43
tp120
a(Ng43
tp121
a(I00
g43
tp122
a(I00
g43
tp123
aa(lp124
(I00
(lp125
F0.54430379746835444
aF0.296875
aF0.9453125
atp126
a(I00
(lp127
F0.54430379746835444
aF0.296875
aF0.9453125
atp128
a(I00
(lp129
F0.54430379746835444
aF0.296875
aF0.9453125
atp130
a(I00
(lp131
F0.54430379746835444
aF0.296875
aF0.9453125
atp132
a(I00
(lp133
F0.54430379746835444
aF0.296875
aF0.9453125
atp134
a(I00
(lp135
F0.54430379746835444
aF0.296875
aF0.9453125
atp136
a(I00
(lp137
F0.54430379746835444
aF0.296875
aF0.9453125
atp138
a(Ng43
tp139
a(Ng43
tp140
a(Ng43
tp141
a(I01
(lp142
F0.079113924050632917
aF0.265625
aF0.2578125
atp143
a(Ng43
tp144
a(Ng43
tp145
a(Ng43
tp146
a(I01
(lp147
F0.079113924050632917
aF0.265625
aF0.2578125
atp148
a(Ng43
tp149
a(Ng43
tp150
a(Ng43
tp151
a(I01
(lp152
F0.025316455696202531
aF0.0078125
aF0.921875
atp153
a(N(lp154
F0.025316455696202531
aF0.0078125
aF0.921875
atp155
a(N(lp156
F0.025316455696202531
aF0.0078125
aF0.6953125
atp157
a(I01
(lp158
F0.025316455696202531
aF0.0078125
aF0.6953125
atp159
a(I01
(lp160
F0.025316455696202531
aF0.0078125
aF0.4765625
atp161
a(Ng43
tp162
a(I01
(lp163
F0.072784810126582278
aF0.1171875
aF0.71875
atp164
a(I01
(lp165
F0.072784810126582278
aF0.2734375
aF0.65625
atp166
a(I01
(lp167
F0.072784810126582278
aF0.2734375
aF0.4140625
atp168
a(I00
g43
tp169
a(I00
g43
tp170
a(I00
g43
tp171
aa(lp172
(I00
(lp173
F0.54430379746835444
aF0.296875
aF0.9453125
atp174
a(I00
(lp175
F0.54430379746835444
aF0.296875
aF0.9453125
atp176
a(I00
(lp177
F0.54430379746835444
aF0.296875
aF0.9453125
atp178
a(I00
(lp179
F0.54430379746835444
aF0.296875
aF0.9453125
atp180
a(I00
(lp181
F0.54430379746835444
aF0.296875
aF0.9453125
atp182
a(I00
(lp183
F0.54430379746835444
aF0.296875
aF0.9453125
atp184
a(I00
(lp185
F0.54430379746835444
aF0.296875
aF0.9453125
atp186
a(I00
g43
tp187
a(Ng43
tp188
a(I00
g43
tp189
a(I01
(lp190
F0.053797468354430382
aF0.265625
aF0.359375
atp191
a(I00
g43
tp192
a(I00
g43
tp193
a(I00
g43
tp194
a(I01
(lp195
F0.053797468354430382
aF0.265625
aF0.359375
atp196
a(I00
g43
tp197
a(I00
g43
tp198
a(I01
(lp199
F0.025316455696202531
aF0.0078125
aF0.921875
atp200
a(N(lp201
F0.025316455696202531
aF0.0078125
aF0.921875
atp202
a(I00
(lp203
F0.025316455696202531
aF0.0078125
aF0.8125
atp204
a(I00
(lp205
F0.025316455696202531
aF0.0078125
aF0.6953125
atp206
a(N(lp207
F0.025316455696202531
aF0.0078125
aF0.6953125
atp208
a(I01
(lp209
F0.025316455696202531
aF0.0078125
aF0.4765625
atp210
a(I01
(lp211
F0.025316455696202531
aF0.0078125
aF0.4765625
atp212
a(N(lp213
F0.56645569620253167
aF0.3125
aF0.9453125
atp214
a(I01
(lp215
F0.079113924050632917
aF0.265625
aF0.2578125
atp216
a(Ng43
tp217
a(I00
g43
tp218
a(I00
g43
tp219
a(I00
g43
tp220
aa(lp221
(I00
g43
tp222
a(I00
(lp223
F0.54430379746835444
aF0.296875
aF0.9453125
atp224
a(I00
(lp225
F0.54430379746835444
aF0.296875
aF0.9453125
atp226
a(I00
(lp227
F0.54430379746835444
aF0.296875
aF0.9453125
atp228
a(I00
(lp229
F0.54430379746835444
aF0.296875
aF0.9453125
atp230
a(I00
g43
tp231
a(I00
(lp232
F0.54430379746835444
aF0.296875
aF0.9453125
atp233
a(I00
g43
tp234
a(Ng43
tp235
a(Ng43
tp236
a(I01
(lp237
F0.053797468354430382
aF0.265625
aF0.359375
atp238
a(Ng43
tp239
a(Ng43
tp240
a(Ng43
tp241
a(I01
(lp242
F0.053797468354430382
aF0.265625
aF0.359375
atp243
a(Ng43
tp244
a(I00
g43
tp245
a(I01
(lp246
F0.025316455696202531
aF0.0078125
aF0.921875
atp247
a(I01
(lp248
F0.025316455696202531
aF0.0078125
aF0.921875
atp249
a(I01
(lp250
F0.025316455696202531
aF0.0078125
aF0.8125
atp251
a(I01
(lp252
F0.025316455696202531
aF0.0078125
aF0.6953125
atp253
a(I01
(lp254
F0.025316455696202531
aF0.0078125
aF0.6953125
atp255
a(I01
(lp256
F0.025316455696202531
aF0.0078125
aF0.4765625
atp257
a(I01
(lp258
F0.025316455696202531
aF0.0078125
aF0.4765625
atp259
a(I00
g213
tp260
a(I01
(lp261
F0.053797468354430382
aF0.265625
aF0.359375
atp262
a(I00
g43
tp263
a(I00
g43
tp264
a(I00
g43
tp265
a(I00
g43
tp266
aa(lp267
(I00
g43
tp268
a(I00
g43
tp269
a(I00
g43
tp270
a(I00
(lp271
F0.54430379746835444
aF0.296875
aF0.9453125
atp272
a(I00
(lp273
F0.54430379746835444
aF0.296875
aF0.9453125
atp274
a(I00
(lp275
F0.54430379746835444
aF0.296875
aF0.9453125
atp276
a(I00
g43
tp277
a(I00
g43
tp278
a(Ng43
tp279
a(Ng43
tp280
a(I01
(lp281
F0.053797468354430382
aF0.265625
aF0.359375
atp282
a(I00
g43
tp283
a(I00
g43
tp284
a(I00
g43
tp285
a(I01
(lp286
F0.053797468354430382
aF0.265625
aF0.359375
atp287
a(I00
g43
tp288
a(I00
g43
tp289
a(Ng43
tp290
a(I01
(lp291
F0.025316455696202531
aF0.0078125
aF0.8125
atp292
a(N(lp293
F0.025316455696202531
aF0.0078125
aF0.3046875
atp294
a(I01
(lp295
F0.025316455696202531
aF0.0078125
aF0.6953125
atp296
a(N(lp297
F0.025316455696202531
aF0.0078125
aF0.3046875
atp298
a(I01
(lp299
F0.025316455696202531
aF0.0078125
aF0.6953125
atp300
a(Ng213
tp301
a(I00
g213
tp302
a(I01
(lp303
F0.053797468354430382
aF0.265625
aF0.359375
atp304
a(I00
g43
tp305
a(I00
g43
tp306
a(I00
g43
tp307
a(I00
g43
tp308
aa(lp309
(I00
g43
tp310
a(I00
g43
tp311
a(I00
g43
tp312
a(I00
g43
tp313
a(I00
g43
tp314
a(I00
g43
tp315
a(I00
g43
tp316
a(I00
g43
tp317
a(Ng43
tp318
a(I01
(lp319
F0.10126582278481013
aF0.5078125
aF0.4140625
atp320
a(I01
(lp321
F0.10126582278481013
aF0.5078125
aF0.4140625
atp322
a(I01
(lp323
F0.10126582278481013
aF0.5078125
aF0.21875
atp324
a(I00
g43
tp325
a(I01
(lp326
F0.10126582278481013
aF0.5078125
aF0.4140625
atp327
a(I01
(lp328
F0.10126582278481013
aF0.5078125
aF0.4140625
atp329
a(I01
(lp330
F0.10126582278481013
aF0.5078125
aF0.21875
atp331
a(I00
g43
tp332
a(Ng43
tp333
a(I01
(lp334
F0.025316455696202531
aF0.0078125
aF0.921875
atp335
a(I00
(lp336
F0.025316455696202531
aF0.0078125
aF0.3046875
atp337
a(I01
(lp338
F0.025316455696202531
aF0.0078125
aF0.8125
atp339
a(I00
(lp340
F0.025316455696202531
aF0.0078125
aF0.3046875
atp341
a(I01
(lp342
F0.025316455696202531
aF0.0078125
aF0.6953125
atp343
a(I00
g213
tp344
a(I01
(lp345
F0.10126582278481013
aF0.5078125
aF0.4140625
atp346
a(I01
(lp347
F0.10126582278481013
aF0.5078125
aF0.4140625
atp348
a(I01
(lp349
F0.10126582278481013
aF0.5078125
aF0.21875
atp350
a(I00
g43
tp351
a(I00
g43
tp352
a(I00
g43
tp353
aa(lp354
(I00
g43
tp355
a(I00
g43
tp356
a(I00
g43
tp357
a(I00
g43
tp358
a(Ng43
tp359
a(Ng43
tp360
a(I00
g43
tp361
a(Ng43
tp362
a(Ng43
tp363
a(I01
(lp364
F0.12025316455696203
aF0.625
aF0.640625
atp365
a(N(lp366
F0.10126582278481013
aF0.5078125
aF0.4140625
atp367
a(I01
(lp368
F0.10126582278481013
aF0.5078125
aF0.21875
atp369
a(I00
g43
tp370
a(I01
(lp371
F0.12025316455696203
aF0.625
aF0.640625
atp372
a(N(lp373
F0.10126582278481013
aF0.5078125
aF0.4140625
atp374
a(I01
(lp375
F0.10126582278481013
aF0.5078125
aF0.21875
atp376
a(I00
g43
tp377
a(Ng43
tp378
a(I01
(lp379
F0.025316455696202531
aF0.0078125
aF0.921875
atp380
a(I00
(lp381
F0.025316455696202531
aF0.0078125
aF0.3046875
atp382
a(I01
(lp383
F0.025316455696202531
aF0.0078125
aF0.8125
atp384
a(I00
(lp385
F0.025316455696202531
aF0.0078125
aF0.3046875
atp386
a(I01
(lp387
F0.025316455696202531
aF0.0078125
aF0.6953125
atp388
a(I00
g213
tp389
a(I01
(lp390
F0.12025316455696203
aF0.625
aF0.640625
atp391
a(N(lp392
F0.10126582278481013
aF0.5078125
aF0.4140625
atp393
a(I01
(lp394
F0.10126582278481013
aF0.5078125
aF0.21875
atp395
a(I00
g43
tp396
a(I00
g43
tp397
a(I00
g43
tp398
aa(lp399
(I00
g43
tp400
a(I00
g43
tp401
a(I00
g43
tp402
a(Ng43
tp403
a(I00
g43
tp404
a(Ng43
tp405
a(Ng43
tp406
a(I01
(lp407
F0.10126582278481013
aF0.5078125
aF0.4140625
atp408
a(Ng43
tp409
a(I01
(lp410
F0.10126582278481013
aF0.5078125
aF0.4140625
atp411
a(I00
(lp412
F0.10126582278481013
aF0.5078125
aF0.4140625
atp413
a(I01
(lp414
F0.10126582278481013
aF0.5078125
aF0.21875
atp415
a(I00
g43
tp416
a(I01
(lp417
F0.10126582278481013
aF0.5078125
aF0.4140625
atp418
a(N(lp419
F0.10126582278481013
aF0.5078125
aF0.4140625
atp420
a(I01
(lp421
F0.10126582278481013
aF0.5078125
aF0.21875
atp422
a(I00
g43
tp423
a(I01
(lp424
F0.025316455696202531
aF0.0078125
aF0.921875
atp425
a(I01
(lp426
F0.025316455696202531
aF0.0078125
aF0.921875
atp427
a(I01
(lp428
F0.025316455696202531
aF0.0078125
aF0.921875
atp429
a(I01
(lp430
F0.025316455696202531
aF0.0078125
aF0.921875
atp431
a(I01
(lp432
F0.025316455696202531
aF0.0078125
aF0.8125
atp433
a(I01
(lp434
F0.025316455696202531
aF0.0078125
aF0.6953125
atp435
a(I01
(lp436
F0.025316455696202531
aF0.0078125
aF0.4765625
atp437
a(I01
(lp438
F0.10126582278481013
aF0.5078125
aF0.4140625
atp439
a(I00
(lp440
F0.10126582278481013
aF0.5078125
aF0.4140625
atp441
a(I01
(lp442
F0.10126582278481013
aF0.5078125
aF0.21875
atp443
a(I00
g43
tp444
a(I00
g43
tp445
a(I00
g43
tp446
aa(lp447
(I00
g43
tp448
a(I00
g43
tp449
a(I00
g43
tp450
a(I01
(lp451
F0.31329113924050633
aF0.1328125
aF0.2734375
atp452
a(I01
(lp453
F0.31329113924050633
aF0.1328125
aF0.3828125
atp454
a(I01
(lp455
F0.31329113924050633
aF0.1328125
aF0.4765625
atp456
a(I01
(lp457
F0.31329113924050633
aF0.1328125
aF0.5234375
atp458
a(I01
(lp459
F0.31329113924050633
aF0.1328125
aF0.5234375
atp460
a(I01
(lp461
F0.31329113924050633
aF0.1328125
aF0.5234375
atp462
a(I01
(lp463
F0.31329113924050633
aF0.1328125
aF0.5234375
atp464
a(I01
(lp465
F0.31329113924050633
aF0.1328125
aF0.5234375
atp466
a(I01
(lp467
F0.31329113924050633
aF0.1328125
aF0.5234375
atp468
a(I01
(lp469
F0.31329113924050633
aF0.1328125
aF0.5234375
atp470
a(I01
(lp471
F0.31329113924050633
aF0.1328125
aF0.5234375
atp472
a(I01
(lp473
F0.31329113924050633
aF0.1328125
aF0.5234375
atp474
a(I01
(lp475
F0.31329113924050633
aF0.1328125
aF0.5234375
atp476
a(I01
(lp477
F0.31329113924050633
aF0.1328125
aF0.5234375
atp478
a(I01
(lp479
F0.31329113924050633
aF0.1328125
aF0.5234375
atp480
a(I01
(lp481
F0.31329113924050633
aF0.1328125
aF0.5234375
atp482
a(I01
(lp483
F0.31329113924050633
aF0.1328125
aF0.5234375
atp484
a(I01
(lp485
F0.31329113924050633
aF0.1328125
aF0.5234375
atp486
a(I01
(lp487
F0.31329113924050633
aF0.1328125
aF0.4765625
atp488
a(I01
(lp489
F0.31329113924050633
aF0.1328125
aF0.4765625
atp490
a(I01
(lp491
F0.31329113924050633
aF0.1328125
aF0.3828125
atp492
a(I01
(lp493
F0.31329113924050633
aF0.1328125
aF0.3828125
atp494
a(I01
(lp495
F0.31329113924050633
aF0.1328125
aF0.2734375
atp496
a(I01
(lp497
F0.31329113924050633
aF0.1328125
aF0.2734375
atp498
a(I00
g43
tp499
a(I00
g43
tp500
a(I00
g43
tp501
aa(lp502
(I00
g43
tp503
a(I00
g43
tp504
a(I00
g43
tp505
a(Ng43
tp506
a(I01
(lp507
F0.31329113924050633
aF0.1328125
aF0.3828125
atp508
a(I01
(lp509
F0.31329113924050633
aF0.1328125
aF0.3828125
atp510
a(I01
(lp511
F0.31329113924050633
aF0.1328125
aF0.3828125
atp512
a(I01
(lp513
F0.31329113924050633
aF0.1328125
aF0.3828125
atp514
a(N(lp515
F0.025316455696202531
aF0.0078125
aF0.2421875
atp516
a(I01
(lp517
F0.31329113924050633
aF0.1328125
aF0.3828125
atp518
a(I01
(lp519
F0.31329113924050633
aF0.1328125
aF0.3828125
atp520
a(I01
(lp521
F0.31329113924050633
aF0.1328125
aF0.3828125
atp522
a(I01
(lp523
F0.31329113924050633
aF0.1328125
aF0.3828125
atp524
a(N(lp525
F0.025316455696202531
aF0.0078125
aF0.2421875
atp526
a(I01
(lp527
F0.31329113924050633
aF0.1328125
aF0.3828125
atp528
a(I01
(lp529
F0.31329113924050633
aF0.1328125
aF0.3828125
atp530
a(I01
(lp531
F0.31329113924050633
aF0.1328125
aF0.3828125
atp532
a(I01
(lp533
F0.31329113924050633
aF0.1328125
aF0.3828125
atp534
a(N(lp535
F0.025316455696202531
aF0.0078125
aF0.2421875
atp536
a(I01
(lp537
F0.31329113924050633
aF0.1328125
aF0.3828125
atp538
a(I01
(lp539
F0.31329113924050633
aF0.1328125
aF0.3828125
atp540
a(I01
(lp541
F0.31329113924050633
aF0.1328125
aF0.3828125
atp542
a(I01
(lp543
F0.31329113924050633
aF0.1328125
aF0.3828125
atp544
a(N(lp545
F0.025316455696202531
aF0.0078125
aF0.2421875
atp546
a(I01
(lp547
F0.31329113924050633
aF0.1328125
aF0.3828125
atp548
a(I01
(lp549
F0.31329113924050633
aF0.1328125
aF0.3828125
atp550
a(I01
(lp551
F0.31329113924050633
aF0.1328125
aF0.2734375
atp552
a(I00
g43
tp553
a(I00
g43
tp554
a(I00
g43
tp555
aa(lp556
(I00
g43
tp557
a(I00
g43
tp558
a(I00
g43
tp559
a(I00
g43
tp560
a(Ng43
tp561
a(I01
(lp562
F0.31329113924050633
aF0.1328125
aF0.5234375
atp563
a(I01
(lp564
F0.31329113924050633
aF0.1328125
aF0.5234375
atp565
a(Ng515
tp566
a(Ng515
tp567
a(Ng515
tp568
a(I01
(lp569
F0.31329113924050633
aF0.1328125
aF0.5234375
atp570
a(I01
(lp571
F0.31329113924050633
aF0.1328125
aF0.5234375
atp572
a(N(lp573
F0.025316455696202531
aF0.0078125
aF0.2421875
atp574
a(N(lp575
F0.025316455696202531
aF0.0078125
aF0.2421875
atp576
a(N(lp577
F0.025316455696202531
aF0.0078125
aF0.2421875
atp578
a(I01
(lp579
F0.31329113924050633
aF0.1328125
aF0.5234375
atp580
a(I01
(lp581
F0.31329113924050633
aF0.1328125
aF0.5234375
atp582
a(Ng535
tp583
a(Ng535
tp584
a(Ng535
tp585
a(I01
(lp586
F0.31329113924050633
aF0.1328125
aF0.5234375
atp587
a(I01
(lp588
F0.31329113924050633
aF0.1328125
aF0.5234375
atp589
a(N(lp590
F0.025316455696202531
aF0.0078125
aF0.2421875
atp591
a(N(lp592
F0.025316455696202531
aF0.0078125
aF0.2421875
atp593
a(Ng590
tp594
a(I01
(lp595
F0.31329113924050633
aF0.1328125
aF0.5234375
atp596
a(I01
(lp597
F0.31329113924050633
aF0.1328125
aF0.2734375
atp598
a(I00
g43
tp599
a(I01
(lp600
F0.31329113924050633
aF0.1328125
aF0.2734375
atp601
a(I00
g43
tp602
aa(lp603
(I01
(lp604
F0.31329113924050633
aF0.1328125
aF0.3828125
atp605
a(I01
(lp606
F0.31329113924050633
aF0.1328125
aF0.3828125
atp607
a(I01
(lp608
F0.31329113924050633
aF0.1328125
aF0.3828125
atp609
a(I01
(lp610
F0.31329113924050633
aF0.1328125
aF0.2734375
atp611
a(I00
g43
tp612
a(I01
(lp613
F0.31329113924050633
aF0.1328125
aF0.5234375
atp614
a(I01
(lp615
F0.31329113924050633
aF0.1328125
aF0.5234375
atp616
a(I00
(lp617
F0.025316455696202531
aF0.0078125
aF0.15625
atp618
a(I00
(lp619
F0.025316455696202531
aF0.0078125
aF0.15625
atp620
a(I00
(lp621
F0.025316455696202531
aF0.0078125
aF0.15625
atp622
a(I01
(lp623
F0.31329113924050633
aF0.1328125
aF0.5234375
atp624
a(I01
(lp625
F0.31329113924050633
aF0.1328125
aF0.5234375
atp626
a(I00
(lp627
F0.025316455696202531
aF0.0078125
aF0.15625
atp628
a(I00
(lp629
F0.025316455696202531
aF0.0078125
aF0.15625
atp630
a(I00
(lp631
F0.025316455696202531
aF0.0078125
aF0.15625
atp632
a(I01
(lp633
F0.31329113924050633
aF0.1328125
aF0.5234375
atp634
a(I01
(lp635
F0.31329113924050633
aF0.1328125
aF0.5234375
atp636
a(I00
(lp637
F0.025316455696202531
aF0.0078125
aF0.15625
atp638
a(I01
(lp639
F0.079113924050632917
aF0.265625
aF0.3359375
atp640
a(I01
(lp641
F0.079113924050632917
aF0.265625
aF0.5234375
atp642
a(I01
(lp643
F0.12025316455696203
aF0.625
aF0.7578125
atp644
a(I01
g641
tp645
a(I01
(lp646
F0.12025316455696203
aF0.625
aF0.7578125
atp647
a(I01
g641
tp648
a(I01
(lp649
F0.12025316455696203
aF0.625
aF0.7578125
atp650
a(I01
g641
tp651
a(I01
(lp652
F0.12025316455696203
aF0.625
aF0.7578125
atp653
a(I01
(lp654
F0.079113924050632917
aF0.265625
aF0.4296875
atp655
a(I01
(lp656
F0.079113924050632917
aF0.265625
aF0.2578125
atp657
a(I00
g43
tp658
aa(lp659
(N(lp660
F0.54430379746835444
aF0.296875
aF0.9453125
atp661
a(Ng660
tp662
a(I01
(lp663
F0.079113924050632917
aF0.265625
aF0.2578125
atp664
a(I01
g641
tp665
a(I01
g641
tp666
a(I01
g641
tp667
a(I01
(lp668
F0.079113924050632917
aF0.265625
aF0.3359375
atp669
a(I00
(lp670
F0.025316455696202531
aF0.0078125
aF0.2421875
atp671
a(I00
(lp672
F0.025316455696202531
aF0.0078125
aF0.2421875
atp673
a(I01
(lp674
F0.10126582278481013
aF0.5078125
aF0.4140625
atp675
a(I01
(lp676
F0.10126582278481013
aF0.5078125
aF0.4140625
atp677
a(I01
(lp678
F0.10126582278481013
aF0.5078125
aF0.4140625
atp679
a(I01
(lp680
F0.10126582278481013
aF0.5078125
aF0.4140625
atp681
a(I01
(lp682
F0.10126582278481013
aF0.5078125
aF0.21875
atp683
a(I00
(lp684
F0.025316455696202531
aF0.0078125
aF0.2421875
atp685
a(I01
(lp686
F0.31329113924050633
aF0.1328125
aF0.5234375
atp687
a(I01
(lp688
F0.31329113924050633
aF0.1328125
aF0.5234375
atp689
a(I00
(lp690
F0.025316455696202531
aF0.0078125
aF0.2421875
atp691
a(I01
(lp692
F0.079113924050632917
aF0.265625
aF0.3359375
atp693
a(Ng641
tp694
a(I01
(lp695
F0.12025316455696203
aF0.625
aF0.640625
atp696
a(Ng641
tp697
a(I01
(lp698
F0.12025316455696203
aF0.625
aF0.640625
atp699
a(Ng641
tp700
a(I01
(lp701
F0.12025316455696203
aF0.625
aF0.640625
atp702
a(Ng641
tp703
a(I01
(lp704
F0.12025316455696203
aF0.625
aF0.640625
atp705
a(N(lp706
F0.079113924050632917
aF0.265625
aF0.4296875
atp707
a(I01
(lp708
F0.079113924050632917
aF0.265625
aF0.1484375
atp709
a(I01
(lp710
F0.079113924050632917
aF0.265625
aF0.1484375
atp711
aa(lp712
(I00
g660
tp713
a(I00
g660
tp714
a(I01
(lp715
F0.079113924050632917
aF0.265625
aF0.2578125
atp716
a(N(lp717
F0.079113924050632917
aF0.265625
aF0.3359375
atp718
a(Ng641
tp719
a(Ng641
tp720
a(I01
(lp721
F0.079113924050632917
aF0.265625
aF0.3359375
atp722
a(I00
(lp723
F0.025316455696202531
aF0.0078125
aF0.15625
atp724
a(I00
(lp725
F0.025316455696202531
aF0.0078125
aF0.15625
atp726
a(I01
(lp727
F0.10126582278481013
aF0.5078125
aF0.4140625
atp728
a(N(lp729
F0.10126582278481013
aF0.5078125
aF0.4140625
atp730
a(N(lp731
F0.10126582278481013
aF0.5078125
aF0.4140625
atp732
a(N(lp733
F0.10126582278481013
aF0.5078125
aF0.4140625
atp734
a(I01
(lp735
F0.10126582278481013
aF0.5078125
aF0.21875
atp736
a(I00
(lp737
F0.025316455696202531
aF0.0078125
aF0.15625
atp738
a(I01
(lp739
F0.31329113924050633
aF0.1328125
aF0.5234375
atp740
a(I01
(lp741
F0.31329113924050633
aF0.1328125
aF0.5234375
atp742
a(I00
(lp743
F0.025316455696202531
aF0.0078125
aF0.15625
atp744
a(I01
(lp745
F0.079113924050632917
aF0.265625
aF0.3359375
atp746
a(I00
g641
tp747
a(Ng641
tp748
a(I00
g641
tp749
a(Ng641
tp750
a(I00
g641
tp751
a(Ng641
tp752
a(I00
g641
tp753
a(Ng641
tp754
a(I00
(lp755
F0.079113924050632917
aF0.265625
aF0.40625
atp756
a(I01
(lp757
F0.079113924050632917
aF0.265625
aF0.1484375
atp758
a(I01
(lp759
F0.079113924050632917
aF0.265625
aF0.1484375
atp760
aa(lp761
(I00
g660
tp762
a(I00
g660
tp763
a(Ng660
tp764
a(I01
(lp765
F0.079113924050632917
aF0.265625
aF0.2578125
atp766
a(I00
g641
tp767
a(I00
g641
tp768
a(I01
(lp769
F0.079113924050632917
aF0.265625
aF0.5234375
atp770
a(I01
g641
tp771
a(I01
g641
tp772
a(I01
g641
tp773
a(I01
g641
tp774
a(I01
g641
tp775
a(I01
g641
tp776
a(I01
g641
tp777
a(I01
g641
tp778
a(I01
g641
tp779
a(I01
g641
tp780
a(I01
g641
tp781
a(I01
(lp782
F0.079113924050632917
aF0.265625
aF0.5234375
atp783
a(I00
g641
tp784
a(I00
g641
tp785
a(I01
(lp786
F0.10126582278481013
aF0.5078125
aF0.21875
atp787
a(I00
g641
tp788
a(I00
g641
tp789
a(I01
(lp790
F0.10126582278481013
aF0.5078125
aF0.21875
atp791
a(I00
g641
tp792
a(I00
g755
tp793
a(I00
g755
tp794
a(I01
(lp795
F0.079113924050632917
aF0.265625
aF0.1484375
atp796
a(I00
(lp797
F0.54430379746835444
aF0.296875
aF0.9453125
atp798
aa(lp799
(I00
g660
tp800
a(I00
g660
tp801
a(I01
(lp802
F0.31329113924050633
aF0.1328125
aF0.2734375
atp803
a(I01
(lp804
F0.31329113924050633
aF0.1328125
aF0.2734375
atp805
a(I01
(lp806
F0.079113924050632917
aF0.265625
aF0.2578125
atp807
a(N(lp808
F0.079113924050632917
aF0.265625
aF0.40625
atp809
a(Ng808
tp810
a(Ng808
tp811
a(Ng808
tp812
a(Ng808
tp813
a(Ng808
tp814
a(Ng808
tp815
a(Ng808
tp816
a(Ng808
tp817
a(Ng808
tp818
a(Ng808
tp819
a(Ng808
tp820
a(Ng808
tp821
a(N(lp822
F0.079113924050632917
aF0.265625
aF0.40625
atp823
a(Ng808
tp824
a(Ng808
tp825
a(I01
(lp826
F0.10126582278481013
aF0.5078125
aF0.21875
atp827
a(N(lp828
F0.079113924050632917
aF0.265625
aF0.40625
atp829
a(I00
g828
tp830
a(I01
(lp831
F0.10126582278481013
aF0.5078125
aF0.21875
atp832
a(I00
g755
tp833
a(I00
g755
tp834
a(I01
(lp835
F0.079113924050632917
aF0.265625
aF0.2578125
atp836
a(I01
(lp837
F0.079113924050632917
aF0.265625
aF0.1484375
atp838
a(I00
g797
tp839
aa(lp840
(I00
g660
tp841
a(I00
g660
tp842
a(Ng660
tp843
a(Ng660
tp844
a(I01
(lp845
F0.079113924050632917
aF0.265625
aF0.2578125
atp846
a(N(lp847
F0.079113924050632917
aF0.265625
aF0.2578125
atp848
a(I01
(lp849
F0.12341772151898735
aF0.1015625
aF0.9453125
atp850
a(I01
(lp851
F0.12341772151898735
aF0.1015625
aF0.9453125
atp852
a(Ng808
tp853
a(I00
g808
tp854
a(I00
g808
tp855
a(I01
(lp856
F0.31329113924050633
aF0.1328125
aF0.5234375
atp857
a(I01
(lp858
F0.31329113924050633
aF0.1328125
aF0.5234375
atp859
a(I00
(lp860
F0.079113924050632917
aF0.265625
aF0.40625
atp861
a(I01
(lp862
F0.31329113924050633
aF0.1328125
aF0.5234375
atp863
a(I01
(lp864
F0.31329113924050633
aF0.1328125
aF0.5234375
atp865
a(I00
(lp866
F0.079113924050632917
aF0.265625
aF0.40625
atp867
a(I01
(lp868
F0.063291139240506333
aF0.015625
aF0.5703125
atp869
a(I00
(lp870
F0.079113924050632917
aF0.265625
aF0.40625
atp871
a(I00
g808
tp872
a(I01
(lp873
F0.12341772151898735
aF0.1015625
aF0.6953125
atp874
a(I01
(lp875
F0.12341772151898735
aF0.1015625
aF0.6953125
atp876
a(I01
(lp877
F0.12341772151898735
aF0.1015625
aF0.6953125
atp878
a(I01
(lp879
F0.12341772151898735
aF0.1015625
aF0.6953125
atp880
a(I01
(lp881
F0.12341772151898735
aF0.1015625
aF0.6953125
atp882
a(I01
(lp883
F0.12341772151898735
aF0.1015625
aF0.6953125
atp884
a(I01
(lp885
F0.079113924050632917
aF0.265625
aF0.2578125
atp886
a(I01
(lp887
F0.079113924050632917
aF0.265625
aF0.1484375
atp888
a(Ng797
tp889
a(I00
g797
tp890
aa(lp891
(I00
g660
tp892
a(I00
g660
tp893
a(I00
g660
tp894
a(I00
g660
tp895
a(I01
(lp896
F0.079113924050632917
aF0.265625
aF0.2578125
atp897
a(I01
(lp898
F0.12341772151898735
aF0.1015625
aF0.6953125
atp899
a(N(lp900
F0.12341772151898735
aF0.1015625
aF0.9453125
atp901
a(N(lp902
F0.12341772151898735
aF0.1015625
aF0.9453125
atp903
a(I01
(lp904
F0.12341772151898735
aF0.1015625
aF0.6953125
atp905
a(N(lp906
F0.079113924050632917
aF0.265625
aF0.2578125
atp907
a(I00
(lp908
F0.079113924050632917
aF0.265625
aF0.2578125
atp909
a(I01
(lp910
F0.31329113924050633
aF0.1328125
aF0.3828125
atp911
a(I01
(lp912
F0.31329113924050633
aF0.1328125
aF0.3828125
atp913
a(N(lp914
F0.079113924050632917
aF0.265625
aF0.2578125
atp915
a(I01
(lp916
F0.31329113924050633
aF0.1328125
aF0.3828125
atp917
a(I01
(lp918
F0.31329113924050633
aF0.1328125
aF0.3828125
atp919
a(N(lp920
F0.079113924050632917
aF0.265625
aF0.2578125
atp921
a(I01
(lp922
F0.063291139240506333
aF0.015625
aF0.4609375
atp923
a(I00
(lp924
F0.079113924050632917
aF0.265625
aF0.2578125
atp925
a(I01
(lp926
F0.12341772151898735
aF0.1015625
aF0.6953125
atp927
a(N(lp928
F0.12341772151898735
aF0.1015625
aF0.9453125
atp929
a(N(lp930
F0.12341772151898735
aF0.1015625
aF0.9453125
atp931
a(N(lp932
F0.12341772151898735
aF0.1015625
aF0.9453125
atp933
a(N(lp934
F0.12341772151898735
aF0.1015625
aF0.9453125
atp935
a(N(lp936
F0.12341772151898735
aF0.1015625
aF0.9453125
atp937
a(N(lp938
F0.12341772151898735
aF0.1015625
aF0.9453125
atp939
a(I01
(lp940
F0.12341772151898735
aF0.1015625
aF0.6953125
atp941
a(Ng797
tp942
a(I00
g797
tp943
a(I00
g797
tp944
aa(lp945
(I00
g660
tp946
a(I00
g660
tp947
a(I00
g660
tp948
a(I00
g660
tp949
a(Ng660
tp950
a(I01
(lp951
F0.079113924050632917
aF0.265625
aF0.2578125
atp952
a(I01
(lp953
F0.12341772151898735
aF0.1015625
aF0.4765625
atp954
a(I01
(lp955
F0.12341772151898735
aF0.1015625
aF0.4765625
atp956
a(I01
(lp957
F0.12341772151898735
aF0.1015625
aF0.6953125
atp958
a(I01
(lp959
F0.12341772151898735
aF0.1015625
aF0.6953125
atp960
a(I01
(lp961
F0.12341772151898735
aF0.1015625
aF0.9453125
atp962
a(N(lp963
F0.079113924050632917
aF0.265625
aF0.2578125
atp964
a(I01
(lp965
F0.31329113924050633
aF0.1328125
aF0.3828125
atp966
a(N(lp967
F0.079113924050632917
aF0.265625
aF0.2578125
atp968
a(N(lp969
F0.079113924050632917
aF0.265625
aF0.2578125
atp970
a(I01
(lp971
F0.31329113924050633
aF0.1328125
aF0.3828125
atp972
a(N(lp973
F0.079113924050632917
aF0.265625
aF0.2578125
atp974
a(I01
(lp975
F0.063291139240506333
aF0.015625
aF0.359375
atp976
a(N(lp977
F0.079113924050632917
aF0.265625
aF0.2578125
atp978
a(I01
(lp979
F0.12341772151898735
aF0.1015625
aF0.6953125
atp980
a(N(lp981
F0.12341772151898735
aF0.1015625
aF0.9453125
atp982
a(N(lp983
F0.12341772151898735
aF0.1015625
aF0.9453125
atp984
a(N(lp985
F0.12341772151898735
aF0.1015625
aF0.9453125
atp986
a(N(lp987
F0.12341772151898735
aF0.1015625
aF0.9453125
atp988
a(N(lp989
F0.12341772151898735
aF0.1015625
aF0.9453125
atp990
a(N(lp991
F0.12341772151898735
aF0.1015625
aF0.9453125
atp992
a(I01
(lp993
F0.12341772151898735
aF0.1015625
aF0.6953125
atp994
a(I00
g797
tp995
a(I01
(lp996
F0.072784810126582278
aF0.1171875
aF0.71875
atp997
a(I00
g797
tp998
aa(lp999
(I00
g660
tp1000
a(I00
g660
tp1001
a(I00
g660
tp1002
a(I00
g660
tp1003
a(I00
g660
tp1004
a(Ng660
tp1005
a(Ng660
tp1006
a(I01
(lp1007
F0.12341772151898735
aF0.1015625
aF0.6953125
atp1008
a(N(lp1009
F0.12341772151898735
aF0.1015625
aF0.9453125
atp1010
a(N(lp1011
F0.12341772151898735
aF0.1015625
aF0.9453125
atp1012
a(I01
(lp1013
F0.12341772151898735
aF0.1015625
aF0.9453125
atp1014
a(I01
(lp1015
F0.12341772151898735
aF0.1015625
aF0.6953125
atp1016
a(N(lp1017
F0.079113924050632917
aF0.265625
aF0.2578125
atp1018
a(I00
(lp1019
F0.079113924050632917
aF0.265625
aF0.2578125
atp1020
a(I00
(lp1021
F0.079113924050632917
aF0.265625
aF0.2578125
atp1022
a(N(lp1023
F0.079113924050632917
aF0.265625
aF0.2578125
atp1024
a(N(lp1025
F0.079113924050632917
aF0.265625
aF0.2578125
atp1026
a(I01
(lp1027
F0.063291139240506333
aF0.015625
aF0.359375
atp1028
a(I01
(lp1029
F0.079113924050632917
aF0.265625
aF0.1484375
atp1030
a(I01
(lp1031
F0.12341772151898735
aF0.1015625
aF0.4765625
atp1032
a(I01
(lp1033
F0.12341772151898735
aF0.1015625
aF0.6953125
atp1034
a(I01
(lp1035
F0.12341772151898735
aF0.1015625
aF0.6953125
atp1036
a(I01
(lp1037
F0.12341772151898735
aF0.1015625
aF0.6953125
atp1038
a(I01
(lp1039
F0.12341772151898735
aF0.1015625
aF0.6953125
atp1040
a(I01
(lp1041
F0.12341772151898735
aF0.1015625
aF0.6953125
atp1042
a(I01
(lp1043
F0.12341772151898735
aF0.1015625
aF0.6953125
atp1044
a(I01
(lp1045
F0.12341772151898735
aF0.1015625
aF0.4765625
atp1046
a(I00
g797
tp1047
a(I01
(lp1048
F0.072784810126582278
aF0.2734375
aF0.65625
atp1049
a(Ng797
tp1050
aa(lp1051
(I00
g660
tp1052
a(I00
g660
tp1053
a(I00
g660
tp1054
a(I00
g660
tp1055
a(I00
g660
tp1056
a(Ng660
tp1057
a(I00
g660
tp1058
a(Ng660
tp1059
a(I01
(lp1060
F0.12341772151898735
aF0.1015625
aF0.4765625
atp1061
a(I01
(lp1062
F0.12341772151898735
aF0.1015625
aF0.4765625
atp1063
a(I01
(lp1064
F0.12341772151898735
aF0.1015625
aF0.4765625
atp1065
a(I01
(lp1066
F0.10126582278481013
aF0.5078125
aF0.21875
atp1067
a(I01
(lp1068
F0.079113924050632917
aF0.265625
aF0.1484375
atp1069
a(I01
(lp1070
F0.079113924050632917
aF0.265625
aF0.2578125
atp1071
a(I00
(lp1072
F0.079113924050632917
aF0.265625
aF0.2578125
atp1073
a(I01
(lp1074
F0.079113924050632917
aF0.265625
aF0.2578125
atp1075
a(I01
(lp1076
F0.079113924050632917
aF0.265625
aF0.1484375
atp1077
a(I01
(lp1078
F0.063291139240506333
aF0.015625
aF0.4609375
atp1079
a(Ng660
tp1080
a(I01
(lp1081
F0.10126582278481013
aF0.5078125
aF0.21875
atp1082
a(I01
(lp1083
F0.12341772151898735
aF0.1015625
aF0.4765625
atp1084
a(I01
(lp1085
F0.12341772151898735
aF0.1015625
aF0.4765625
atp1086
a(I01
(lp1087
F0.12341772151898735
aF0.1015625
aF0.4765625
atp1088
a(I01
(lp1089
F0.12341772151898735
aF0.1015625
aF0.4765625
atp1090
a(I01
(lp1091
F0.12341772151898735
aF0.1015625
aF0.4765625
atp1092
a(I01
(lp1093
F0.12341772151898735
aF0.1015625
aF0.4765625
atp1094
a(I01
(lp1095
F0.053797468354430382
aF0.265625
aF0.359375
atp1096
a(I01
(lp1097
F0.053797468354430382
aF0.265625
aF0.359375
atp1098
a(I01
(lp1099
F0.072784810126582278
aF0.2734375
aF0.65625
atp1100
a(I01
(lp1101
F0.079113924050632917
aF0.265625
aF0.2578125
atp1102
aa(lp1103
(I00
g660
tp1104
a(I00
g660
tp1105
a(I00
g660
tp1106
a(I00
g660
tp1107
a(I00
g660
tp1108
a(Ng660
tp1109
a(I00
g660
tp1110
a(Ng660
tp1111
a(Ng660
tp1112
a(Ng660
tp1113
a(Ng660
tp1114
a(I01
(lp1115
F0.10126582278481013
aF0.5078125
aF0.21875
atp1116
a(Ng660
tp1117
a(I01
(lp1118
F0.079113924050632917
aF0.265625
aF0.1484375
atp1119
a(I01
(lp1120
F0.079113924050632917
aF0.265625
aF0.1484375
atp1121
a(I01
(lp1122
F0.079113924050632917
aF0.265625
aF0.1484375
atp1123
a(Ng660
tp1124
a(I01
(lp1125
F0.063291139240506333
aF0.015625
aF0.4609375
atp1126
a(Ng660
tp1127
a(I01
(lp1128
F0.10126582278481013
aF0.5078125
aF0.21875
atp1129
a(N(lp1130
F0.54430379746835444
aF0.296875
aF0.9453125
atp1131
a(Ng1130
tp1132
a(I01
(lp1133
F0.079113924050632917
aF0.265625
aF0.1484375
atp1134
a(N(lp1135
F0.079113924050632917
aF0.265625
aF0.1484375
atp1136
a(N(lp1137
F0.079113924050632917
aF0.265625
aF0.1484375
atp1138
a(I01
(lp1139
F0.079113924050632917
aF0.265625
aF0.1484375
atp1140
a(Ng1130
tp1141
a(Ng1130
tp1142
a(I01
(lp1143
F0.072784810126582278
aF0.2734375
aF0.65625
atp1144
a(Ng1130
tp1145
aa(lp1146
(I00
g660
tp1147
a(I00
g660
tp1148
a(I00
g660
tp1149
a(I00
g660
tp1150
a(I00
g660
tp1151
a(I00
g660
tp1152
a(Ng660
tp1153
a(I00
g660
tp1154
a(I00
g660
tp1155
a(I00
g660
tp1156
a(I00
g660
tp1157
a(I01
(lp1158
F0.10126582278481013
aF0.5078125
aF0.21875
atp1159
a(I00
g660
tp1160
a(Ng660
tp1161
a(I01
(lp1162
F0.079113924050632917
aF0.265625
aF0.1484375
atp1163
a(Ng660
tp1164
a(I00
g660
tp1165
a(Ng660
tp1166
a(Ng660
tp1167
a(I01
(lp1168
F0.10126582278481013
aF0.5078125
aF0.21875
atp1169
a(I01
(lp1170
F0.10126582278481013
aF0.5078125
aF0.21875
atp1171
a(Ng1130
tp1172
a(Ng1130
tp1173
a(I01
(lp1174
F0.079113924050632917
aF0.265625
aF0.2578125
atp1175
a(I01
(lp1176
F0.079113924050632917
aF0.265625
aF0.2578125
atp1177
a(I01
(lp1178
F0.079113924050632917
aF0.265625
aF0.1484375
atp1179
a(Ng1130
tp1180
a(I00
g1130
tp1181
a(I01
(lp1182
F0.072784810126582278
aF0.2734375
aF0.4140625
atp1183
a(Ng1130
tp1184
aa(lp1185
(I00
(lp1186
F0.54430379746835444
aF0.125
aF0.9453125
atp1187
a(I00
(lp1188
F0.54430379746835444
aF0.125
aF0.9453125
atp1189
a(N(lp1190
F0.54430379746835444
aF0.125
aF0.9453125
atp1191
a(N(lp1192
F0.54430379746835444
aF0.125
aF0.9453125
atp1193
a(N(lp1194
F0.54430379746835444
aF0.125
aF0.9453125
atp1195
a(N(lp1196
F0.54430379746835444
aF0.125
aF0.9453125
atp1197
a(N(lp1198
F0.54430379746835444
aF0.125
aF0.9453125
atp1199
a(I00
(lp1200
F0.54430379746835444
aF0.125
aF0.9453125
atp1201
a(N(lp1202
F0.54430379746835444
aF0.125
aF0.9453125
atp1203
a(N(lp1204
F0.54430379746835444
aF0.125
aF0.9453125
atp1205
a(I00
(lp1206
F0.54430379746835444
aF0.125
aF0.9453125
atp1207
a(N(lp1208
F0.54430379746835444
aF0.125
aF0.9453125
atp1209
a(I00
(lp1210
F0.54430379746835444
aF0.125
aF0.9453125
atp1211
a(I00
(lp1212
F0.54430379746835444
aF0.125
aF0.9453125
atp1213
a(N(lp1214
F0.54430379746835444
aF0.125
aF0.9453125
atp1215
a(N(lp1216
F0.54430379746835444
aF0.125
aF0.9453125
atp1217
a(I00
(lp1218
F0.54430379746835444
aF0.125
aF0.9453125
atp1219
a(I00
(lp1220
F0.54430379746835444
aF0.125
aF0.9453125
atp1221
a(N(lp1222
F0.54430379746835444
aF0.125
aF0.9453125
atp1223
a(N(lp1224
F0.54430379746835444
aF0.125
aF0.9453125
atp1225
a(I01
(lp1226
F0.10126582278481013
aF0.5078125
aF0.21875
atp1227
a(N(lp1228
F0.54430379746835444
aF0.125
aF0.9453125
atp1229
a(I00
(lp1230
F0.54430379746835444
aF0.125
aF0.9453125
atp1231
a(N(lp1232
F0.54430379746835444
aF0.125
aF0.9453125
atp1233
a(N(lp1234
F0.54430379746835444
aF0.125
aF0.9453125
atp1235
a(N(lp1236
F0.54430379746835444
aF0.125
aF0.9453125
atp1237
a(N(lp1238
F0.54430379746835444
aF0.125
aF0.9453125
atp1239
a(N(lp1240
F0.54430379746835444
aF0.125
aF0.9453125
atp1241
a(N(lp1242
F0.54430379746835444
aF0.125
aF0.9453125
atp1243
a(N(lp1244
F0.54430379746835444
aF0.125
aF0.9453125
atp1245
aa(lp1246
(I00
(lp1247
F0
aF0
aF0.8828125
atp1248
a(N(lp1249
F0
aF0
aF0.8828125
atp1250
a(I01
(lp1251
F0
aF0
aF0.6640625
atp1252
a(I01
g1251
tp1253
a(I01
g1251
tp1254
a(I01
g1251
tp1255
a(N(lp1256
F0
aF0
aF0.8828125
atp1257
a(N(lp1258
F0
aF0
aF0.8828125
atp1259
a(N(lp1260
F0
aF0
aF0.8828125
atp1261
a(I01
g1251
tp1262
a(I01
g1251
tp1263
a(I01
g1251
tp1264
a(I01
g1251
tp1265
a(N(lp1266
F0
aF0
aF0.8828125
atp1267
a(N(lp1268
F0
aF0
aF0.8828125
atp1269
a(N(lp1270
F0
aF0
aF0.8828125
atp1271
a(N(lp1272
F0
aF0
aF0.8828125
atp1273
a(I00
(lp1274
F0
aF0
aF0.8828125
atp1275
a(I01
g1251
tp1276
a(I01
g1251
tp1277
a(I01
(lp1278
F0.10126582278481013
aF0.5078125
aF0.21875
atp1279
a(I01
(lp1280
F0
aF0
aF0.6640625
atp1281
a(I01
g1280
tp1282
a(I00
(lp1283
F0
aF0
aF0.8828125
atp1284
a(I00
(lp1285
F0
aF0
aF0.8828125
atp1286
a(N(lp1287
F0
aF0
aF0.8828125
atp1288
a(I01
g1280
tp1289
a(I01
g1280
tp1290
a(I01
(lp1291
F0
aF0
aF0.6640625
atp1292
a(I00
(lp1293
F0
aF0
aF0.8828125
atp1294
aa(lp1295
(N(lp1296
F0
aF0
aF0.8828125
atp1297
a(I01
g1251
tp1298
a(I01
g1251
tp1299
a(N(lp1300
F0
aF0
aF0.9453125
atp1301
a(Ng1300
tp1302
a(I01
g1251
tp1303
a(I01
g1251
tp1304
a(N(lp1305
F0
aF0
aF0.8828125
atp1306
a(I01
g1251
tp1307
a(I01
g1251
tp1308
a(Ng1300
tp1309
a(Ng1300
tp1310
a(I01
g1251
tp1311
a(I01
g1251
tp1312
a(N(lp1313
F0
aF0
aF0.8828125
atp1314
a(N(lp1315
F0
aF0
aF0.8828125
atp1316
a(N(lp1317
F0
aF0
aF0.8828125
atp1318
a(I01
g1251
tp1319
a(I01
g1251
tp1320
a(N(lp1321
F0
aF0
aF0.9453125
atp1322
a(I01
(lp1323
F0.10126582278481013
aF0.5078125
aF0.21875
atp1324
a(Ng1321
tp1325
a(I01
g1280
tp1326
a(I01
g1280
tp1327
a(N(lp1328
F0
aF0
aF0.8828125
atp1329
a(I01
g1280
tp1330
a(I01
g1280
tp1331
a(Ng1321
tp1332
a(I01
g1280
tp1333
a(I01
g1280
tp1334
aa(lp1335
(I01
g1251
tp1336
a(I01
g1251
tp1337
a(Ng1300
tp1338
a(Ng1300
tp1339
a(Ng1300
tp1340
a(Ng1300
tp1341
a(I01
g1251
tp1342
a(I01
g1251
tp1343
a(I01
g1251
tp1344
a(Ng1300
tp1345
a(Ng1300
tp1346
a(I01
g1251
tp1347
a(I01
g1251
tp1348
a(I01
g1251
tp1349
a(I01
g1251
tp1350
a(I01
g1251
tp1351
a(I01
g1251
tp1352
a(I01
g1251
tp1353
a(I01
g1251
tp1354
a(Ng1321
tp1355
a(Ng1321
tp1356
a(Ng1321
tp1357
a(Ng1321
tp1358
a(I01
g1280
tp1359
a(I01
g1280
tp1360
a(I01
g1280
tp1361
a(Ng1321
tp1362
a(Ng1321
tp1363
a(Ng1321
tp1364
a(I01
g1280
tp1365
aa(lp1366
(I01
g1251
tp1367
a(I01
g1251
tp1368
a(I01
g1251
tp1369
a(I01
g1251
tp1370
a(I01
g1251
tp1371
a(Ng1300
tp1372
a(Ng1300
tp1373
a(Ng1300
tp1374
a(Ng1300
tp1375
a(Ng1300
tp1376
a(I01
g1251
tp1377
a(I01
g1251
tp1378
a(I01
g1251
tp1379
a(I01
g1251
tp1380
a(I01
g1251
tp1381
a(I01
g1251
tp1382
a(I01
g1251
tp1383
a(I01
g1251
tp1384
a(I01
g1251
tp1385
a(I01
g1251
tp1386
a(I01
g1251
tp1387
a(Ng1321
tp1388
a(Ng1321
tp1389
a(Ng1321
tp1390
a(Ng1321
tp1391
a(Ng1321
tp1392
a(Ng1321
tp1393
a(I01
g1280
tp1394
a(I01
g1280
tp1395
a(I01
g1280
tp1396
aa(lp1397
(I01
g1251
tp1398
a(I01
g1251
tp1399
a(I01
g1251
tp1400
a(I01
g1251
tp1401
a(I01
g1251
tp1402
a(I01
g1251
tp1403
a(Ng1300
tp1404
a(Ng1300
tp1405
a(Ng1300
tp1406
a(I01
g1251
tp1407
a(I01
g1251
tp1408
a(I01
g1251
tp1409
a(I01
g1251
tp1410
a(I01
g1251
tp1411
a(I01
g1251
tp1412
a(I01
g1251
tp1413
a(I01
g1251
tp1414
a(I01
g1251
tp1415
a(I01
g1251
tp1416
a(I01
g1251
tp1417
a(I01
g1251
tp1418
a(I01
g1251
tp1419
a(Ng1321
tp1420
a(Ng1321
tp1421
a(Ng1321
tp1422
a(I01
g1280
tp1423
a(I01
g1280
tp1424
a(I01
g1280
tp1425
a(I01
g1280
tp1426
a(I01
g1280
tp1427
aasS'height'
p1428
I30
sS'width'
p1429
I30
sS'column_numbers'
p1430
(lp1431
(I1
I3
tp1432
a(I1
I4
tp1433
a(I3
I1
I2
I2
tp1434
a(I1
I2
I2
I1
I2
tp1435
a(I2
I1
I3
I1
I2
tp1436
a(I5
I2
I2
I1
tp1437
a(I7
I1
I1
I2
tp1438
a(I3
I1
I1
I2
I1
tp1439
a(I1
I1
I2
I1
I2
tp1440
a(I1
I5
I3
I1
I1
I2
I1
tp1441
a(I6
I5
I1
I3
I1
I2
tp1442
a(I1
I8
I1
I2
I4
I1
I3
tp1443
a(I2
I1
I1
I3
I1
I5
tp1444
a(I1
I4
I3
I2
I4
tp1445
a(I6
I2
I1
I2
I2
I3
tp1446
a(I1
I10
I3
I2
I3
tp1447
a(I7
I1
I3
tp1448
a(I2
I3
I1
I6
I4
tp1449
a(I1
I6
I4
I1
I5
tp1450
a(I1
I1
I3
I1
I6
I1
I2
tp1451
a(I1
I10
I1
I2
I4
I2
tp1452
a(I2
I1
I5
I3
I2
I1
I1
tp1453
a(I9
I2
I1
I3
I2
tp1454
a(I2
I2
I1
I1
I2
I1
I2
tp1455
a(I1
I5
I2
I3
I2
I1
I1
tp1456
a(I5
I4
I1
I4
I2
I1
tp1457
a(I1
I8
I5
I2
I1
tp1458
a(I1
I2
I1
I1
I2
tp1459
a(I6
I5
I2
I2
tp1460
a(I2
I1
I4
tp1461
asS'background'
p1462
S'blue'
p1463
sb.