ccopy_reg
_reconstructor
p1
(cpuzzle
Pack
p2
c__builtin__
object
p3
NtRp4
(dp5
S'uuid'
p6
S'04a70590-f1be-4afb-b672-99e2e22166a1'
p7
sS'author_name'
p8
S'Stompy Blondie'
p9
sS'name'
p10
S'Puzzle Improvements'
p11
sS'puzzles'
p12
(dp13
S'0001.puz'
p14
(lp15
VCup of Tea
p16
aI10
aI10
asS'0003.puz'
p17
(lp18
VMaracas
p19
aI15
aI15
asS'0002.puz'
p20
(lp21
VCake
p22
aI10
aI10
assS'author_id'
p23
S'0c3a976c-5926-4804-8c2f-8d0b5224863f'
p24
sS'order'
p25
(lp26
g14
ag20
ag17
asS'freemode'
p27
I00
sb.