ccopy_reg
_reconstructor
p0
(cpuzzle
Puzzle
p1
c__builtin__
object
p2
Ntp3
Rp4
(dp5
S'row_numbers'
p6
(lp7
(I1
I3
tp8
a(I1
I1
I1
tp9
a(I9
tp10
a(I10
tp11
a(I2
I2
I2
tp12
asS'name'
p13
VSteam Train
p14
sS'cells'
p15
(lp16
(lp17
(I00
(lp18
F0.4936708860759494
aF0.2265625
aF0.8828125
atp19
a(I01
(lp20
F0.0
aF0.0
aF0.3125
atp21
a(I00
(lp22
F0.4936708860759494
aF0.2265625
aF0.8828125
atp23
a(I00
(lp24
F0.4936708860759494
aF0.2265625
aF0.8828125
atp25
a(I00
(lp26
F0.4936708860759494
aF0.2265625
aF0.8828125
atp27
a(I00
(lp28
F0.4936708860759494
aF0.2265625
aF0.8828125
atp29
a(I00
(lp30
F0.4936708860759494
aF0.2265625
aF0.8828125
atp31
a(I01
(lp32
F0.0
aF0.0
aF0.3125
atp33
a(I01
(lp34
F0.0
aF0.0
aF0.3125
atp35
a(I01
(lp36
F0.0
aF0.0
aF0.3125
atp37
aa(lp38
(I00
(lp39
F0.4936708860759494
aF0.2265625
aF0.8828125
atp40
a(I01
(lp41
F0.0
aF0.0
aF0.3125
atp42
a(I00
(lp43
F0.4936708860759494
aF0.2265625
aF0.8828125
atp44
a(I00
(lp45
F0.4936708860759494
aF0.2265625
aF0.8828125
atp46
a(I01
(lp47
F0.0
aF0.0
aF0.3125
atp48
a(I00
(lp49
F0.4936708860759494
aF0.2265625
aF0.8828125
atp50
a(I00
(lp51
F0.4936708860759494
aF0.2265625
aF0.8828125
atp52
a(I01
(lp53
F0.0
aF0.0
aF0.3125
atp54
a(I00
(lp55
F0.4936708860759494
aF0.2265625
aF0.8828125
atp56
a(I00
(lp57
F0.4936708860759494
aF0.2265625
aF0.8828125
atp58
aa(lp59
(I01
(lp60
F0.0
aF0.0
aF0.4140625
atp61
a(I01
(lp62
F0.0
aF0.0
aF0.4140625
atp63
a(I01
(lp64
F0.0
aF0.0
aF0.4140625
atp65
a(I01
(lp66
F0.0
aF0.0
aF0.4140625
atp67
a(I01
(lp68
F0.0
aF0.0
aF0.4140625
atp69
a(I01
(lp70
F0.0
aF0.0
aF0.4140625
atp71
a(I01
(lp72
F0.0
aF0.0
aF0.4140625
atp73
a(I01
(lp74
F0.0
aF0.0
aF0.3125
atp75
a(I01
(lp76
F0.0
aF0.0
aF0.3125
atp77
a(I00
(lp78
F0.27531645569620256
aF0.515625
aF0.8828125
atp79
aa(lp80
(I01
(lp81
F0.0
aF0.0
aF0.2265625
atp82
a(I01
(lp83
F0.0
aF0.0
aF0.2265625
atp84
a(I01
(lp85
F0.0
aF0.0
aF0.2265625
atp86
a(I01
(lp87
F0.0
aF0.0
aF0.2265625
atp88
a(I01
(lp89
F0.0
aF0.0
aF0.2265625
atp90
a(I01
(lp91
F0.0
aF0.0
aF0.2265625
atp92
a(I01
(lp93
F0.0
aF0.0
aF0.2265625
atp94
a(I01
(lp95
F0.0
aF0.0
aF0.3125
atp96
a(I01
(lp97
F0.0
aF0.0
aF0.3125
atp98
a(I01
(lp99
F0.0
aF0.0
aF0.3125
atp100
aa(lp101
(I00
(lp102
F0.14240506329113925
aF0.3203125
aF0.6953125
atp103
a(I01
(lp104
F0.0
aF0.0
aF0.1015625
atp105
a(I01
(lp106
F0.0
aF0.0
aF0.1015625
atp107
a(I00
(lp108
F0.14240506329113925
aF0.3203125
aF0.6953125
atp109
a(I01
(lp110
F0.0
aF0.0
aF0.1015625
atp111
a(I01
(lp112
F0.0
aF0.0
aF0.1015625
atp113
a(I00
(lp114
F0.14240506329113925
aF0.3203125
aF0.6953125
atp115
a(I01
(lp116
F0.0
aF0.0
aF0.1015625
atp117
a(I01
(lp118
F0.0
aF0.0
aF0.1015625
atp119
a(I00
(lp120
F0.14240506329113925
aF0.3203125
aF0.6953125
atp121
aasS'height'
p122
I5
sS'width'
p123
I10
sS'column_numbers'
p124
(lp125
(I2
tp126
a(I5
tp127
a(I3
tp128
a(I2
tp129
a(I4
tp130
a(I3
tp131
a(I2
tp132
a(I5
tp133
a(I1
I3
tp134
a(I1
I1
tp135
asS'background'
p136
S'blue'
p137
sb.