ccopy_reg
_reconstructor
p0
(cpuzzle
Puzzle
p1
c__builtin__
object
p2
Ntp3
Rp4
(dp5
S'row_numbers'
p6
(lp7
(I1
I1
tp8
a(I5
I2
tp9
a(I1
I6
tp10
a(I9
tp11
a(I4
I2
tp12
asS'name'
p13
VGoldfish
p14
sS'cells'
p15
(lp16
(lp17
(N(lp18
F0.4430379746835443
aF0.2265625
aF0.78125
atp19
a(N(lp20
F0.4430379746835443
aF0.2265625
aF0.78125
atp21
a(N(lp22
F0.4430379746835443
aF0.2265625
aF0.78125
atp23
a(N(lp24
F0.4430379746835443
aF0.2265625
aF0.78125
atp25
a(N(lp26
F0.4430379746835443
aF0.2265625
aF0.78125
atp27
a(I01
(lp28
F0.10759493670886076
aF0.75
aF0.8984375
atp29
a(N(lp30
F0.4430379746835443
aF0.2265625
aF0.78125
atp31
a(I00
(lp32
F0.4430379746835443
aF0.2265625
aF0.78125
atp33
a(N(lp34
F0.4430379746835443
aF0.2265625
aF0.78125
atp35
a(I01
(lp36
F0.0981012658227848
aF0.796875
aF0.828125
atp37
aa(lp38
(N(lp39
F0.4430379746835443
aF0.2265625
aF0.78125
atp40
a(N(lp41
F0.4430379746835443
aF0.2265625
aF0.78125
atp42
a(I01
(lp43
F0.10759493670886076
aF0.75
aF0.8984375
atp44
a(I01
(lp45
F0.10759493670886076
aF0.75
aF0.8984375
atp46
a(I01
(lp47
F0.10759493670886076
aF0.75
aF0.8984375
atp48
a(I01
(lp49
F0.10759493670886076
aF0.75
aF0.8984375
atp50
a(I01
(lp51
F0.10759493670886076
aF0.75
aF0.8984375
atp52
a(N(lp53
F0.4430379746835443
aF0.2265625
aF0.78125
atp54
a(I01
(lp55
F0.0981012658227848
aF0.796875
aF0.828125
atp56
a(I01
(lp57
F0.07278481012658228
aF0.6953125
aF0.75
atp58
aa(lp59
(N(lp60
F0.4208860759493671
aF0.2265625
aF0.78125
atp61
a(I01
(lp62
F0.10759493670886076
aF0.75
aF0.8984375
atp63
a(N(lp64
F0.0981012658227848
aF0.796875
aF0.3359375
atp65
a(I01
(lp66
F0.0981012658227848
aF0.796875
aF0.828125
atp67
a(I01
(lp68
F0.0981012658227848
aF0.796875
aF0.828125
atp69
a(I01
(lp70
F0.08227848101265822
aF0.75
aF0.8125
atp71
a(I01
(lp72
F0.07278481012658228
aF0.6953125
aF0.75
atp73
a(I01
(lp74
F0.0981012658227848
aF0.796875
aF0.828125
atp75
a(I01
(lp76
F0.07278481012658228
aF0.6953125
aF0.75
atp77
a(I00
(lp78
F0.4430379746835443
aF0.2265625
aF0.78125
atp79
aa(lp80
(I01
(lp81
F0.10759493670886076
aF0.75
aF0.8984375
atp82
a(I01
(lp83
F0.0981012658227848
aF0.796875
aF0.828125
atp84
a(I01
(lp85
F0.0981012658227848
aF0.796875
aF0.828125
atp86
a(I01
(lp87
F0.08227848101265822
aF0.75
aF0.8125
atp88
a(I01
(lp89
F0.08227848101265822
aF0.75
aF0.8125
atp90
a(I01
(lp91
F0.10759493670886076
aF0.75
aF0.8984375
atp92
a(I01
(lp93
F0.05063291139240506
aF0.6484375
aF0.640625
atp94
a(I01
(lp95
F0.07278481012658228
aF0.6953125
aF0.75
atp96
a(I01
(lp97
F0.0981012658227848
aF0.796875
aF0.828125
atp98
a(I00
(lp99
F0.4430379746835443
aF0.2265625
aF0.78125
atp100
aa(lp101
(N(lp102
F0.4430379746835443
aF0.2265625
aF0.78125
atp103
a(N(lp104
F0.4430379746835443
aF0.2265625
aF0.78125
atp105
a(I01
(lp106
F0.07278481012658228
aF0.6953125
aF0.75
atp107
a(I01
(lp108
F0.07278481012658228
aF0.6953125
aF0.75
atp109
a(I01
(lp110
F0.05063291139240506
aF0.6484375
aF0.640625
atp111
a(I01
(lp112
F0.05063291139240506
aF0.6484375
aF0.640625
atp113
a(N(lp114
F0.4430379746835443
aF0.2265625
aF0.78125
atp115
a(N(lp116
F0.4430379746835443
aF0.2265625
aF0.78125
atp117
a(I01
(lp118
F0.07278481012658228
aF0.6953125
aF0.75
atp119
a(I01
(lp120
F0.0981012658227848
aF0.796875
aF0.828125
atp121
aasS'height'
p122
I5
sS'width'
p123
I10
sS'column_numbers'
p124
(lp125
(I1
tp126
a(I2
tp127
a(I1
I2
tp128
a(I4
tp129
a(I4
tp130
a(I5
tp131
a(I3
tp132
a(I2
tp133
a(I4
tp134
a(I2
I1
tp135
asS'background'
p136
S'blue'
p137
sb.