ccopy_reg
_reconstructor
p0
(cpuzzle
Puzzle
p1
c__builtin__
object
p2
Ntp3
Rp4
(dp5
S'row_numbers'
p6
(lp7
(I7
tp8
a(I9
tp9
a(I1
I1
tp10
a(I1
I1
tp11
a(I1
I1
tp12
a(I1
I1
tp13
a(I1
I1
tp14
a(I1
I1
tp15
a(I3
I4
tp16
a(I5
tp17
asS'name'
p18
VCoffee to Go
p19
sS'cells'
p20
(lp21
(lp22
(I00
(lp23
F0.08544303797468354
aF0.53125
aF0.4609375
atp24
a(I01
(lp25
F0.0
aF0.0
aF0.15625
atp26
a(I01
(lp27
F0.0
aF0.0
aF0.265625
atp28
a(I01
(lp29
F0.0
aF0.0
aF0.265625
atp30
a(I01
(lp31
F0.0
aF0.0
aF0.265625
atp32
a(I01
(lp33
F0.0
aF0.0
aF0.265625
atp34
a(I01
(lp35
F0.0
aF0.0
aF0.15625
atp36
a(I01
(lp37
F0.0
aF0.0
aF0.15625
atp38
a(N(lp39
F0.08544303797468354
aF0.53125
aF0.4609375
atp40
a(I00
(lp41
F0.08544303797468354
aF0.53125
aF0.4609375
atp42
aa(lp43
(I01
(lp44
F0.0
aF0.0
aF0.15625
atp45
a(I01
(lp46
F0.0
aF0.0
aF0.265625
atp47
a(I01
(lp48
F0.0
aF0.0
aF0.265625
atp49
a(I01
(lp50
F0.0
aF0.0
aF0.265625
atp51
a(I01
(lp52
F0.0
aF0.0
aF0.265625
atp53
a(I01
(lp54
F0.0
aF0.0
aF0.265625
atp55
a(I01
(lp56
F0.0
aF0.0
aF0.15625
atp57
a(I01
(lp58
F0.0
aF0.0
aF0.15625
atp59
a(I01
(lp60
F0.0
aF0.0
aF0.15625
atp61
a(N(lp62
F0.08544303797468354
aF0.53125
aF0.4609375
atp63
aa(lp64
(I00
(lp65
F0.08544303797468354
aF0.53125
aF0.4609375
atp66
a(I01
(lp67
F0.0
aF0.0
aF0.6640625
atp68
a(N(lp69
F0.0
aF0.0
aF0.84375
atp70
a(N(lp71
F0.0
aF0.0
aF0.84375
atp72
a(N(lp73
F0.0
aF0.0
aF0.84375
atp74
a(N(lp75
F0.0
aF0.0
aF0.6640625
atp76
a(N(lp77
F0.0
aF0.0
aF0.53125
atp78
a(I01
(lp79
F0.0
aF0.0
aF0.53125
atp80
a(N(lp81
F0.08544303797468354
aF0.53125
aF0.4609375
atp82
a(I00
(lp83
F0.08544303797468354
aF0.53125
aF0.4609375
atp84
aa(lp85
(I00
(lp86
F0.08544303797468354
aF0.53125
aF0.4609375
atp87
a(I01
(lp88
F0.0
aF0.0
aF0.6640625
atp89
a(N(lp90
F0.0
aF0.0
aF0.84375
atp91
a(I00
(lp92
F0.0
aF0.0
aF0.84375
atp93
a(N(lp94
F0.27848101265822783
aF0.328125
aF0.640625
atp95
a(N(lp96
F0.27848101265822783
aF0.328125
aF0.4609375
atp97
a(N(lp98
F0.27848101265822783
aF0.328125
aF0.3125
atp99
a(I01
(lp100
F0.0
aF0.0
aF0.53125
atp101
a(N(lp102
F0.08544303797468354
aF0.53125
aF0.4609375
atp103
a(I00
(lp104
F0.08544303797468354
aF0.53125
aF0.4609375
atp105
aa(lp106
(N(lp107
F0.08544303797468354
aF0.53125
aF0.4609375
atp108
a(I01
(lp109
F0.0
aF0.0
aF0.6640625
atp110
a(N(lp111
F0.0
aF0.0
aF0.84375
atp112
a(I00
(lp113
F0.27848101265822783
aF0.328125
aF0.640625
atp114
a(I00
(lp115
F0.0
aF0.0
aF0.84375
atp116
a(N(lp117
F0.0
aF0.0
aF0.6640625
atp118
a(N(lp119
F0.0
aF0.0
aF0.53125
atp120
a(I01
(lp121
F0.27848101265822783
aF0.328125
aF0.3125
atp122
a(N(lp123
F0.08544303797468354
aF0.53125
aF0.4609375
atp124
a(N(lp125
F0.08544303797468354
aF0.53125
aF0.4609375
atp126
aa(lp127
(I00
(lp128
F0.08544303797468354
aF0.53125
aF0.4609375
atp129
a(I01
(lp130
F0.0
aF0.0
aF0.6640625
atp131
a(N(lp132
F0.0
aF0.0
aF0.84375
atp133
a(N(lp134
F0.27848101265822783
aF0.328125
aF0.640625
atp135
a(N(lp136
F0.0
aF0.0
aF0.84375
atp137
a(N(lp138
F0.0
aF0.0
aF0.6640625
atp139
a(N(lp140
F0.0
aF0.0
aF0.53125
atp141
a(I01
(lp142
F0.27848101265822783
aF0.328125
aF0.3125
atp143
a(N(lp144
F0.08544303797468354
aF0.53125
aF0.4609375
atp145
a(I00
(lp146
F0.08544303797468354
aF0.53125
aF0.4609375
atp147
aa(lp148
(I00
(lp149
F0.08544303797468354
aF0.53125
aF0.4609375
atp150
a(N(lp151
F0.08544303797468354
aF0.53125
aF0.4609375
atp152
a(I01
(lp153
F0.0
aF0.0
aF0.6640625
atp154
a(N(lp155
F0.27848101265822783
aF0.328125
aF0.640625
atp156
a(I00
(lp157
F0.0
aF0.0
aF0.84375
atp158
a(N(lp159
F0.0
aF0.0
aF0.6640625
atp160
a(I01
(lp161
F0.0
aF0.0
aF0.53125
atp162
a(N(lp163
F0.08544303797468354
aF0.53125
aF0.4609375
atp164
a(N(lp165
F0.08544303797468354
aF0.53125
aF0.4609375
atp166
a(I00
(lp167
F0.08544303797468354
aF0.53125
aF0.4609375
atp168
aa(lp169
(I00
(lp170
F0.08544303797468354
aF0.53125
aF0.4609375
atp171
a(I00
(lp172
F0.08544303797468354
aF0.53125
aF0.4609375
atp173
a(I01
(lp174
F0.0
aF0.0
aF0.6640625
atp175
a(N(lp176
F0.0
aF0.0
aF0.84375
atp177
a(N(lp178
F0.27848101265822783
aF0.328125
aF0.640625
atp179
a(N(lp180
F0.27848101265822783
aF0.328125
aF0.4609375
atp181
a(I01
(lp182
F0.27848101265822783
aF0.328125
aF0.3125
atp183
a(N(lp184
F0.08544303797468354
aF0.53125
aF0.4609375
atp185
a(N(lp186
F0.08544303797468354
aF0.53125
aF0.4609375
atp187
a(I00
(lp188
F0.08544303797468354
aF0.53125
aF0.4609375
atp189
aa(lp190
(I01
(lp191
F0.08544303797468354
aF0.53125
aF0.359375
atp192
a(I01
(lp193
F0.08544303797468354
aF0.53125
aF0.359375
atp194
a(I01
(lp195
F0.0
aF0.0
aF0.6640625
atp196
a(N(lp197
F0.0
aF0.0
aF0.84375
atp198
a(N(lp199
F0.0
aF0.0
aF0.84375
atp200
a(N(lp201
F0.0
aF0.0
aF0.6640625
atp202
a(I01
(lp203
F0.0
aF0.0
aF0.53125
atp204
a(I01
(lp205
F0.08544303797468354
aF0.53125
aF0.359375
atp206
a(I01
(lp207
F0.08544303797468354
aF0.53125
aF0.359375
atp208
a(I01
(lp209
F0.08544303797468354
aF0.53125
aF0.359375
atp210
aa(lp211
(I00
(lp212
F0.08544303797468354
aF0.53125
aF0.359375
atp213
a(I00
(lp214
F0.08544303797468354
aF0.53125
aF0.359375
atp215
a(I01
(lp216
F0.0
aF0.0
aF0.6640625
atp217
a(I01
(lp218
F0.0
aF0.0
aF0.84375
atp219
a(I01
(lp220
F0.0
aF0.0
aF0.84375
atp221
a(I01
(lp222
F0.0
aF0.0
aF0.6640625
atp223
a(I01
(lp224
F0.0
aF0.0
aF0.53125
atp225
a(N(lp226
F0.08544303797468354
aF0.53125
aF0.359375
atp227
a(N(lp228
F0.08544303797468354
aF0.53125
aF0.359375
atp229
a(N(lp230
F0.08544303797468354
aF0.53125
aF0.359375
atp231
aasS'height'
p232
I10
sS'width'
p233
I10
sS'column_numbers'
p234
(lp235
(I1
I1
tp236
a(I6
I1
tp237
a(I2
I4
tp238
a(I2
I1
tp239
a(I2
I1
tp240
a(I2
I1
tp241
a(I2
I4
tp242
a(I6
I1
tp243
a(I1
I1
tp244
a(I1
tp245
asS'background'
p246
S'blue'
p247
sb.