ccopy_reg
_reconstructor
p0
(cpuzzle
Puzzle
p1
c__builtin__
object
p2
Ntp3
Rp4
(dp5
S'row_numbers'
p6
(lp7
(I25
tp8
a(I1
I1
I1
I1
tp9
a(I4
I1
I1
I1
I1
I1
I1
I1
I1
I1
tp10
a(I1
I1
I1
I1
tp11
a(I1
I5
I1
I1
I1
I5
I1
tp12
a(I1
I1
I1
I1
I1
tp13
a(I1
I1
I1
I1
I1
I1
I1
I1
I1
I1
I5
tp14
a(I1
I1
I2
I2
tp15
a(I1
I1
I1
I1
I9
I1
I1
I1
tp16
a(I1
I1
tp17
a(I1
I1
I1
I1
I1
I1
tp18
a(I1
I2
I2
I1
tp19
a(I7
I1
I1
I1
I7
tp20
a(I5
I2
tp21
a(I1
I1
I1
I1
I2
tp22
a(I2
tp23
a(I1
I1
I1
I1
I9
I1
I1
I1
I1
tp24
a(I1
I1
I1
I1
I1
tp25
a(I1
I1
I1
I1
I1
I1
I1
I1
I1
I1
I1
I1
I1
tp26
a(I1
I1
I1
I1
I1
tp27
a(I1
I5
I1
I1
I1
I5
I1
tp28
a(I1
I1
I1
I1
tp29
a(I4
I1
I1
I1
I1
I1
I1
I1
I4
tp30
a(I1
I1
I1
I1
tp31
a(I25
tp32
asS'name'
p33
VWakka Wakka
p34
sS'cells'
p35
(lp36
(lp37
(I01
(lp38
F0.6265822784810127
aF0.7890625
aF0.921875
atp39
a(I01
(lp40
F0.6265822784810127
aF0.7890625
aF0.921875
atp41
a(I01
(lp42
F0.6265822784810127
aF0.7890625
aF0.921875
atp43
a(I01
(lp44
F0.6265822784810127
aF0.7890625
aF0.921875
atp45
a(I01
(lp46
F0.6265822784810127
aF0.7890625
aF0.921875
atp47
a(I01
(lp48
F0.6265822784810127
aF0.7890625
aF0.921875
atp49
a(I01
(lp50
F0.6265822784810127
aF0.7890625
aF0.921875
atp51
a(I01
(lp52
F0.6265822784810127
aF0.7890625
aF0.921875
atp53
a(I01
(lp54
F0.6265822784810127
aF0.7890625
aF0.921875
atp55
a(I01
(lp56
F0.6265822784810127
aF0.7890625
aF0.921875
atp57
a(I01
(lp58
F0.6265822784810127
aF0.7890625
aF0.921875
atp59
a(I01
(lp60
F0.6265822784810127
aF0.7890625
aF0.921875
atp61
a(I01
(lp62
F0.6265822784810127
aF0.7890625
aF0.921875
atp63
a(I01
(lp64
F0.6265822784810127
aF0.7890625
aF0.921875
atp65
a(I01
(lp66
F0.6265822784810127
aF0.7890625
aF0.921875
atp67
a(I01
(lp68
F0.6265822784810127
aF0.7890625
aF0.921875
atp69
a(I01
(lp70
F0.6265822784810127
aF0.7890625
aF0.921875
atp71
a(I01
(lp72
F0.6265822784810127
aF0.7890625
aF0.921875
atp73
a(I01
(lp74
F0.6265822784810127
aF0.7890625
aF0.921875
atp75
a(I01
(lp76
F0.6265822784810127
aF0.7890625
aF0.921875
atp77
a(I01
(lp78
F0.6265822784810127
aF0.7890625
aF0.921875
atp79
a(I01
(lp80
F0.6265822784810127
aF0.7890625
aF0.921875
atp81
a(I01
(lp82
F0.6265822784810127
aF0.7890625
aF0.921875
atp83
a(I01
(lp84
F0.6265822784810127
aF0.7890625
aF0.921875
atp85
a(I01
(lp86
F0.6265822784810127
aF0.7890625
aF0.921875
atp87
aa(lp88
(I01
(lp89
F0.6265822784810127
aF0.7890625
aF0.921875
atp90
a(I00
(lp91
F0.6265822784810127
aF0.2890625
aF0.234375
atp92
a(I01
(lp93
F0.5791139240506329
aF0.046875
aF0.96875
atp94
a(I00
(lp95
F0.6265822784810127
aF0.2890625
aF0.234375
atp96
a(I00
(lp97
F0.6392405063291139
aF0.6875
aF0.1484375
atp98
a(I00
(lp99
F0.6392405063291139
aF0.6875
aF0.1484375
atp100
a(I00
(lp101
F0.6392405063291139
aF0.6875
aF0.1484375
atp102
a(I00
(lp103
F0.6392405063291139
aF0.6875
aF0.1484375
atp104
a(I00
(lp105
F0.6392405063291139
aF0.6875
aF0.1484375
atp106
a(I00
(lp107
F0.6392405063291139
aF0.6875
aF0.1484375
atp108
a(I00
(lp109
F0.6392405063291139
aF0.6875
aF0.1484375
atp110
a(I00
(lp111
F0.6392405063291139
aF0.6875
aF0.1484375
atp112
a(I01
(lp113
F0.6265822784810127
aF0.7890625
aF0.921875
atp114
a(I00
(lp115
F0.6392405063291139
aF0.6875
aF0.1484375
atp116
a(I00
(lp117
F0.6392405063291139
aF0.6875
aF0.1484375
atp118
a(I00
(lp119
F0.6392405063291139
aF0.6875
aF0.1484375
atp120
a(I00
(lp121
F0.6392405063291139
aF0.6875
aF0.1484375
atp122
a(I00
(lp123
F0.6392405063291139
aF0.6875
aF0.1484375
atp124
a(I00
(lp125
F0.6392405063291139
aF0.6875
aF0.1484375
atp126
a(I00
(lp127
F0.6392405063291139
aF0.6875
aF0.1484375
atp128
a(I00
(lp129
F0.6392405063291139
aF0.6875
aF0.1484375
atp130
a(I00
(lp131
F0.6392405063291139
aF0.6875
aF0.1484375
atp132
a(I00
(lp133
F0.6392405063291139
aF0.6875
aF0.1484375
atp134
a(I00
(lp135
F0.6392405063291139
aF0.6875
aF0.1484375
atp136
a(I01
(lp137
F0.6265822784810127
aF0.7890625
aF0.921875
atp138
aa(lp139
(I01
(lp140
F0.6265822784810127
aF0.7890625
aF0.921875
atp141
a(I01
(lp142
F0.5791139240506329
aF0.046875
aF0.96875
atp143
a(I01
(lp144
F0.5791139240506329
aF0.046875
aF0.96875
atp145
a(I01
(lp146
F0.5791139240506329
aF0.046875
aF0.96875
atp147
a(I00
(lp148
F0.6392405063291139
aF0.6875
aF0.1484375
atp149
a(I00
(lp150
F0.6392405063291139
aF0.6875
aF0.1484375
atp151
a(I01
(lp152
F0.15822784810126583
aF0.6640625
aF1.0
atp153
a(I00
(lp154
F0.6392405063291139
aF0.6875
aF0.1484375
atp155
a(I01
(lp156
F0.15822784810126583
aF0.6640625
aF1.0
atp157
a(I00
(lp158
F0.6392405063291139
aF0.6875
aF0.1484375
atp159
a(I01
(lp160
F0.15822784810126583
aF0.6640625
aF1.0
atp161
a(I00
(lp162
F0.6392405063291139
aF0.6875
aF0.1484375
atp163
a(I01
(lp164
F0.6265822784810127
aF0.7890625
aF0.921875
atp165
a(I00
(lp166
F0.6392405063291139
aF0.6875
aF0.1484375
atp167
a(I01
(lp168
F0.15822784810126583
aF0.6640625
aF1.0
atp169
a(I00
(lp170
F0.6392405063291139
aF0.6875
aF0.1484375
atp171
a(I01
(lp172
F0.15822784810126583
aF0.6640625
aF1.0
atp173
a(I00
(lp174
F0.6392405063291139
aF0.6875
aF0.1484375
atp175
a(I01
(lp176
F0.15822784810126583
aF0.6640625
aF1.0
atp177
a(I00
(lp178
F0.6392405063291139
aF0.6875
aF0.1484375
atp179
a(I01
(lp180
F0.15822784810126583
aF0.6640625
aF1.0
atp181
a(I00
(lp182
F0.6392405063291139
aF0.6875
aF0.1484375
atp183
a(I00
(lp184
F0.6392405063291139
aF0.6875
aF0.1484375
atp185
a(I00
(lp186
F0.6392405063291139
aF0.6875
aF0.1484375
atp187
a(I01
(lp188
F0.6265822784810127
aF0.7890625
aF0.921875
atp189
aa(lp190
(I01
(lp191
F0.6265822784810127
aF0.7890625
aF0.921875
atp192
a(I00
(lp193
F0.6265822784810127
aF0.2890625
aF0.234375
atp194
a(I01
(lp195
F0.5791139240506329
aF0.046875
aF0.96875
atp196
a(I00
(lp197
F0.6265822784810127
aF0.2890625
aF0.234375
atp198
a(I00
(lp199
F0.6392405063291139
aF0.6875
aF0.1484375
atp200
a(I00
(lp201
F0.6392405063291139
aF0.6875
aF0.1484375
atp202
a(I00
(lp203
F0.6392405063291139
aF0.6875
aF0.1484375
atp204
a(I00
(lp205
F0.6392405063291139
aF0.6875
aF0.1484375
atp206
a(I00
(lp207
F0.6392405063291139
aF0.6875
aF0.1484375
atp208
a(I00
(lp209
F0.6392405063291139
aF0.6875
aF0.1484375
atp210
a(I00
(lp211
F0.6392405063291139
aF0.6875
aF0.1484375
atp212
a(I00
(lp213
F0.6392405063291139
aF0.6875
aF0.1484375
atp214
a(I01
(lp215
F0.6265822784810127
aF0.7890625
aF0.921875
atp216
a(I00
(lp217
F0.6392405063291139
aF0.6875
aF0.1484375
atp218
a(I00
(lp219
F0.6392405063291139
aF0.6875
aF0.1484375
atp220
a(I00
(lp221
F0.6392405063291139
aF0.6875
aF0.1484375
atp222
a(I00
(lp223
F0.6392405063291139
aF0.6875
aF0.1484375
atp224
a(I00
(lp225
F0.6392405063291139
aF0.6875
aF0.1484375
atp226
a(I00
(lp227
F0.6392405063291139
aF0.6875
aF0.1484375
atp228
a(I00
(lp229
F0.6392405063291139
aF0.6875
aF0.1484375
atp230
a(I00
(lp231
F0.6392405063291139
aF0.6875
aF0.1484375
atp232
a(I00
(lp233
F0.6392405063291139
aF0.6875
aF0.1484375
atp234
a(I00
(lp235
F0.6392405063291139
aF0.6875
aF0.1484375
atp236
a(I00
(lp237
F0.6392405063291139
aF0.6875
aF0.1484375
atp238
a(I01
(lp239
F0.6265822784810127
aF0.7890625
aF0.921875
atp240
aa(lp241
(I01
(lp242
F0.6265822784810127
aF0.7890625
aF0.921875
atp243
a(I00
(lp244
F0.6392405063291139
aF0.6875
aF0.1484375
atp245
a(I00
(lp246
F0.6392405063291139
aF0.6875
aF0.1484375
atp247
a(I00
(lp248
F0.6392405063291139
aF0.6875
aF0.1484375
atp249
a(I01
(lp250
F0.6265822784810127
aF0.7890625
aF0.4375
atp251
a(I01
(lp252
F0.6265822784810127
aF0.7890625
aF0.921875
atp253
a(I01
(lp254
F0.6265822784810127
aF0.7890625
aF0.921875
atp255
a(I01
(lp256
F0.6265822784810127
aF0.7890625
aF0.921875
atp257
a(I01
(lp258
F0.6265822784810127
aF0.7890625
aF0.4375
atp259
a(I00
(lp260
F0.6392405063291139
aF0.6875
aF0.1484375
atp261
a(I01
(lp262
F0.15822784810126583
aF0.6640625
aF1.0
atp263
a(I00
(lp264
F0.6392405063291139
aF0.6875
aF0.1484375
atp265
a(I01
(lp266
F0.6265822784810127
aF0.7890625
aF0.4375
atp267
a(I00
(lp268
F0.6392405063291139
aF0.6875
aF0.1484375
atp269
a(I01
(lp270
F0.15822784810126583
aF0.6640625
aF1.0
atp271
a(I00
(lp272
F0.6392405063291139
aF0.6875
aF0.1484375
atp273
a(I01
(lp274
F0.6265822784810127
aF0.7890625
aF0.4375
atp275
a(I01
(lp276
F0.6265822784810127
aF0.7890625
aF0.921875
atp277
a(I01
(lp278
F0.6265822784810127
aF0.7890625
aF0.921875
atp279
a(I01
(lp280
F0.6265822784810127
aF0.7890625
aF0.921875
atp281
a(I01
(lp282
F0.6265822784810127
aF0.7890625
aF0.4375
atp283
a(I00
(lp284
F0.6392405063291139
aF0.6875
aF0.1484375
atp285
a(I00
(lp286
F0.6392405063291139
aF0.6875
aF0.1484375
atp287
a(I00
(lp288
F0.6392405063291139
aF0.6875
aF0.1484375
atp289
a(I01
(lp290
F0.6265822784810127
aF0.7890625
aF0.921875
atp291
aa(lp292
(I01
(lp293
F0.6265822784810127
aF0.7890625
aF0.921875
atp294
a(I00
(lp295
F0.6392405063291139
aF0.6875
aF0.1484375
atp296
a(I00
(lp297
F0.6392405063291139
aF0.6875
aF0.1484375
atp298
a(I00
(lp299
F0.6392405063291139
aF0.6875
aF0.1484375
atp300
a(I01
(lp301
F0.6265822784810127
aF0.7890625
aF0.921875
atp302
a(I00
(lp303
F0.6392405063291139
aF0.6875
aF0.1484375
atp304
a(I00
(lp305
F0.6392405063291139
aF0.6875
aF0.1484375
atp306
a(I00
(lp307
F0.6392405063291139
aF0.6875
aF0.1484375
atp308
a(I00
(lp309
F0.6392405063291139
aF0.6875
aF0.1484375
atp310
a(I00
(lp311
F0.6392405063291139
aF0.6875
aF0.1484375
atp312
a(I00
(lp313
F0.6392405063291139
aF0.6875
aF0.1484375
atp314
a(I00
(lp315
F0.6392405063291139
aF0.6875
aF0.1484375
atp316
a(I00
(lp317
F0.6392405063291139
aF0.6875
aF0.1484375
atp318
a(I00
(lp319
F0.6392405063291139
aF0.6875
aF0.1484375
atp320
a(I00
(lp321
F0.6392405063291139
aF0.6875
aF0.1484375
atp322
a(I00
(lp323
F0.6392405063291139
aF0.6875
aF0.1484375
atp324
a(I00
(lp325
F0.6392405063291139
aF0.6875
aF0.1484375
atp326
a(I00
(lp327
F0.6392405063291139
aF0.6875
aF0.1484375
atp328
a(I00
(lp329
F0.6392405063291139
aF0.6875
aF0.1484375
atp330
a(I00
(lp331
F0.6392405063291139
aF0.6875
aF0.1484375
atp332
a(I01
(lp333
F0.6265822784810127
aF0.7890625
aF0.921875
atp334
a(I00
(lp335
F0.7531645569620253
aF0.4765625
aF0.296875
atp336
a(I01
(lp337
F0.8449367088607594
aF0.46875
aF1.0
atp338
a(I00
(lp339
F0.7531645569620253
aF0.4765625
aF0.296875
atp340
a(I01
(lp341
F0.6265822784810127
aF0.7890625
aF0.921875
atp342
aa(lp343
(I01
(lp344
F0.6265822784810127
aF0.7890625
aF0.921875
atp345
a(I00
(lp346
F0.6392405063291139
aF0.6875
aF0.1484375
atp347
a(I01
(lp348
F0.15822784810126583
aF0.6640625
aF1.0
atp349
a(I00
(lp350
F0.6392405063291139
aF0.6875
aF0.1484375
atp351
a(I01
(lp352
F0.6265822784810127
aF0.7890625
aF0.921875
atp353
a(I00
(lp354
F0.6392405063291139
aF0.6875
aF0.1484375
atp355
a(I01
(lp356
F0.15822784810126583
aF0.6640625
aF1.0
atp357
a(I00
(lp358
F0.6392405063291139
aF0.6875
aF0.1484375
atp359
a(I01
(lp360
F0.15822784810126583
aF0.6640625
aF1.0
atp361
a(I00
(lp362
F0.6392405063291139
aF0.6875
aF0.1484375
atp363
a(I01
(lp364
F0.15822784810126583
aF0.6640625
aF1.0
atp365
a(I00
(lp366
F0.6392405063291139
aF0.6875
aF0.1484375
atp367
a(I01
(lp368
F0.15822784810126583
aF0.6640625
aF1.0
atp369
a(I00
(lp370
F0.6392405063291139
aF0.6875
aF0.1484375
atp371
a(I01
(lp372
F0.15822784810126583
aF0.6640625
aF1.0
atp373
a(I00
(lp374
F0.6392405063291139
aF0.6875
aF0.1484375
atp375
a(I01
(lp376
F0.15822784810126583
aF0.6640625
aF1.0
atp377
a(I00
(lp378
F0.6392405063291139
aF0.6875
aF0.1484375
atp379
a(I01
(lp380
F0.15822784810126583
aF0.6640625
aF1.0
atp381
a(I00
(lp382
F0.6392405063291139
aF0.6875
aF0.1484375
atp383
a(I01
(lp384
F0.6265822784810127
aF0.7890625
aF0.921875
atp385
a(I01
(lp386
F0.5791139240506329
aF0.046875
aF0.96875
atp387
a(I01
(lp388
F0.8449367088607594
aF0.46875
aF1.0
atp389
a(I01
(lp390
F0.5791139240506329
aF0.046875
aF0.96875
atp391
a(I01
(lp392
F0.6265822784810127
aF0.7890625
aF0.921875
atp393
aa(lp394
(I01
(lp395
F0.6265822784810127
aF0.7890625
aF0.921875
atp396
a(I00
(lp397
F0.6392405063291139
aF0.6875
aF0.1484375
atp398
a(I00
(lp399
F0.6392405063291139
aF0.6875
aF0.1484375
atp400
a(I00
(lp401
F0.6392405063291139
aF0.6875
aF0.1484375
atp402
a(I01
(lp403
F0.6265822784810127
aF0.7890625
aF0.921875
atp404
a(I00
(lp405
F0.6392405063291139
aF0.6875
aF0.1484375
atp406
a(I00
(lp407
F0.6392405063291139
aF0.6875
aF0.1484375
atp408
a(I00
(lp409
F0.6392405063291139
aF0.6875
aF0.1484375
atp410
a(I00
(lp411
F0.6392405063291139
aF0.6875
aF0.1484375
atp412
a(I00
(lp413
F0.6392405063291139
aF0.6875
aF0.1484375
atp414
a(I00
(lp415
F0.6392405063291139
aF0.6875
aF0.1484375
atp416
a(I00
(lp417
F0.6392405063291139
aF0.6875
aF0.1484375
atp418
a(I00
(lp419
F0.6392405063291139
aF0.6875
aF0.1484375
atp420
a(I00
(lp421
F0.6392405063291139
aF0.6875
aF0.1484375
atp422
a(I00
(lp423
F0.6392405063291139
aF0.6875
aF0.1484375
atp424
a(I00
(lp425
F0.6392405063291139
aF0.6875
aF0.1484375
atp426
a(I00
(lp427
F0.6392405063291139
aF0.6875
aF0.1484375
atp428
a(I00
(lp429
F0.6392405063291139
aF0.6875
aF0.1484375
atp430
a(I00
(lp431
F0.6392405063291139
aF0.6875
aF0.1484375
atp432
a(I00
(lp433
F0.6392405063291139
aF0.6875
aF0.1484375
atp434
a(I01
(lp435
F0.6265822784810127
aF0.7890625
aF0.921875
atp436
a(I01
(lp437
F0.8449367088607594
aF0.46875
aF1.0
atp438
a(I00
(lp439
F0.7531645569620253
aF0.4765625
aF0.4453125
atp440
a(I01
(lp441
F0.8449367088607594
aF0.46875
aF1.0
atp442
a(I01
(lp443
F0.6265822784810127
aF0.7890625
aF0.921875
atp444
aa(lp445
(I01
(lp446
F0.6265822784810127
aF0.7890625
aF0.921875
atp447
a(I00
(lp448
F0.6392405063291139
aF0.6875
aF0.1484375
atp449
a(I01
(lp450
F0.15822784810126583
aF0.6640625
aF1.0
atp451
a(I00
(lp452
F0.6392405063291139
aF0.6875
aF0.1484375
atp453
a(I01
(lp454
F0.6265822784810127
aF0.7890625
aF0.4375
atp455
a(I00
(lp456
F0.6392405063291139
aF0.6875
aF0.1484375
atp457
a(I01
(lp458
F0.15822784810126583
aF0.6640625
aF1.0
atp459
a(I00
(lp460
F0.6392405063291139
aF0.6875
aF0.1484375
atp461
a(I01
(lp462
F0.6265822784810127
aF0.7890625
aF0.4375
atp463
a(I01
(lp464
F0.6265822784810127
aF0.7890625
aF0.921875
atp465
a(I01
(lp466
F0.6265822784810127
aF0.7890625
aF0.921875
atp467
a(I01
(lp468
F0.6265822784810127
aF0.7890625
aF0.921875
atp469
a(I01
(lp470
F0.6265822784810127
aF0.7890625
aF0.921875
atp471
a(I01
(lp472
F0.6265822784810127
aF0.7890625
aF0.921875
atp473
a(I01
(lp474
F0.6265822784810127
aF0.7890625
aF0.921875
atp475
a(I01
(lp476
F0.6265822784810127
aF0.7890625
aF0.921875
atp477
a(I01
(lp478
F0.6265822784810127
aF0.7890625
aF0.4375
atp479
a(I00
(lp480
F0.6392405063291139
aF0.6875
aF0.1484375
atp481
a(I01
(lp482
F0.15822784810126583
aF0.6640625
aF1.0
atp483
a(I00
(lp484
F0.6392405063291139
aF0.6875
aF0.1484375
atp485
a(I01
(lp486
F0.6265822784810127
aF0.7890625
aF0.4375
atp487
a(I00
(lp488
F0.6392405063291139
aF0.6875
aF0.1484375
atp489
a(I00
(lp490
F0.6392405063291139
aF0.6875
aF0.1484375
atp491
a(I00
(lp492
F0.6392405063291139
aF0.6875
aF0.1484375
atp493
a(I01
(lp494
F0.6265822784810127
aF0.7890625
aF0.921875
atp495
aa(lp496
(I01
(lp497
F0.6265822784810127
aF0.7890625
aF0.921875
atp498
a(I00
(lp499
F0.6392405063291139
aF0.6875
aF0.1484375
atp500
a(I00
(lp501
F0.6392405063291139
aF0.6875
aF0.1484375
atp502
a(I00
(lp503
F0.6392405063291139
aF0.6875
aF0.1484375
atp504
a(I00
(lp505
F0.6392405063291139
aF0.6875
aF0.1484375
atp506
a(I00
(lp507
F0.6392405063291139
aF0.6875
aF0.1484375
atp508
a(I00
(lp509
F0.6392405063291139
aF0.6875
aF0.1484375
atp510
a(I00
(lp511
F0.6392405063291139
aF0.6875
aF0.1484375
atp512
a(I00
(lp513
F0.6392405063291139
aF0.6875
aF0.1484375
atp514
a(I00
(lp515
F0.6392405063291139
aF0.6875
aF0.1484375
atp516
a(I00
(lp517
F0.6392405063291139
aF0.6875
aF0.1484375
atp518
a(I00
(lp519
F0.6392405063291139
aF0.6875
aF0.1484375
atp520
a(I00
(lp521
F0.6392405063291139
aF0.6875
aF0.1484375
atp522
a(I00
(lp523
F0.6392405063291139
aF0.6875
aF0.1484375
atp524
a(I00
(lp525
F0.6392405063291139
aF0.6875
aF0.1484375
atp526
a(I00
(lp527
F0.6392405063291139
aF0.6875
aF0.1484375
atp528
a(I00
(lp529
F0.6392405063291139
aF0.6875
aF0.1484375
atp530
a(I00
(lp531
F0.6392405063291139
aF0.6875
aF0.1484375
atp532
a(I00
(lp533
F0.6392405063291139
aF0.6875
aF0.1484375
atp534
a(I00
(lp535
F0.6392405063291139
aF0.6875
aF0.1484375
atp536
a(I00
(lp537
F0.6392405063291139
aF0.6875
aF0.1484375
atp538
a(I00
(lp539
F0.6392405063291139
aF0.6875
aF0.1484375
atp540
a(I00
(lp541
F0.6392405063291139
aF0.6875
aF0.1484375
atp542
a(I00
(lp543
F0.6392405063291139
aF0.6875
aF0.1484375
atp544
a(I01
(lp545
F0.6265822784810127
aF0.7890625
aF0.921875
atp546
aa(lp547
(I01
(lp548
F0.6265822784810127
aF0.7890625
aF0.921875
atp549
a(I00
(lp550
F0.6392405063291139
aF0.6875
aF0.1484375
atp551
a(I01
(lp552
F0.15822784810126583
aF0.6640625
aF1.0
atp553
a(I00
(lp554
F0.6392405063291139
aF0.6875
aF0.1484375
atp555
a(I01
(lp556
F0.15822784810126583
aF0.6640625
aF1.0
atp557
a(I00
(lp558
F0.6392405063291139
aF0.6875
aF0.1484375
atp559
a(I01
(lp560
F0.15822784810126583
aF0.6640625
aF1.0
atp561
a(I00
(lp562
F0.6392405063291139
aF0.6875
aF0.1484375
atp563
a(I01
(lp564
F0.15822784810126583
aF0.6640625
aF1.0
atp565
a(I00
(lp566
F0.6392405063291139
aF0.6875
aF0.1484375
atp567
a(I00
(lp568
F0.6392405063291139
aF0.6875
aF0.1484375
atp569
a(I00
(lp570
F0.6392405063291139
aF0.6875
aF0.1484375
atp571
a(I00
(lp572
F0.6392405063291139
aF0.6875
aF0.1484375
atp573
a(I00
(lp574
F0.6392405063291139
aF0.6875
aF0.1484375
atp575
a(I00
(lp576
F0.6392405063291139
aF0.6875
aF0.1484375
atp577
a(I00
(lp578
F0.6392405063291139
aF0.6875
aF0.1484375
atp579
a(I00
(lp580
F0.6392405063291139
aF0.6875
aF0.1484375
atp581
a(I00
(lp582
F0.6392405063291139
aF0.6875
aF0.1484375
atp583
a(I00
(lp584
F0.6392405063291139
aF0.6875
aF0.1484375
atp585
a(I00
(lp586
F0.6392405063291139
aF0.6875
aF0.1484375
atp587
a(I00
(lp588
F0.6392405063291139
aF0.6875
aF0.1484375
atp589
a(I00
(lp590
F0.6392405063291139
aF0.6875
aF0.1484375
atp591
a(I00
(lp592
F0.6392405063291139
aF0.6875
aF0.1484375
atp593
a(I00
(lp594
F0.6392405063291139
aF0.6875
aF0.1484375
atp595
a(I01
(lp596
F0.6265822784810127
aF0.7890625
aF0.921875
atp597
aa(lp598
(I01
(lp599
F0.6265822784810127
aF0.7890625
aF0.921875
atp600
a(I00
(lp601
F0.6392405063291139
aF0.6875
aF0.1484375
atp602
a(I00
(lp603
F0.6392405063291139
aF0.6875
aF0.1484375
atp604
a(I00
(lp605
F0.6392405063291139
aF0.6875
aF0.1484375
atp606
a(I00
(lp607
F0.6392405063291139
aF0.6875
aF0.1484375
atp608
a(I00
(lp609
F0.6392405063291139
aF0.6875
aF0.1484375
atp610
a(I00
(lp611
F0.6392405063291139
aF0.6875
aF0.1484375
atp612
a(I00
(lp613
F0.6392405063291139
aF0.6875
aF0.1484375
atp614
a(I00
(lp615
F0.6392405063291139
aF0.6875
aF0.1484375
atp616
a(I00
(lp617
F0.6392405063291139
aF0.6875
aF0.1484375
atp618
a(I01
(lp619
F0.6265822784810127
aF0.7890625
aF0.921875
atp620
a(I01
(lp621
F0.6265822784810127
aF0.7890625
aF0.921875
atp622
a(I00
(lp623
F0.6392405063291139
aF0.6875
aF0.1484375
atp624
a(I01
(lp625
F0.6265822784810127
aF0.7890625
aF0.921875
atp626
a(I01
(lp627
F0.6265822784810127
aF0.7890625
aF0.921875
atp628
a(I00
(lp629
F0.6392405063291139
aF0.6875
aF0.1484375
atp630
a(I00
(lp631
F0.6392405063291139
aF0.6875
aF0.1484375
atp632
a(I00
(lp633
F0.6392405063291139
aF0.6875
aF0.1484375
atp634
a(I00
(lp635
F0.6392405063291139
aF0.6875
aF0.1484375
atp636
a(I00
(lp637
F0.6392405063291139
aF0.6875
aF0.1484375
atp638
a(I00
(lp639
F0.6392405063291139
aF0.6875
aF0.1484375
atp640
a(I00
(lp641
F0.6392405063291139
aF0.6875
aF0.1484375
atp642
a(I00
(lp643
F0.6392405063291139
aF0.6875
aF0.1484375
atp644
a(I00
(lp645
F0.6392405063291139
aF0.6875
aF0.1484375
atp646
a(I01
(lp647
F0.6265822784810127
aF0.7890625
aF0.921875
atp648
aa(lp649
(I01
(lp650
F0.6265822784810127
aF0.7890625
aF0.921875
atp651
a(I01
(lp652
F0.6265822784810127
aF0.7890625
aF0.921875
atp653
a(I01
(lp654
F0.6265822784810127
aF0.7890625
aF0.921875
atp655
a(I01
(lp656
F0.6265822784810127
aF0.7890625
aF0.921875
atp657
a(I01
(lp658
F0.6265822784810127
aF0.7890625
aF0.921875
atp659
a(I01
(lp660
F0.6265822784810127
aF0.7890625
aF0.921875
atp661
a(I01
(lp662
F0.6265822784810127
aF0.7890625
aF0.4375
atp663
a(I00
(lp664
F0.6392405063291139
aF0.6875
aF0.1484375
atp665
a(I01
(lp666
F0.15822784810126583
aF0.6640625
aF1.0
atp667
a(I00
(lp668
F0.6392405063291139
aF0.6875
aF0.1484375
atp669
a(I01
(lp670
F0.6265822784810127
aF0.7890625
aF0.921875
atp671
a(I00
(lp672
F0.6392405063291139
aF0.6875
aF0.1484375
atp673
a(I00
(lp674
F0.6392405063291139
aF0.6875
aF0.1484375
atp675
a(I00
(lp676
F0.6392405063291139
aF0.6875
aF0.1484375
atp677
a(I01
(lp678
F0.6265822784810127
aF0.7890625
aF0.921875
atp679
a(I00
(lp680
F0.6392405063291139
aF0.6875
aF0.1484375
atp681
a(I00
(lp682
F0.6392405063291139
aF0.6875
aF0.1484375
atp683
a(I00
(lp684
F0.6392405063291139
aF0.6875
aF0.1484375
atp685
a(I01
(lp686
F0.6265822784810127
aF0.7890625
aF0.4375
atp687
a(I01
(lp688
F0.6265822784810127
aF0.7890625
aF0.921875
atp689
a(I01
(lp690
F0.6265822784810127
aF0.7890625
aF0.921875
atp691
a(I01
(lp692
F0.6265822784810127
aF0.7890625
aF0.921875
atp693
a(I01
(lp694
F0.6265822784810127
aF0.7890625
aF0.921875
atp695
a(I01
(lp696
F0.6265822784810127
aF0.7890625
aF0.921875
atp697
a(I01
(lp698
F0.6265822784810127
aF0.7890625
aF0.921875
atp699
aa(lp700
(I00
(lp701
F0.6392405063291139
aF0.6875
aF0.1484375
atp702
a(I00
(lp703
F0.6392405063291139
aF0.6875
aF0.1484375
atp704
a(I00
(lp705
F0.6392405063291139
aF0.6875
aF0.1484375
atp706
a(I00
(lp707
F0.6392405063291139
aF0.6875
aF0.1484375
atp708
a(I00
(lp709
F0.6392405063291139
aF0.6875
aF0.1484375
atp710
a(I00
(lp711
F0.6392405063291139
aF0.6875
aF0.1484375
atp712
a(I00
(lp713
F0.6392405063291139
aF0.6875
aF0.1484375
atp714
a(I00
(lp715
F0.6392405063291139
aF0.6875
aF0.1484375
atp716
a(I00
(lp717
F0.6392405063291139
aF0.6875
aF0.1484375
atp718
a(I00
(lp719
F0.6392405063291139
aF0.6875
aF0.1484375
atp720
a(I01
(lp721
F0.6265822784810127
aF0.7890625
aF0.921875
atp722
a(I01
(lp723
F0.6265822784810127
aF0.7890625
aF0.921875
atp724
a(I01
(lp725
F0.6265822784810127
aF0.7890625
aF0.921875
atp726
a(I01
(lp727
F0.6265822784810127
aF0.7890625
aF0.921875
atp728
a(I01
(lp729
F0.6265822784810127
aF0.7890625
aF0.921875
atp730
a(I00
(lp731
F0.6392405063291139
aF0.6875
aF0.1484375
atp732
a(I01
(lp733
F0.16455696202531644
aF0.9921875
aF1.0
atp734
a(I01
(lp735
F0.16455696202531644
aF0.9921875
aF1.0
atp736
a(I00
(lp737
F0.23417721518987342
aF0.9765625
aF0.40625
atp738
a(I00
(lp739
F0.6392405063291139
aF0.6875
aF0.1484375
atp740
a(I00
(lp741
F0.6392405063291139
aF0.6875
aF0.1484375
atp742
a(I00
(lp743
F0.6392405063291139
aF0.6875
aF0.1484375
atp744
a(I00
(lp745
F0.6392405063291139
aF0.6875
aF0.1484375
atp746
a(I00
(lp747
F0.6392405063291139
aF0.6875
aF0.1484375
atp748
a(I00
(lp749
F0.6392405063291139
aF0.6875
aF0.1484375
atp750
aa(lp751
(I00
(lp752
F0.6392405063291139
aF0.6875
aF0.1484375
atp753
a(I00
(lp754
F0.6392405063291139
aF0.6875
aF0.1484375
atp755
a(I01
(lp756
F0.15822784810126583
aF0.6640625
aF1.0
atp757
a(I00
(lp758
F0.6392405063291139
aF0.6875
aF0.1484375
atp759
a(I01
(lp760
F0.15822784810126583
aF0.6640625
aF1.0
atp761
a(I00
(lp762
F0.6392405063291139
aF0.6875
aF0.1484375
atp763
a(I01
(lp764
F0.15822784810126583
aF0.6640625
aF1.0
atp765
a(I00
(lp766
F0.6392405063291139
aF0.6875
aF0.1484375
atp767
a(I01
(lp768
F0.15822784810126583
aF0.6640625
aF1.0
atp769
a(I00
(lp770
F0.6392405063291139
aF0.6875
aF0.1484375
atp771
a(I00
(lp772
F0.6392405063291139
aF0.6875
aF0.1484375
atp773
a(I00
(lp774
F0.6392405063291139
aF0.6875
aF0.1484375
atp775
a(I00
(lp776
F0.6392405063291139
aF0.6875
aF0.1484375
atp777
a(I00
(lp778
F0.6392405063291139
aF0.6875
aF0.1484375
atp779
a(I00
(lp780
F0.6392405063291139
aF0.6875
aF0.1484375
atp781
a(I00
(lp782
F0.6392405063291139
aF0.6875
aF0.1484375
atp783
a(I00
(lp784
F0.6392405063291139
aF0.6875
aF0.1484375
atp785
a(I01
(lp786
F0.16455696202531644
aF0.9921875
aF1.0
atp787
a(I01
(lp788
F0.16455696202531644
aF0.9921875
aF1.0
atp789
a(I00
(lp790
F0.6392405063291139
aF0.6875
aF0.1484375
atp791
a(I00
(lp792
F0.6392405063291139
aF0.6875
aF0.1484375
atp793
a(I00
(lp794
F0.6392405063291139
aF0.6875
aF0.1484375
atp795
a(I00
(lp796
F0.6392405063291139
aF0.6875
aF0.1484375
atp797
a(I00
(lp798
F0.6392405063291139
aF0.6875
aF0.1484375
atp799
a(I00
(lp800
F0.6392405063291139
aF0.6875
aF0.1484375
atp801
aa(lp802
(I00
(lp803
F0.6392405063291139
aF0.6875
aF0.1484375
atp804
a(I00
(lp805
F0.6392405063291139
aF0.6875
aF0.1484375
atp806
a(I00
(lp807
F0.6392405063291139
aF0.6875
aF0.1484375
atp808
a(I00
(lp809
F0.6392405063291139
aF0.6875
aF0.1484375
atp810
a(I00
(lp811
F0.6392405063291139
aF0.6875
aF0.1484375
atp812
a(I00
(lp813
F0.6392405063291139
aF0.6875
aF0.1484375
atp814
a(I00
(lp815
F0.6392405063291139
aF0.6875
aF0.1484375
atp816
a(I00
(lp817
F0.6392405063291139
aF0.6875
aF0.1484375
atp818
a(I00
(lp819
F0.6392405063291139
aF0.6875
aF0.1484375
atp820
a(I00
(lp821
F0.6392405063291139
aF0.6875
aF0.1484375
atp822
a(I00
(lp823
F0.6392405063291139
aF0.6875
aF0.1484375
atp824
a(I00
(lp825
F0.6392405063291139
aF0.6875
aF0.1484375
atp826
a(I00
(lp827
F0.6392405063291139
aF0.6875
aF0.1484375
atp828
a(I00
(lp829
F0.6392405063291139
aF0.6875
aF0.1484375
atp830
a(I00
(lp831
F0.6392405063291139
aF0.6875
aF0.1484375
atp832
a(I00
(lp833
F0.6392405063291139
aF0.6875
aF0.1484375
atp834
a(I01
(lp835
F0.16455696202531644
aF0.9921875
aF1.0
atp836
a(I01
(lp837
F0.16455696202531644
aF0.9921875
aF1.0
atp838
a(I00
(lp839
F0.23417721518987342
aF0.9765625
aF0.40625
atp840
a(I00
(lp841
F0.6392405063291139
aF0.6875
aF0.1484375
atp842
a(I00
(lp843
F0.6392405063291139
aF0.6875
aF0.1484375
atp844
a(I00
(lp845
F0.6392405063291139
aF0.6875
aF0.1484375
atp846
a(I00
(lp847
F0.6392405063291139
aF0.6875
aF0.1484375
atp848
a(I00
(lp849
F0.6392405063291139
aF0.6875
aF0.1484375
atp850
a(I00
(lp851
F0.6392405063291139
aF0.6875
aF0.1484375
atp852
aa(lp853
(I01
(lp854
F0.6265822784810127
aF0.7890625
aF0.921875
atp855
a(I00
(lp856
F0.6392405063291139
aF0.6875
aF0.1484375
atp857
a(I01
(lp858
F0.15822784810126583
aF0.6640625
aF1.0
atp859
a(I00
(lp860
F0.6392405063291139
aF0.6875
aF0.1484375
atp861
a(I01
(lp862
F0.6265822784810127
aF0.7890625
aF0.4375
atp863
a(I00
(lp864
F0.6392405063291139
aF0.6875
aF0.1484375
atp865
a(I01
(lp866
F0.15822784810126583
aF0.6640625
aF1.0
atp867
a(I00
(lp868
F0.6392405063291139
aF0.6875
aF0.1484375
atp869
a(I01
(lp870
F0.6265822784810127
aF0.7890625
aF0.4375
atp871
a(I01
(lp872
F0.6265822784810127
aF0.7890625
aF0.921875
atp873
a(I01
(lp874
F0.6265822784810127
aF0.7890625
aF0.921875
atp875
a(I01
(lp876
F0.6265822784810127
aF0.7890625
aF0.921875
atp877
a(I01
(lp878
F0.6265822784810127
aF0.7890625
aF0.921875
atp879
a(I01
(lp880
F0.6265822784810127
aF0.7890625
aF0.921875
atp881
a(I01
(lp882
F0.6265822784810127
aF0.7890625
aF0.921875
atp883
a(I01
(lp884
F0.6265822784810127
aF0.7890625
aF0.921875
atp885
a(I01
(lp886
F0.6265822784810127
aF0.7890625
aF0.4375
atp887
a(I00
(lp888
F0.6392405063291139
aF0.6875
aF0.1484375
atp889
a(I01
(lp890
F0.15822784810126583
aF0.6640625
aF1.0
atp891
a(I00
(lp892
F0.6392405063291139
aF0.6875
aF0.1484375
atp893
a(I01
(lp894
F0.6265822784810127
aF0.7890625
aF0.4375
atp895
a(I00
(lp896
F0.6392405063291139
aF0.6875
aF0.1484375
atp897
a(I01
(lp898
F0.15822784810126583
aF0.6640625
aF1.0
atp899
a(I00
(lp900
F0.6392405063291139
aF0.6875
aF0.1484375
atp901
a(I01
(lp902
F0.6265822784810127
aF0.7890625
aF0.921875
atp903
aa(lp904
(I01
(lp905
F0.6265822784810127
aF0.7890625
aF0.921875
atp906
a(I00
(lp907
F0.6392405063291139
aF0.6875
aF0.1484375
atp908
a(I00
(lp909
F0.6392405063291139
aF0.6875
aF0.1484375
atp910
a(I00
(lp911
F0.6392405063291139
aF0.6875
aF0.1484375
atp912
a(I01
(lp913
F0.6265822784810127
aF0.7890625
aF0.921875
atp914
a(I00
(lp915
F0.6392405063291139
aF0.6875
aF0.1484375
atp916
a(I00
(lp917
F0.6392405063291139
aF0.6875
aF0.1484375
atp918
a(I00
(lp919
F0.6392405063291139
aF0.6875
aF0.1484375
atp920
a(I00
(lp921
F0.6392405063291139
aF0.6875
aF0.1484375
atp922
a(I00
(lp923
F0.6392405063291139
aF0.6875
aF0.1484375
atp924
a(I00
(lp925
F0.6392405063291139
aF0.6875
aF0.1484375
atp926
a(I00
(lp927
F0.6392405063291139
aF0.6875
aF0.1484375
atp928
a(I01
(lp929
F0.6265822784810127
aF0.7890625
aF0.921875
atp930
a(I00
(lp931
F0.6392405063291139
aF0.6875
aF0.1484375
atp932
a(I00
(lp933
F0.6392405063291139
aF0.6875
aF0.1484375
atp934
a(I00
(lp935
F0.6392405063291139
aF0.6875
aF0.1484375
atp936
a(I00
(lp937
F0.6392405063291139
aF0.6875
aF0.1484375
atp938
a(I00
(lp939
F0.6392405063291139
aF0.6875
aF0.1484375
atp940
a(I00
(lp941
F0.6392405063291139
aF0.6875
aF0.1484375
atp942
a(I00
(lp943
F0.6392405063291139
aF0.6875
aF0.1484375
atp944
a(I01
(lp945
F0.6265822784810127
aF0.7890625
aF0.921875
atp946
a(I00
(lp947
F0.6392405063291139
aF0.6875
aF0.1484375
atp948
a(I00
(lp949
F0.6392405063291139
aF0.6875
aF0.1484375
atp950
a(I00
(lp951
F0.6392405063291139
aF0.6875
aF0.1484375
atp952
a(I01
(lp953
F0.6265822784810127
aF0.7890625
aF0.921875
atp954
aa(lp955
(I01
(lp956
F0.6265822784810127
aF0.7890625
aF0.921875
atp957
a(I00
(lp958
F0.6392405063291139
aF0.6875
aF0.1484375
atp959
a(I01
(lp960
F0.15822784810126583
aF0.6640625
aF1.0
atp961
a(I00
(lp962
F0.6392405063291139
aF0.6875
aF0.1484375
atp963
a(I01
(lp964
F0.6265822784810127
aF0.7890625
aF0.921875
atp965
a(I00
(lp966
F0.6392405063291139
aF0.6875
aF0.1484375
atp967
a(I01
(lp968
F0.15822784810126583
aF0.6640625
aF1.0
atp969
a(I00
(lp970
F0.6392405063291139
aF0.6875
aF0.1484375
atp971
a(I01
(lp972
F0.15822784810126583
aF0.6640625
aF1.0
atp973
a(I00
(lp974
F0.6392405063291139
aF0.6875
aF0.1484375
atp975
a(I01
(lp976
F0.15822784810126583
aF0.6640625
aF1.0
atp977
a(I00
(lp978
F0.6392405063291139
aF0.6875
aF0.1484375
atp979
a(I01
(lp980
F0.6265822784810127
aF0.7890625
aF0.921875
atp981
a(I00
(lp982
F0.6392405063291139
aF0.6875
aF0.1484375
atp983
a(I01
(lp984
F0.15822784810126583
aF0.6640625
aF1.0
atp985
a(I00
(lp986
F0.6392405063291139
aF0.6875
aF0.1484375
atp987
a(I01
(lp988
F0.15822784810126583
aF0.6640625
aF1.0
atp989
a(I00
(lp990
F0.6392405063291139
aF0.6875
aF0.1484375
atp991
a(I01
(lp992
F0.15822784810126583
aF0.6640625
aF1.0
atp993
a(I00
(lp994
F0.6392405063291139
aF0.6875
aF0.1484375
atp995
a(I01
(lp996
F0.6265822784810127
aF0.7890625
aF0.921875
atp997
a(I00
(lp998
F0.6392405063291139
aF0.6875
aF0.1484375
atp999
a(I01
(lp1000
F0.15822784810126583
aF0.6640625
aF1.0
atp1001
a(I00
(lp1002
F0.6392405063291139
aF0.6875
aF0.1484375
atp1003
a(I01
(lp1004
F0.6265822784810127
aF0.7890625
aF0.921875
atp1005
aa(lp1006
(I01
(lp1007
F0.6265822784810127
aF0.7890625
aF0.921875
atp1008
a(I00
(lp1009
F0.6392405063291139
aF0.6875
aF0.1484375
atp1010
a(I00
(lp1011
F0.6392405063291139
aF0.6875
aF0.1484375
atp1012
a(I00
(lp1013
F0.6392405063291139
aF0.6875
aF0.1484375
atp1014
a(I01
(lp1015
F0.6265822784810127
aF0.7890625
aF0.921875
atp1016
a(I00
(lp1017
F0.6392405063291139
aF0.6875
aF0.1484375
atp1018
a(I00
(lp1019
F0.6392405063291139
aF0.6875
aF0.1484375
atp1020
a(I00
(lp1021
F0.6392405063291139
aF0.6875
aF0.1484375
atp1022
a(I00
(lp1023
F0.6392405063291139
aF0.6875
aF0.1484375
atp1024
a(I00
(lp1025
F0.6392405063291139
aF0.6875
aF0.1484375
atp1026
a(I00
(lp1027
F0.6392405063291139
aF0.6875
aF0.1484375
atp1028
a(I00
(lp1029
F0.6392405063291139
aF0.6875
aF0.1484375
atp1030
a(I01
(lp1031
F0.6265822784810127
aF0.7890625
aF0.921875
atp1032
a(I00
(lp1033
F0.6392405063291139
aF0.6875
aF0.1484375
atp1034
a(I00
(lp1035
F0.6392405063291139
aF0.6875
aF0.1484375
atp1036
a(I00
(lp1037
F0.6392405063291139
aF0.6875
aF0.1484375
atp1038
a(I00
(lp1039
F0.6392405063291139
aF0.6875
aF0.1484375
atp1040
a(I00
(lp1041
F0.6392405063291139
aF0.6875
aF0.1484375
atp1042
a(I00
(lp1043
F0.6392405063291139
aF0.6875
aF0.1484375
atp1044
a(I00
(lp1045
F0.6392405063291139
aF0.6875
aF0.1484375
atp1046
a(I01
(lp1047
F0.6265822784810127
aF0.7890625
aF0.921875
atp1048
a(I00
(lp1049
F0.6392405063291139
aF0.6875
aF0.1484375
atp1050
a(I00
(lp1051
F0.6392405063291139
aF0.6875
aF0.1484375
atp1052
a(I00
(lp1053
F0.6392405063291139
aF0.6875
aF0.1484375
atp1054
a(I01
(lp1055
F0.6265822784810127
aF0.7890625
aF0.921875
atp1056
aa(lp1057
(I01
(lp1058
F0.6265822784810127
aF0.7890625
aF0.921875
atp1059
a(I00
(lp1060
F0.6392405063291139
aF0.6875
aF0.1484375
atp1061
a(I00
(lp1062
F0.6392405063291139
aF0.6875
aF0.1484375
atp1063
a(I00
(lp1064
F0.6392405063291139
aF0.6875
aF0.1484375
atp1065
a(I01
(lp1066
F0.6265822784810127
aF0.7890625
aF0.4375
atp1067
a(I01
(lp1068
F0.6265822784810127
aF0.7890625
aF0.921875
atp1069
a(I01
(lp1070
F0.6265822784810127
aF0.7890625
aF0.921875
atp1071
a(I01
(lp1072
F0.6265822784810127
aF0.7890625
aF0.921875
atp1073
a(I01
(lp1074
F0.6265822784810127
aF0.7890625
aF0.4375
atp1075
a(I00
(lp1076
F0.6392405063291139
aF0.6875
aF0.1484375
atp1077
a(I01
(lp1078
F0.15822784810126583
aF0.6640625
aF1.0
atp1079
a(I00
(lp1080
F0.6392405063291139
aF0.6875
aF0.1484375
atp1081
a(I01
(lp1082
F0.6265822784810127
aF0.7890625
aF0.4375
atp1083
a(I00
(lp1084
F0.6392405063291139
aF0.6875
aF0.1484375
atp1085
a(I01
(lp1086
F0.15822784810126583
aF0.6640625
aF1.0
atp1087
a(I00
(lp1088
F0.6392405063291139
aF0.6875
aF0.1484375
atp1089
a(I01
(lp1090
F0.6265822784810127
aF0.7890625
aF0.4375
atp1091
a(I01
(lp1092
F0.6265822784810127
aF0.7890625
aF0.921875
atp1093
a(I01
(lp1094
F0.6265822784810127
aF0.7890625
aF0.921875
atp1095
a(I01
(lp1096
F0.6265822784810127
aF0.7890625
aF0.921875
atp1097
a(I01
(lp1098
F0.6265822784810127
aF0.7890625
aF0.4375
atp1099
a(I00
(lp1100
F0.6392405063291139
aF0.6875
aF0.1484375
atp1101
a(I00
(lp1102
F0.6392405063291139
aF0.6875
aF0.1484375
atp1103
a(I00
(lp1104
F0.6392405063291139
aF0.6875
aF0.1484375
atp1105
a(I01
(lp1106
F0.6265822784810127
aF0.7890625
aF0.921875
atp1107
aa(lp1108
(I01
(lp1109
F0.6265822784810127
aF0.7890625
aF0.921875
atp1110
a(I00
(lp1111
F0.6265822784810127
aF0.2890625
aF0.234375
atp1112
a(I01
(lp1113
F0.5791139240506329
aF0.046875
aF0.96875
atp1114
a(I00
(lp1115
F0.6265822784810127
aF0.2890625
aF0.234375
atp1116
a(I00
(lp1117
F0.6392405063291139
aF0.6875
aF0.1484375
atp1118
a(I00
(lp1119
F0.6392405063291139
aF0.6875
aF0.1484375
atp1120
a(I00
(lp1121
F0.6392405063291139
aF0.6875
aF0.1484375
atp1122
a(I00
(lp1123
F0.6392405063291139
aF0.6875
aF0.1484375
atp1124
a(I00
(lp1125
F0.6392405063291139
aF0.6875
aF0.1484375
atp1126
a(I00
(lp1127
F0.6392405063291139
aF0.6875
aF0.1484375
atp1128
a(I00
(lp1129
F0.6392405063291139
aF0.6875
aF0.1484375
atp1130
a(I00
(lp1131
F0.6392405063291139
aF0.6875
aF0.1484375
atp1132
a(I00
(lp1133
F0.6392405063291139
aF0.6875
aF0.1484375
atp1134
a(I00
(lp1135
F0.6392405063291139
aF0.6875
aF0.1484375
atp1136
a(I00
(lp1137
F0.6392405063291139
aF0.6875
aF0.1484375
atp1138
a(I00
(lp1139
F0.6392405063291139
aF0.6875
aF0.1484375
atp1140
a(I00
(lp1141
F0.6392405063291139
aF0.6875
aF0.1484375
atp1142
a(I00
(lp1143
F0.6392405063291139
aF0.6875
aF0.1484375
atp1144
a(I00
(lp1145
F0.6392405063291139
aF0.6875
aF0.1484375
atp1146
a(I00
(lp1147
F0.6392405063291139
aF0.6875
aF0.1484375
atp1148
a(I00
(lp1149
F0.6392405063291139
aF0.6875
aF0.1484375
atp1150
a(I00
(lp1151
F0.6265822784810127
aF0.2890625
aF0.234375
atp1152
a(I01
(lp1153
F0.5791139240506329
aF0.046875
aF0.96875
atp1154
a(I00
(lp1155
F0.6265822784810127
aF0.2890625
aF0.234375
atp1156
a(I01
(lp1157
F0.6265822784810127
aF0.7890625
aF0.921875
atp1158
aa(lp1159
(I01
(lp1160
F0.6265822784810127
aF0.7890625
aF0.921875
atp1161
a(I01
(lp1162
F0.5791139240506329
aF0.046875
aF0.96875
atp1163
a(I01
(lp1164
F0.5791139240506329
aF0.046875
aF0.96875
atp1165
a(I01
(lp1166
F0.5791139240506329
aF0.046875
aF0.96875
atp1167
a(I00
(lp1168
F0.6392405063291139
aF0.6875
aF0.1484375
atp1169
a(I00
(lp1170
F0.6392405063291139
aF0.6875
aF0.1484375
atp1171
a(I01
(lp1172
F0.15822784810126583
aF0.6640625
aF1.0
atp1173
a(I00
(lp1174
F0.6392405063291139
aF0.6875
aF0.1484375
atp1175
a(I01
(lp1176
F0.15822784810126583
aF0.6640625
aF1.0
atp1177
a(I00
(lp1178
F0.6392405063291139
aF0.6875
aF0.1484375
atp1179
a(I01
(lp1180
F0.15822784810126583
aF0.6640625
aF1.0
atp1181
a(I00
(lp1182
F0.6392405063291139
aF0.6875
aF0.1484375
atp1183
a(I01
(lp1184
F0.15822784810126583
aF0.6640625
aF1.0
atp1185
a(I00
(lp1186
F0.6392405063291139
aF0.6875
aF0.1484375
atp1187
a(I01
(lp1188
F0.15822784810126583
aF0.6640625
aF1.0
atp1189
a(I00
(lp1190
F0.6392405063291139
aF0.6875
aF0.1484375
atp1191
a(I01
(lp1192
F0.15822784810126583
aF0.6640625
aF1.0
atp1193
a(I00
(lp1194
F0.6392405063291139
aF0.6875
aF0.1484375
atp1195
a(I01
(lp1196
F0.15822784810126583
aF0.6640625
aF1.0
atp1197
a(I00
(lp1198
F0.6392405063291139
aF0.6875
aF0.1484375
atp1199
a(I00
(lp1200
F0.6392405063291139
aF0.6875
aF0.1484375
atp1201
a(I01
(lp1202
F0.5791139240506329
aF0.046875
aF0.96875
atp1203
a(I01
(lp1204
F0.5791139240506329
aF0.046875
aF0.96875
atp1205
a(I01
(lp1206
F0.5791139240506329
aF0.046875
aF0.96875
atp1207
a(I01
(lp1208
F0.6265822784810127
aF0.7890625
aF0.921875
atp1209
aa(lp1210
(I01
(lp1211
F0.6265822784810127
aF0.7890625
aF0.921875
atp1212
a(I00
(lp1213
F0.6265822784810127
aF0.2890625
aF0.234375
atp1214
a(I01
(lp1215
F0.5791139240506329
aF0.046875
aF0.96875
atp1216
a(I00
(lp1217
F0.6265822784810127
aF0.2890625
aF0.234375
atp1218
a(I00
(lp1219
F0.6392405063291139
aF0.6875
aF0.1484375
atp1220
a(I00
(lp1221
F0.6392405063291139
aF0.6875
aF0.1484375
atp1222
a(I00
(lp1223
F0.6392405063291139
aF0.6875
aF0.1484375
atp1224
a(I00
(lp1225
F0.6392405063291139
aF0.6875
aF0.1484375
atp1226
a(I00
(lp1227
F0.6392405063291139
aF0.6875
aF0.1484375
atp1228
a(I00
(lp1229
F0.6392405063291139
aF0.6875
aF0.1484375
atp1230
a(I00
(lp1231
F0.6392405063291139
aF0.6875
aF0.1484375
atp1232
a(I00
(lp1233
F0.6392405063291139
aF0.6875
aF0.1484375
atp1234
a(I00
(lp1235
F0.6392405063291139
aF0.6875
aF0.1484375
atp1236
a(I00
(lp1237
F0.6392405063291139
aF0.6875
aF0.1484375
atp1238
a(I00
(lp1239
F0.6392405063291139
aF0.6875
aF0.1484375
atp1240
a(I00
(lp1241
F0.6392405063291139
aF0.6875
aF0.1484375
atp1242
a(I00
(lp1243
F0.6392405063291139
aF0.6875
aF0.1484375
atp1244
a(I00
(lp1245
F0.6392405063291139
aF0.6875
aF0.1484375
atp1246
a(I00
(lp1247
F0.6392405063291139
aF0.6875
aF0.1484375
atp1248
a(I00
(lp1249
F0.6392405063291139
aF0.6875
aF0.1484375
atp1250
a(I00
(lp1251
F0.6392405063291139
aF0.6875
aF0.1484375
atp1252
a(I00
(lp1253
F0.6265822784810127
aF0.2890625
aF0.234375
atp1254
a(I01
(lp1255
F0.5791139240506329
aF0.046875
aF0.96875
atp1256
a(I00
(lp1257
F0.6265822784810127
aF0.2890625
aF0.234375
atp1258
a(I01
(lp1259
F0.6265822784810127
aF0.7890625
aF0.921875
atp1260
aa(lp1261
(I01
(lp1262
F0.6265822784810127
aF0.7890625
aF0.921875
atp1263
a(I01
(lp1264
F0.6265822784810127
aF0.7890625
aF0.921875
atp1265
a(I01
(lp1266
F0.6265822784810127
aF0.7890625
aF0.921875
atp1267
a(I01
(lp1268
F0.6265822784810127
aF0.7890625
aF0.921875
atp1269
a(I01
(lp1270
F0.6265822784810127
aF0.7890625
aF0.921875
atp1271
a(I01
(lp1272
F0.6265822784810127
aF0.7890625
aF0.921875
atp1273
a(I01
(lp1274
F0.6265822784810127
aF0.7890625
aF0.921875
atp1275
a(I01
(lp1276
F0.6265822784810127
aF0.7890625
aF0.921875
atp1277
a(I01
(lp1278
F0.6265822784810127
aF0.7890625
aF0.921875
atp1279
a(I01
(lp1280
F0.6265822784810127
aF0.7890625
aF0.921875
atp1281
a(I01
(lp1282
F0.6265822784810127
aF0.7890625
aF0.921875
atp1283
a(I01
(lp1284
F0.6265822784810127
aF0.7890625
aF0.921875
atp1285
a(I01
(lp1286
F0.6265822784810127
aF0.7890625
aF0.921875
atp1287
a(I01
(lp1288
F0.6265822784810127
aF0.7890625
aF0.921875
atp1289
a(I01
(lp1290
F0.6265822784810127
aF0.7890625
aF0.921875
atp1291
a(I01
(lp1292
F0.6265822784810127
aF0.7890625
aF0.921875
atp1293
a(I01
(lp1294
F0.6265822784810127
aF0.7890625
aF0.921875
atp1295
a(I01
(lp1296
F0.6265822784810127
aF0.7890625
aF0.921875
atp1297
a(I01
(lp1298
F0.6265822784810127
aF0.7890625
aF0.921875
atp1299
a(I01
(lp1300
F0.6265822784810127
aF0.7890625
aF0.921875
atp1301
a(I01
(lp1302
F0.6265822784810127
aF0.7890625
aF0.921875
atp1303
a(I01
(lp1304
F0.6265822784810127
aF0.7890625
aF0.921875
atp1305
a(I01
(lp1306
F0.6265822784810127
aF0.7890625
aF0.921875
atp1307
a(I01
(lp1308
F0.6265822784810127
aF0.7890625
aF0.921875
atp1309
a(I01
(lp1310
F0.6265822784810127
aF0.7890625
aF0.921875
atp1311
aasS'height'
p1312
I25
sS'width'
p1313
I25
sS'column_numbers'
p1314
(lp1315
(I13
I9
tp1316
a(I1
I1
I1
I1
I1
tp1317
a(I4
I1
I1
I1
I1
I1
I1
I1
I4
tp1318
a(I1
I1
I1
I1
I1
tp1319
a(I1
I5
I1
I1
I1
I5
I1
tp1320
a(I1
I1
I1
I1
I1
tp1321
a(I1
I1
I1
I1
I1
I1
I1
I1
I1
I1
I1
I1
I1
tp1322
a(I1
I1
I1
I1
tp1323
a(I1
I1
I1
I1
I1
I1
I1
I1
I1
I1
I1
I1
I1
tp1324
a(I1
I1
I1
I1
tp1325
a(I1
I1
I1
I1
I1
I3
I1
I1
I1
I1
I1
tp1326
a(I1
I1
I1
I1
I1
I1
tp1327
a(I5
I1
I1
I1
I5
I1
I1
tp1328
a(I1
I1
I1
I1
I1
I1
tp1329
a(I1
I1
I1
I1
I1
I3
I1
I1
I1
I1
I1
tp1330
a(I1
I1
I1
I1
tp1331
a(I1
I1
I1
I1
I1
I1
I2
I1
I1
I1
I1
tp1332
a(I1
I1
I3
I1
I1
tp1333
a(I1
I1
I1
I1
I1
I1
I1
I1
I1
I1
I1
I1
tp1334
a(I1
I1
I1
I1
I1
tp1335
a(I1
I1
I5
I1
I5
I1
tp1336
a(I1
I2
I1
I1
I1
tp1337
a(I1
I2
I1
I1
I1
I4
tp1338
a(I1
I2
I1
I1
I1
tp1339
a(I13
I9
tp1340
asS'background'
p1341
S'blue'
p1342
sb.