ccopy_reg
_reconstructor
p1
(cpuzzle
Puzzle
p2
c__builtin__
object
p3
NtRp4
(dp5
S'row_numbers'
p6
(lp7
(I1
tp8
a(I1
tp9
a(I1
tp10
a(I6
tp11
a(I2
I1
I4
tp12
a(I1
I1
I1
I1
tp13
a(I2
I3
tp14
a(I8
tp15
a(I6
tp16
a(I4
tp17
asS'name'
p18
VCup of Tea
p19
sS'cells'
p20
(lp21
(lp22
(I00
(lp23
F0.54746835443037978
aF0.2288135593220339
aF0.90677966101694918
atp24
a(I00
(lp25
F0.54746835443037978
aF0.2288135593220339
aF0.90677966101694918
atp26
a(I00
(lp27
F0.54746835443037978
aF0.2288135593220339
aF0.90677966101694918
atp28
a(I01
(lp29
F0.55379746835443033
aF0.10169491525423729
aF0.97457627118644063
atp30
a(I00
(lp31
F0.54746835443037978
aF0.2288135593220339
aF0.90677966101694918
atp32
a(I00
(lp33
F0.54746835443037978
aF0.2288135593220339
aF0.90677966101694918
atp34
a(I00
(lp35
F0.54746835443037978
aF0.2288135593220339
aF0.90677966101694918
atp36
a(I00
(lp37
F0.54746835443037978
aF0.2288135593220339
aF0.90677966101694918
atp38
a(I00
(lp39
F0.54746835443037978
aF0.2288135593220339
aF0.90677966101694918
atp40
a(I00
(lp41
F0.54746835443037978
aF0.2288135593220339
aF0.90677966101694918
atp42
aa(lp43
(I00
(lp44
F0.54746835443037978
aF0.2288135593220339
aF0.90677966101694918
atp45
a(I00
(lp46
F0.54746835443037978
aF0.2288135593220339
aF0.90677966101694918
atp47
a(I00
(lp48
F0.54746835443037978
aF0.2288135593220339
aF0.90677966101694918
atp49
a(I00
(lp50
F0.54746835443037978
aF0.2288135593220339
aF0.90677966101694918
atp51
a(I01
(lp52
F0.55379746835443033
aF0.10169491525423729
aF0.97457627118644063
atp53
a(I00
(lp54
F0.54746835443037978
aF0.2288135593220339
aF0.90677966101694918
atp55
a(I00
(lp56
F0.54746835443037978
aF0.2288135593220339
aF0.90677966101694918
atp57
a(I00
(lp58
F0.54746835443037978
aF0.2288135593220339
aF0.90677966101694918
atp59
a(I00
(lp60
F0.54746835443037978
aF0.2288135593220339
aF0.90677966101694918
atp61
a(I00
(lp62
F0.54746835443037978
aF0.2288135593220339
aF0.90677966101694918
atp63
aa(lp64
(I00
(lp65
F0.54746835443037978
aF0.2288135593220339
aF0.94915254237288138
atp66
a(I00
(lp67
F0.54746835443037978
aF0.2288135593220339
aF0.94915254237288138
atp68
a(I00
(lp69
F0.54746835443037978
aF0.2288135593220339
aF0.94915254237288138
atp70
a(I01
(lp71
F0.55063291139240511
aF0.093220338983050849
aF0.98305084745762716
atp72
a(I00
(lp73
F0.54746835443037978
aF0.2288135593220339
aF0.94915254237288138
atp74
a(I00
(lp75
F0.54746835443037978
aF0.2288135593220339
aF0.94915254237288138
atp76
a(I00
(lp77
F0.54746835443037978
aF0.2288135593220339
aF0.94915254237288138
atp78
a(I00
(lp79
F0.54746835443037978
aF0.2288135593220339
aF0.94915254237288138
atp80
a(I00
(lp81
F0.54746835443037978
aF0.2288135593220339
aF0.94915254237288138
atp82
a(I00
(lp83
F0.54746835443037978
aF0.2288135593220339
aF0.94915254237288138
atp84
aa(lp85
(I00
(lp86
F0.25632911392405061
aF0.2711864406779661
aF0.8728813559322034
atp87
a(I01
(lp88
F0.16455696202531644
aF0.11016949152542373
aF0.96610169491525422
atp89
a(I01
(lp90
F0.16455696202531644
aF0.11016949152542373
aF0.96610169491525422
atp91
a(I01
(lp92
F0.16455696202531644
aF0.059322033898305086
aF0.98305084745762716
atp93
a(I01
(lp94
F0.16455696202531644
aF0.11016949152542373
aF0.96610169491525422
atp95
a(I01
(lp96
F0.16455696202531644
aF0.11016949152542373
aF0.96610169491525422
atp97
a(I01
(lp98
F0.16455696202531644
aF0.11016949152542373
aF0.96610169491525422
atp99
a(I00
(lp100
F0.25632911392405061
aF0.2711864406779661
aF0.8728813559322034
atp101
a(I00
(lp102
F0.25632911392405061
aF0.2711864406779661
aF0.8728813559322034
atp103
a(I00
(lp104
F0.25632911392405061
aF0.2711864406779661
aF0.8728813559322034
atp105
aa(lp106
(I01
(lp107
F0.16455696202531644
aF0.11016949152542373
aF0.96610169491525422
atp108
a(I01
(lp109
F0.16455696202531644
aF0.11016949152542373
aF0.96610169491525422
atp110
a(I00
(lp111
F0.17088607594936708
aF0.076271186440677971
aF0.79661016949152541
atp112
a(I01
(lp113
F0.17088607594936708
aF0.076271186440677971
aF0.8728813559322034
atp114
a(I00
(lp115
F0.17088607594936708
aF0.076271186440677971
aF0.79661016949152541
atp116
a(I00
(lp117
F0.17088607594936708
aF0.076271186440677971
aF0.79661016949152541
atp118
a(I01
(lp119
F0.16455696202531644
aF0.11016949152542373
aF0.96610169491525422
atp120
a(I01
(lp121
F0.16455696202531644
aF0.11016949152542373
aF0.96610169491525422
atp122
a(I01
(lp123
F0.16455696202531644
aF0.11016949152542373
aF0.96610169491525422
atp124
a(I01
(lp125
F0.16455696202531644
aF0.11016949152542373
aF0.96610169491525422
atp126
aa(lp127
(I01
(lp128
F0.16455696202531644
aF0.11016949152542373
aF0.96610169491525422
atp129
a(I00
(lp130
F0.17088607594936708
aF0.076271186440677971
aF0.79661016949152541
atp131
a(I00
(lp132
F0.17088607594936708
aF0.076271186440677971
aF0.79661016949152541
atp133
a(I00
(lp134
F0.098101265822784806
aF0.47457627118644069
aF0.85593220338983056
atp135
a(I01
(lp136
F0.098101265822784806
aF0.34745762711864409
aF0.9152542372881356
atp137
a(I00
(lp138
F0.17088607594936708
aF0.076271186440677971
aF0.79661016949152541
atp139
a(I00
(lp140
F0.17088607594936708
aF0.076271186440677971
aF0.79661016949152541
atp141
a(I01
(lp142
F0.16455696202531644
aF0.11016949152542373
aF0.96610169491525422
atp143
a(I00
(lp144
F0.25632911392405061
aF0.2711864406779661
aF0.83898305084745761
atp145
a(I01
(lp146
F0.17088607594936708
aF0.076271186440677971
aF0.89830508474576276
atp147
aa(lp148
(I01
(lp149
F0.16455696202531644
aF0.11016949152542373
aF0.96610169491525422
atp150
a(I01
(lp151
F0.16455696202531644
aF0.11016949152542373
aF0.96610169491525422
atp152
a(I00
(lp153
F0.098101265822784806
aF0.47457627118644069
aF0.85593220338983056
atp154
a(I00
(lp155
F0.098101265822784806
aF0.47457627118644069
aF0.85593220338983056
atp156
a(I00
(lp157
F0.098101265822784806
aF0.47457627118644069
aF0.85593220338983056
atp158
a(I00
(lp159
F0.098101265822784806
aF0.47457627118644069
aF0.85593220338983056
atp160
a(I01
(lp161
F0.16455696202531644
aF0.11016949152542373
aF0.96610169491525422
atp162
a(I01
(lp163
F0.16455696202531644
aF0.11016949152542373
aF0.96610169491525422
atp164
a(I01
(lp165
F0.17088607594936708
aF0.076271186440677971
aF0.89830508474576276
atp166
a(I00
(lp167
F0.25632911392405061
aF0.2711864406779661
aF0.83898305084745761
atp168
aa(lp169
(I01
(lp170
F0.17088607594936708
aF0.076271186440677971
aF0.89830508474576276
atp171
a(I01
(lp172
F0.16455696202531644
aF0.11016949152542373
aF0.96610169491525422
atp173
a(I01
(lp174
F0.16455696202531644
aF0.11016949152542373
aF0.96610169491525422
atp175
a(I01
(lp176
F0.16455696202531644
aF0.11016949152542373
aF0.96610169491525422
atp177
a(I01
(lp178
F0.16455696202531644
aF0.11016949152542373
aF0.96610169491525422
atp179
a(I01
(lp180
F0.16455696202531644
aF0.11016949152542373
aF0.96610169491525422
atp181
a(I01
(lp182
F0.16455696202531644
aF0.11016949152542373
aF0.96610169491525422
atp183
a(I01
(lp184
F0.17088607594936708
aF0.076271186440677971
aF0.79661016949152541
atp185
a(I00
(lp186
F0.12974683544303797
aF0.36440677966101692
aF0.79661016949152541
atp187
a(I00
(lp188
F0.12974683544303797
aF0.36440677966101692
aF0.79661016949152541
atp189
aa(lp190
(I00
(lp191
F0.12974683544303797
aF0.36440677966101692
aF0.79661016949152541
atp192
a(I01
(lp193
F0.17088607594936708
aF0.076271186440677971
aF0.89830508474576276
atp194
a(I01
(lp195
F0.17088607594936708
aF0.076271186440677971
aF0.89830508474576276
atp196
a(I01
(lp197
F0.17088607594936708
aF0.076271186440677971
aF0.89830508474576276
atp198
a(I01
(lp199
F0.17088607594936708
aF0.076271186440677971
aF0.89830508474576276
atp200
a(I01
(lp201
F0.17088607594936708
aF0.076271186440677971
aF0.89830508474576276
atp202
a(I01
(lp203
F0.17088607594936708
aF0.076271186440677971
aF0.79661016949152541
atp204
a(I00
(lp205
F0.11075949367088607
aF0.34745762711864409
aF0.70338983050847459
atp206
a(I00
(lp207
F0.11075949367088607
aF0.34745762711864409
aF0.70338983050847459
atp208
a(I00
(lp209
F0.12974683544303797
aF0.36440677966101692
aF0.79661016949152541
atp210
aa(lp211
(I00
(lp212
F0.12974683544303797
aF0.36440677966101692
aF0.79661016949152541
atp213
a(I00
(lp214
F0.11075949367088607
aF0.34745762711864409
aF0.70338983050847459
atp215
a(I01
(lp216
F0.17088607594936708
aF0.076271186440677971
aF0.79661016949152541
atp217
a(I01
(lp218
F0.17088607594936708
aF0.076271186440677971
aF0.79661016949152541
atp219
a(I01
(lp220
F0.17088607594936708
aF0.076271186440677971
aF0.79661016949152541
atp221
a(I01
(lp222
F0.17088607594936708
aF0.076271186440677971
aF0.79661016949152541
atp223
a(I00
(lp224
F0.11075949367088607
aF0.34745762711864409
aF0.70338983050847459
atp225
a(I00
(lp226
F0.11075949367088607
aF0.34745762711864409
aF0.70338983050847459
atp227
a(I00
(lp228
F0.12974683544303797
aF0.36440677966101692
aF0.79661016949152541
atp229
a(I00
(lp230
F0.12974683544303797
aF0.36440677966101692
aF0.79661016949152541
atp231
aasS'height'
p232
I10
sS'width'
p233
I10
sS'column_numbers'
p234
(lp235
(I4
tp236
a(I2
I3
tp237
a(I1
I3
tp238
a(I1
I3
I3
tp239
a(I1
I1
I1
I3
tp240
a(I1
I3
tp241
a(I2
I3
tp242
a(I4
tp243
a(I1
I1
tp244
a(I2
tp245
asS'background'
p246
S'blue'
p247
sb.