ccopy_reg
_reconstructor
p0
(cpuzzle
Puzzle
p1
c__builtin__
object
p2
Ntp3
Rp4
(dp5
S'row_numbers'
p6
(lp7
(I7
tp8
a(I2
I2
tp9
a(I1
I1
I1
I1
tp10
a(I7
I1
tp11
a(I1
I1
I1
I1
tp12
a(I1
I1
I1
I1
tp13
a(I1
I7
tp14
a(I1
I1
I1
I1
tp15
a(I2
I2
tp16
a(I7
tp17
asS'name'
p18
VCube
p19
sS'cells'
p20
(lp21
(lp22
(I00
(lp23
F0.2721518987341772
aF0.984375
aF0.09375
atp24
a(I00
g23
tp25
a(Ng23
tp26
a(I01
(lp27
F0.2721518987341772
aF0.984375
aF0.5546875
atp28
a(I01
(lp29
F0.2721518987341772
aF0.984375
aF0.4609375
atp30
a(I01
(lp31
F0.2721518987341772
aF0.984375
aF0.4609375
atp32
a(I01
(lp33
F0.2721518987341772
aF0.984375
aF0.4609375
atp34
a(I01
(lp35
F0.2721518987341772
aF0.984375
aF0.4609375
atp36
a(I01
(lp37
F0.2721518987341772
aF0.984375
aF0.4609375
atp38
a(I01
(lp39
F0.2721518987341772
aF0.984375
aF0.5546875
atp40
aa(lp41
(I00
g23
tp42
a(Ng23
tp43
a(I01
(lp44
F0.2721518987341772
aF0.984375
aF0.671875
atp45
a(I01
(lp46
F0.2721518987341772
aF0.984375
aF0.4609375
atp47
a(N(lp48
F0.2721518987341772
aF0.984375
aF0.09375
atp49
a(I00
g48
tp50
a(I00
g48
tp51
a(I00
g48
tp52
a(I01
(lp53
F0.2721518987341772
aF0.984375
aF0.671875
atp54
a(I01
(lp55
F0.2721518987341772
aF0.984375
aF0.4609375
atp56
aa(lp57
(Ng23
tp58
a(I01
(lp59
F0.2721518987341772
aF0.984375
aF0.8125
atp60
a(N(lp61
F0.2721518987341772
aF0.984375
aF0.09375
atp62
a(I01
(lp63
F0.2721518987341772
aF0.984375
aF0.4609375
atp64
a(Ng48
tp65
a(I00
g48
tp66
a(I00
g48
tp67
a(I01
(lp68
F0.2721518987341772
aF0.984375
aF0.8125
atp69
a(I00
(lp70
F0.2721518987341772
aF0.984375
aF0.09375
atp71
a(I01
(lp72
F0.2721518987341772
aF0.984375
aF0.4609375
atp73
aa(lp74
(I01
(lp75
F0.2721518987341772
aF0.984375
aF1.0
atp76
a(I01
(lp77
F0.2721518987341772
aF0.984375
aF1.0
atp78
a(I01
(lp79
F0.2721518987341772
aF0.984375
aF1.0
atp80
a(I01
(lp81
F0.2721518987341772
aF0.984375
aF1.0
atp82
a(I01
(lp83
F0.2721518987341772
aF0.984375
aF1.0
atp84
a(I01
(lp85
F0.2721518987341772
aF0.984375
aF1.0
atp86
a(I01
(lp87
F0.2721518987341772
aF0.984375
aF1.0
atp88
a(I00
g70
tp89
a(I00
g70
tp90
a(I01
(lp91
F0.2721518987341772
aF0.984375
aF0.4609375
atp92
aa(lp93
(I01
(lp94
F0.2721518987341772
aF0.984375
aF1.0
atp95
a(N(lp96
F0.2721518987341772
aF0.984375
aF0.09375
atp97
a(Ng96
tp98
a(I01
(lp99
F0.2721518987341772
aF0.984375
aF0.4609375
atp100
a(I00
(lp101
F0.2721518987341772
aF0.984375
aF0.09375
atp102
a(I00
g101
tp103
a(I01
(lp104
F0.2721518987341772
aF0.984375
aF1.0
atp105
a(I00
g70
tp106
a(I00
g70
tp107
a(I01
(lp108
F0.2721518987341772
aF0.984375
aF0.4609375
atp109
aa(lp110
(I01
(lp111
F0.2721518987341772
aF0.984375
aF1.0
atp112
a(I00
g96
tp113
a(I00
g96
tp114
a(I01
(lp115
F0.2721518987341772
aF0.984375
aF0.4609375
atp116
a(I00
g101
tp117
a(I00
g101
tp118
a(I01
(lp119
F0.2721518987341772
aF0.984375
aF1.0
atp120
a(I00
g70
tp121
a(I00
g70
tp122
a(I01
(lp123
F0.2721518987341772
aF0.984375
aF0.4609375
atp124
aa(lp125
(I01
(lp126
F0.2721518987341772
aF0.984375
aF1.0
atp127
a(I00
g96
tp128
a(I00
g96
tp129
a(I01
(lp130
F0.2721518987341772
aF0.984375
aF0.5546875
atp131
a(I01
(lp132
F0.2721518987341772
aF0.984375
aF0.4609375
atp133
a(I01
(lp134
F0.2721518987341772
aF0.984375
aF0.4609375
atp135
a(I01
(lp136
F0.2721518987341772
aF0.984375
aF1.0
atp137
a(I01
(lp138
F0.2721518987341772
aF0.984375
aF0.4609375
atp139
a(I01
(lp140
F0.2721518987341772
aF0.984375
aF0.4609375
atp141
a(I01
(lp142
F0.2721518987341772
aF0.984375
aF0.5546875
atp143
aa(lp144
(I01
(lp145
F0.2721518987341772
aF0.984375
aF1.0
atp146
a(I00
g96
tp147
a(I01
(lp148
F0.2721518987341772
aF0.984375
aF0.671875
atp149
a(I00
(lp150
F0.2721518987341772
aF0.984375
aF0.09375
atp151
a(I00
g150
tp152
a(I00
g150
tp153
a(I01
(lp154
F0.2721518987341772
aF0.984375
aF1.0
atp155
a(I00
(lp156
F0.2721518987341772
aF0.984375
aF0.09375
atp157
a(I01
(lp158
F0.2721518987341772
aF0.984375
aF0.671875
atp159
a(I00
(lp160
F0.2721518987341772
aF0.984375
aF0.09375
atp161
aa(lp162
(I01
(lp163
F0.2721518987341772
aF0.984375
aF1.0
atp164
a(I01
(lp165
F0.2721518987341772
aF0.984375
aF0.8125
atp166
a(I00
g150
tp167
a(I00
g150
tp168
a(I00
g150
tp169
a(I00
g150
tp170
a(I01
(lp171
F0.2721518987341772
aF0.984375
aF1.0
atp172
a(I01
(lp173
F0.2721518987341772
aF0.984375
aF0.8125
atp174
a(I00
g160
tp175
a(I00
g160
tp176
aa(lp177
(I01
(lp178
F0.2721518987341772
aF0.984375
aF1.0
atp179
a(I01
(lp180
F0.2721518987341772
aF0.984375
aF1.0
atp181
a(I01
(lp182
F0.2721518987341772
aF0.984375
aF1.0
atp183
a(I01
(lp184
F0.2721518987341772
aF0.984375
aF1.0
atp185
a(I01
(lp186
F0.2721518987341772
aF0.984375
aF1.0
atp187
a(I01
(lp188
F0.2721518987341772
aF0.984375
aF1.0
atp189
a(I01
(lp190
F0.2721518987341772
aF0.984375
aF1.0
atp191
a(I00
g160
tp192
a(I00
g160
tp193
a(I00
g160
tp194
aasS'height'
p195
I10
sS'width'
p196
I10
sS'column_numbers'
p197
(lp198
(I7
tp199
a(I2
I2
tp200
a(I1
I1
I1
I1
tp201
a(I7
I1
tp202
a(I1
I1
I1
I1
tp203
a(I1
I1
I1
I1
tp204
a(I1
I7
tp205
a(I1
I1
I1
I1
tp206
a(I2
I2
tp207
a(I7
tp208
asS'background'
p209
S'blue'
p210
sb.