ccopy_reg
_reconstructor
p0
(cpuzzle
Puzzle
p1
c__builtin__
object
p2
Ntp3
Rp4
(dp5
S'row_numbers'
p6
(lp7
(I18
I1
tp8
a(I1
I15
tp9
a(I6
I6
I1
tp10
a(I1
I6
I3
I7
tp11
a(I7
I1
I1
I1
I4
tp12
a(I6
I5
I4
tp13
a(I7
I1
I1
I1
I3
tp14
a(I2
I6
I4
I2
tp15
a(I1
I3
I3
I2
tp16
a(I2
I3
I4
tp17
a(I5
I1
I7
tp18
a(I4
I2
I7
tp19
a(I5
I13
tp20
a(I2
I2
I5
tp21
a(I1
I1
I1
I1
I1
I1
tp22
a(I2
I1
I2
I1
I1
I1
I1
I1
tp23
a(I1
I1
I1
I1
I1
tp24
a(I2
I5
I5
I1
tp25
a(I0
tp26
a(I1
I1
I1
I1
I1
I1
I1
tp27
asS'name'
p28
VDJ
p29
sS'cells'
p30
(lp31
(lp32
(I01
(lp33
F0.7689873417721519
aF0.453125
aF0.21875
atp34
a(I01
(lp35
F0.9177215189873418
aF0.8125
aF0.5234375
atp36
a(I01
(lp37
F0.7689873417721519
aF0.453125
aF0.21875
atp38
a(I01
(lp39
F0.7689873417721519
aF0.453125
aF0.21875
atp40
a(I01
(lp41
F0.7689873417721519
aF0.453125
aF0.21875
atp42
a(I01
(lp43
F0.7689873417721519
aF0.453125
aF0.21875
atp44
a(I01
(lp45
F0.7689873417721519
aF0.453125
aF0.21875
atp46
a(I01
(lp47
F0.7689873417721519
aF0.453125
aF0.21875
atp48
a(I01
(lp49
F0.7689873417721519
aF0.453125
aF0.21875
atp50
a(I01
(lp51
F0.7689873417721519
aF0.453125
aF0.21875
atp52
a(I01
(lp53
F0.7689873417721519
aF0.453125
aF0.21875
atp54
a(I01
(lp55
F0.7689873417721519
aF0.453125
aF0.21875
atp56
a(I01
(lp57
F0.7689873417721519
aF0.453125
aF0.21875
atp58
a(I01
(lp59
F0.7689873417721519
aF0.453125
aF0.21875
atp60
a(I01
(lp61
F0.7689873417721519
aF0.453125
aF0.21875
atp62
a(I01
(lp63
F0.7689873417721519
aF0.453125
aF0.21875
atp64
a(I01
(lp65
F0.7689873417721519
aF0.453125
aF0.21875
atp66
a(I01
(lp67
F0.5443037974683544
aF0.921875
aF0.4765625
atp68
a(I00
(lp69
F0.34177215189873417
aF0.9609375
aF0.8984375
atp70
a(I01
(lp71
F0.5443037974683544
aF0.921875
aF0.4765625
atp72
aa(lp73
(I01
(lp74
F0.9177215189873418
aF0.8125
aF0.5234375
atp75
a(I00
(lp76
F0.0031645569620253164
aF0.859375
aF0.9921875
atp77
a(I01
(lp78
F0.9177215189873418
aF0.8125
aF0.5234375
atp79
a(I01
(lp80
F0.7689873417721519
aF0.453125
aF0.21875
atp81
a(I01
(lp82
F0.7689873417721519
aF0.453125
aF0.21875
atp83
a(I01
(lp84
F0.7689873417721519
aF0.453125
aF0.21875
atp85
a(I01
(lp86
F0.7689873417721519
aF0.453125
aF0.21875
atp87
a(I01
(lp88
F0.7689873417721519
aF0.453125
aF0.21875
atp89
a(I01
(lp90
F0.7689873417721519
aF0.453125
aF0.21875
atp91
a(I01
(lp92
F0.7689873417721519
aF0.453125
aF0.21875
atp93
a(I01
(lp94
F0.7689873417721519
aF0.453125
aF0.21875
atp95
a(I01
(lp96
F0.7689873417721519
aF0.453125
aF0.21875
atp97
a(I01
(lp98
F0.7689873417721519
aF0.453125
aF0.21875
atp99
a(I01
(lp100
F0.7689873417721519
aF0.453125
aF0.21875
atp101
a(I01
(lp102
F0.7689873417721519
aF0.453125
aF0.21875
atp103
a(I01
(lp104
F0.7689873417721519
aF0.453125
aF0.21875
atp105
a(I01
(lp106
F0.5443037974683544
aF0.921875
aF0.4765625
atp107
a(I00
(lp108
F0.34177215189873417
aF0.9609375
aF0.8984375
atp109
a(I00
(lp110
F0.2879746835443038
aF0.0234375
aF0.953125
atp111
a(I00
(lp112
F0.34177215189873417
aF0.9609375
aF0.8984375
atp113
aa(lp114
(I00
(lp115
F0.0031645569620253164
aF0.859375
aF0.9921875
atp116
a(I00
(lp117
F0.0031645569620253164
aF0.0703125
aF0.9921875
atp118
a(I00
(lp119
F0.0031645569620253164
aF0.859375
aF0.9921875
atp120
a(I01
(lp121
F0.9177215189873418
aF0.8125
aF0.5234375
atp122
a(I01
(lp123
F0.7689873417721519
aF0.453125
aF0.21875
atp124
a(I01
(lp125
F0.7689873417721519
aF0.453125
aF0.21875
atp126
a(I01
(lp127
F0.7689873417721519
aF0.453125
aF0.21875
atp128
a(I01
(lp129
F0.7689873417721519
aF0.453125
aF0.21875
atp130
a(I01
(lp131
F0.7689873417721519
aF0.453125
aF0.21875
atp132
a(I00
(lp133
F0.04746835443037975
aF0.015625
aF0.4765625
atp134
a(I00
(lp135
F0.04746835443037975
aF0.015625
aF0.4765625
atp136
a(I00
(lp137
F0.04746835443037975
aF0.015625
aF0.4765625
atp138
a(I01
(lp139
F0.7689873417721519
aF0.453125
aF0.21875
atp140
a(I01
(lp141
F0.7689873417721519
aF0.453125
aF0.21875
atp142
a(I01
(lp143
F0.7689873417721519
aF0.453125
aF0.21875
atp144
a(I01
(lp145
F0.7689873417721519
aF0.453125
aF0.21875
atp146
a(I01
(lp147
F0.7689873417721519
aF0.453125
aF0.21875
atp148
a(I01
(lp149
F0.5443037974683544
aF0.921875
aF0.4765625
atp150
a(I00
(lp151
F0.34177215189873417
aF0.9609375
aF0.8984375
atp152
a(I01
(lp153
F0.5443037974683544
aF0.921875
aF0.4765625
atp154
aa(lp155
(I01
(lp156
F0.9177215189873418
aF0.8125
aF0.5234375
atp157
a(I00
(lp158
F0.0031645569620253164
aF0.859375
aF0.9921875
atp159
a(I01
(lp160
F0.9177215189873418
aF0.8125
aF0.5234375
atp161
a(I01
(lp162
F0.7689873417721519
aF0.453125
aF0.21875
atp163
a(I01
(lp164
F0.7689873417721519
aF0.453125
aF0.21875
atp165
a(I01
(lp166
F0.7689873417721519
aF0.453125
aF0.21875
atp167
a(I01
(lp168
F0.7689873417721519
aF0.453125
aF0.21875
atp169
a(I01
(lp170
F0.7689873417721519
aF0.453125
aF0.21875
atp171
a(I00
(lp172
F0.04746835443037975
aF0.015625
aF0.4765625
atp173
a(I01
(lp174
F0.0189873417721519
aF0.5390625
aF0.625
atp175
a(I01
(lp176
F0.0189873417721519
aF0.5390625
aF0.625
atp177
a(I01
(lp178
F0.9462025316455697
aF0.546875
aF0.5
atp179
a(I00
(lp180
F0.04746835443037975
aF0.015625
aF0.3515625
atp181
a(I01
(lp182
F0.7689873417721519
aF0.453125
aF0.21875
atp183
a(I01
(lp184
F0.7689873417721519
aF0.453125
aF0.21875
atp185
a(I01
(lp186
F0.7689873417721519
aF0.453125
aF0.21875
atp187
a(I01
(lp188
F0.7689873417721519
aF0.453125
aF0.21875
atp189
a(I01
(lp190
F0.7689873417721519
aF0.453125
aF0.21875
atp191
a(I01
(lp192
F0.5443037974683544
aF0.921875
aF0.4765625
atp193
a(I01
(lp194
F0.7689873417721519
aF0.453125
aF0.21875
atp195
aa(lp196
(I01
(lp197
F0.7689873417721519
aF0.453125
aF0.21875
atp198
a(I01
(lp199
F0.9177215189873418
aF0.8125
aF0.5234375
atp200
a(I01
(lp201
F0.7689873417721519
aF0.453125
aF0.21875
atp202
a(I01
(lp203
F0.7689873417721519
aF0.453125
aF0.21875
atp204
a(I01
(lp205
F0.7689873417721519
aF0.453125
aF0.21875
atp206
a(I01
(lp207
F0.7689873417721519
aF0.453125
aF0.21875
atp208
a(I01
(lp209
F0.7689873417721519
aF0.453125
aF0.21875
atp210
a(I00
(lp211
F0.04746835443037975
aF0.015625
aF0.4765625
atp212
a(I01
(lp213
F0.0189873417721519
aF0.5390625
aF0.625
atp214
a(I00
(lp215
F0.0189873417721519
aF0.5390625
aF0.625
atp216
a(I00
(lp217
F0.0189873417721519
aF0.5390625
aF0.625
atp218
a(I00
(lp219
F0.9462025316455697
aF0.546875
aF0.5
atp220
a(I01
(lp221
F0.9462025316455697
aF0.546875
aF0.5
atp222
a(I00
(lp223
F0.04746835443037975
aF0.015625
aF0.3515625
atp224
a(I01
(lp225
F0.7689873417721519
aF0.453125
aF0.21875
atp226
a(I00
(lp227
F0.12658227848101267
aF0.4296875
aF0.796875
atp228
a(I01
(lp229
F0.7689873417721519
aF0.453125
aF0.21875
atp230
a(I01
(lp231
F0.7689873417721519
aF0.453125
aF0.21875
atp232
a(I01
(lp233
F0.7689873417721519
aF0.453125
aF0.21875
atp234
a(I01
(lp235
F0.7689873417721519
aF0.453125
aF0.21875
atp236
aa(lp237
(I01
(lp238
F0.7689873417721519
aF0.453125
aF0.21875
atp239
a(I01
(lp240
F0.7689873417721519
aF0.453125
aF0.21875
atp241
a(I01
(lp242
F0.7689873417721519
aF0.453125
aF0.21875
atp243
a(I01
(lp244
F0.7689873417721519
aF0.453125
aF0.21875
atp245
a(I01
(lp246
F0.7689873417721519
aF0.453125
aF0.21875
atp247
a(I01
(lp248
F0.7689873417721519
aF0.453125
aF0.21875
atp249
a(I00
(lp250
F0.04746835443037975
aF0.015625
aF0.4765625
atp251
a(I00
(lp252
F0.04746835443037975
aF0.015625
aF0.4765625
atp253
a(I01
(lp254
F0.0189873417721519
aF0.5390625
aF0.625
atp255
a(I01
(lp256
F0.0189873417721519
aF0.5390625
aF0.625
atp257
a(I01
(lp258
F0.0189873417721519
aF0.5390625
aF0.625
atp259
a(I01
(lp260
F0.9462025316455697
aF0.546875
aF0.5
atp261
a(I01
(lp262
F0.9462025316455697
aF0.546875
aF0.5
atp263
a(I00
(lp264
F0.04746835443037975
aF0.015625
aF0.3515625
atp265
a(I00
(lp266
F0.04746835443037975
aF0.015625
aF0.3515625
atp267
a(I00
(lp268
F0.12658227848101267
aF0.4296875
aF0.796875
atp269
a(I01
(lp270
F0.7689873417721519
aF0.453125
aF0.21875
atp271
a(I01
(lp272
F0.7689873417721519
aF0.453125
aF0.21875
atp273
a(I01
(lp274
F0.7689873417721519
aF0.453125
aF0.21875
atp275
a(I01
(lp276
F0.7689873417721519
aF0.453125
aF0.21875
atp277
aa(lp278
(I01
(lp279
F0.7689873417721519
aF0.453125
aF0.21875
atp280
a(I01
(lp281
F0.7689873417721519
aF0.453125
aF0.21875
atp282
a(I01
(lp283
F0.7088607594936709
aF0.703125
aF0.515625
atp284
a(I01
(lp285
F0.7689873417721519
aF0.453125
aF0.21875
atp286
a(I01
(lp287
F0.7689873417721519
aF0.453125
aF0.21875
atp288
a(I01
(lp289
F0.7689873417721519
aF0.453125
aF0.21875
atp290
a(I01
(lp291
F0.7689873417721519
aF0.453125
aF0.21875
atp292
a(I00
(lp293
F0.04746835443037975
aF0.015625
aF0.3515625
atp294
a(I01
(lp295
F0.12658227848101267
aF0.4296875
aF0.796875
atp296
a(I00
(lp297
F0.12658227848101267
aF0.4296875
aF0.796875
atp298
a(I00
(lp299
F0.12658227848101267
aF0.4296875
aF0.796875
atp300
a(I00
(lp301
F0.0379746835443038
aF0.4140625
aF0.71875
atp302
a(I01
(lp303
F0.0379746835443038
aF0.4140625
aF0.71875
atp304
a(I00
(lp305
F0.04746835443037975
aF0.015625
aF0.3515625
atp306
a(I01
(lp307
F0.7689873417721519
aF0.453125
aF0.21875
atp308
a(I00
(lp309
F0.12658227848101267
aF0.4296875
aF0.796875
atp310
a(I00
(lp311
F0.0379746835443038
aF0.4140625
aF0.71875
atp312
a(I01
(lp313
F0.7689873417721519
aF0.453125
aF0.21875
atp314
a(I01
(lp315
F0.7689873417721519
aF0.453125
aF0.21875
atp316
a(I01
(lp317
F0.7689873417721519
aF0.453125
aF0.21875
atp318
aa(lp319
(I01
(lp320
F0.7689873417721519
aF0.453125
aF0.21875
atp321
a(I01
(lp322
F0.7088607594936709
aF0.703125
aF0.515625
atp323
a(I00
(lp324
F0.6012658227848101
aF0.8828125
aF0.953125
atp325
a(I01
(lp326
F0.7088607594936709
aF0.703125
aF0.515625
atp327
a(I01
(lp328
F0.7689873417721519
aF0.453125
aF0.21875
atp329
a(I01
(lp330
F0.7689873417721519
aF0.453125
aF0.21875
atp331
a(I01
(lp332
F0.7689873417721519
aF0.453125
aF0.21875
atp333
a(I01
(lp334
F0.7689873417721519
aF0.453125
aF0.21875
atp335
a(I01
(lp336
F0.12658227848101267
aF0.4296875
aF0.796875
atp337
a(I00
(lp338
F0.12658227848101267
aF0.4296875
aF0.796875
atp339
a(I00
(lp340
F0.12658227848101267
aF0.4296875
aF0.796875
atp341
a(I00
(lp342
F0.0379746835443038
aF0.4140625
aF0.71875
atp343
a(I01
(lp344
F0.0379746835443038
aF0.4140625
aF0.71875
atp345
a(I01
(lp346
F0.7689873417721519
aF0.453125
aF0.21875
atp347
a(I01
(lp348
F0.7689873417721519
aF0.453125
aF0.21875
atp349
a(I01
(lp350
F0.7689873417721519
aF0.453125
aF0.21875
atp351
a(I00
(lp352
F0.12658227848101267
aF0.4296875
aF0.796875
atp353
a(I00
(lp354
F0.0379746835443038
aF0.4140625
aF0.71875
atp355
a(I01
(lp356
F0.7689873417721519
aF0.453125
aF0.21875
atp357
a(I01
(lp358
F0.7689873417721519
aF0.453125
aF0.21875
atp359
aa(lp360
(I01
(lp361
F0.7088607594936709
aF0.703125
aF0.515625
atp362
a(I00
(lp363
F0.6012658227848101
aF0.8828125
aF0.953125
atp364
a(I00
(lp365
F0.5664556962025317
aF0.1171875
aF0.9921875
atp366
a(I00
(lp367
F0.6012658227848101
aF0.8828125
aF0.953125
atp368
a(I01
(lp369
F0.7088607594936709
aF0.703125
aF0.515625
atp370
a(I01
(lp371
F0.7689873417721519
aF0.453125
aF0.21875
atp372
a(I01
(lp373
F0.7689873417721519
aF0.453125
aF0.21875
atp374
a(I00
(lp375
F0.0189873417721519
aF0.5390625
aF0.625
atp376
a(I00
(lp377
F0.0189873417721519
aF0.5390625
aF0.625
atp378
a(I01
(lp379
F0.0379746835443038
aF0.4140625
aF0.71875
atp380
a(I01
(lp381
F0.0379746835443038
aF0.4140625
aF0.71875
atp382
a(I01
(lp383
F0.0379746835443038
aF0.4140625
aF0.71875
atp384
a(I00
(lp385
F0.9462025316455697
aF0.546875
aF0.5
atp386
a(I00
(lp387
F0.9462025316455697
aF0.546875
aF0.5
atp388
a(I00
(lp389
F0.12658227848101267
aF0.4296875
aF0.796875
atp390
a(I00
(lp391
F0.12658227848101267
aF0.4296875
aF0.796875
atp392
a(I00
(lp393
F0.0379746835443038
aF0.4140625
aF0.71875
atp394
a(I00
(lp395
F0.0379746835443038
aF0.4140625
aF0.71875
atp396
a(I01
(lp397
F0.7689873417721519
aF0.453125
aF0.21875
atp398
a(I01
(lp399
F0.7689873417721519
aF0.453125
aF0.21875
atp400
aa(lp401
(I01
(lp402
F0.7689873417721519
aF0.453125
aF0.21875
atp403
a(I01
(lp404
F0.7088607594936709
aF0.703125
aF0.515625
atp405
a(I00
(lp406
F0.6012658227848101
aF0.8828125
aF0.953125
atp407
a(I01
(lp408
F0.7088607594936709
aF0.703125
aF0.515625
atp409
a(I01
(lp410
F0.7689873417721519
aF0.453125
aF0.21875
atp411
a(I01
(lp412
F0.7689873417721519
aF0.453125
aF0.21875
atp413
a(I00
(lp414
F0.12658227848101267
aF0.4296875
aF0.796875
atp415
a(I00
(lp416
F0.9462025316455697
aF0.546875
aF0.5
atp417
a(I00
(lp418
F0.0189873417721519
aF0.5390625
aF0.625
atp419
a(I00
(lp420
F0.0189873417721519
aF0.5390625
aF0.625
atp421
a(I00
(lp422
F0.9462025316455697
aF0.546875
aF0.5
atp423
a(I00
(lp424
F0.9462025316455697
aF0.546875
aF0.5
atp425
a(I00
(lp426
F0.9462025316455697
aF0.546875
aF0.5
atp427
a(I00
(lp428
F0.9462025316455697
aF0.546875
aF0.5
atp429
a(I00
(lp430
F0.0379746835443038
aF0.4140625
aF0.71875
atp431
a(I00
(lp432
F0.0379746835443038
aF0.4140625
aF0.71875
atp433
a(I01
(lp434
F0.7689873417721519
aF0.453125
aF0.21875
atp435
a(I01
(lp436
F0.7689873417721519
aF0.453125
aF0.21875
atp437
a(I01
(lp438
F0.7689873417721519
aF0.453125
aF0.21875
atp439
a(I01
(lp440
F0.7689873417721519
aF0.453125
aF0.21875
atp441
aa(lp442
(I01
(lp443
F0.7689873417721519
aF0.453125
aF0.21875
atp444
a(I01
(lp445
F0.7689873417721519
aF0.453125
aF0.21875
atp446
a(I01
(lp447
F0.7088607594936709
aF0.703125
aF0.515625
atp448
a(I01
(lp449
F0.7689873417721519
aF0.453125
aF0.21875
atp450
a(I01
(lp451
F0.7689873417721519
aF0.453125
aF0.21875
atp452
a(I00
(lp453
F0.12658227848101267
aF0.4296875
aF0.796875
atp454
a(I00
(lp455
F0.0379746835443038
aF0.4140625
aF0.71875
atp456
a(I01
(lp457
F0.7689873417721519
aF0.453125
aF0.21875
atp458
a(I00
(lp459
F0.0189873417721519
aF0.5390625
aF0.625
atp460
a(I00
(lp461
F0.0189873417721519
aF0.5390625
aF0.625
atp462
a(I00
(lp463
F0.0189873417721519
aF0.5390625
aF0.625
atp464
a(I00
(lp465
F0.0189873417721519
aF0.5390625
aF0.625
atp466
a(I00
(lp467
F0.9462025316455697
aF0.546875
aF0.5
atp468
a(I01
(lp469
F0.7689873417721519
aF0.453125
aF0.21875
atp470
a(I01
(lp471
F0.7689873417721519
aF0.453125
aF0.21875
atp472
a(I01
(lp473
F0.7689873417721519
aF0.453125
aF0.21875
atp474
a(I01
(lp475
F0.7689873417721519
aF0.453125
aF0.21875
atp476
a(I01
(lp477
F0.7689873417721519
aF0.453125
aF0.21875
atp478
a(I01
(lp479
F0.7689873417721519
aF0.453125
aF0.21875
atp480
a(I01
(lp481
F0.7689873417721519
aF0.453125
aF0.21875
atp482
aa(lp483
(I01
(lp484
F0.7689873417721519
aF0.453125
aF0.21875
atp485
a(I01
(lp486
F0.7689873417721519
aF0.453125
aF0.21875
atp487
a(I01
(lp488
F0.7689873417721519
aF0.453125
aF0.21875
atp489
a(I01
(lp490
F0.7689873417721519
aF0.453125
aF0.21875
atp491
a(I00
(lp492
F0.12658227848101267
aF0.4296875
aF0.796875
atp493
a(I00
(lp494
F0.0379746835443038
aF0.4140625
aF0.71875
atp495
a(I01
(lp496
F0.7689873417721519
aF0.453125
aF0.21875
atp497
a(I01
(lp498
F0.7689873417721519
aF0.453125
aF0.21875
atp499
a(I00
(lp500
F0.0189873417721519
aF0.5390625
aF0.625
atp501
a(I00
(lp502
F0.0189873417721519
aF0.5390625
aF0.625
atp503
a(I00
(lp504
F0.0189873417721519
aF0.5390625
aF0.625
atp505
a(I00
(lp506
F0.0189873417721519
aF0.5390625
aF0.625
atp507
a(I00
(lp508
F0.9462025316455697
aF0.546875
aF0.5
atp509
a(I01
(lp510
F0.7689873417721519
aF0.453125
aF0.21875
atp511
a(I01
(lp512
F0.7689873417721519
aF0.453125
aF0.21875
atp513
a(I01
(lp514
F0.7689873417721519
aF0.453125
aF0.21875
atp515
a(I01
(lp516
F0.7689873417721519
aF0.453125
aF0.21875
atp517
a(I01
(lp518
F0.7689873417721519
aF0.453125
aF0.21875
atp519
a(I01
(lp520
F0.7689873417721519
aF0.453125
aF0.21875
atp521
a(I01
(lp522
F0.7689873417721519
aF0.453125
aF0.21875
atp523
aa(lp524
(I01
(lp525
F0.04746835443037975
aF0.015625
aF0.3515625
atp526
a(I01
(lp527
F0.04746835443037975
aF0.015625
aF0.3515625
atp528
a(I01
(lp529
F0.04746835443037975
aF0.015625
aF0.3515625
atp530
a(I01
(lp531
F0.04746835443037975
aF0.015625
aF0.3515625
atp532
a(I01
(lp533
F0.04746835443037975
aF0.015625
aF0.3515625
atp534
a(I00
(lp535
F0.12658227848101267
aF0.4296875
aF0.796875
atp536
a(I00
(lp537
F0.12658227848101267
aF0.4296875
aF0.796875
atp538
a(I01
(lp539
F0.04746835443037975
aF0.015625
aF0.3515625
atp540
a(I01
(lp541
F0.04746835443037975
aF0.015625
aF0.3515625
atp542
a(I01
(lp543
F0.04746835443037975
aF0.015625
aF0.3515625
atp544
a(I01
(lp545
F0.04746835443037975
aF0.015625
aF0.3515625
atp546
a(I01
(lp547
F0.04746835443037975
aF0.015625
aF0.3515625
atp548
a(I01
(lp549
F0.04746835443037975
aF0.015625
aF0.3515625
atp550
a(I01
(lp551
F0.04746835443037975
aF0.015625
aF0.3515625
atp552
a(I01
(lp553
F0.04746835443037975
aF0.015625
aF0.3515625
atp554
a(I01
(lp555
F0.04746835443037975
aF0.015625
aF0.3515625
atp556
a(I01
(lp557
F0.04746835443037975
aF0.015625
aF0.3515625
atp558
a(I01
(lp559
F0.04746835443037975
aF0.015625
aF0.3515625
atp560
a(I01
(lp561
F0.04746835443037975
aF0.015625
aF0.3515625
atp562
a(I01
(lp563
F0.04746835443037975
aF0.015625
aF0.3515625
atp564
aa(lp565
(I00
(lp566
F0.04746835443037975
aF0.015625
aF0.4765625
atp567
a(I00
(lp568
F0.04746835443037975
aF0.015625
aF0.4765625
atp569
a(I00
(lp570
F0.04746835443037975
aF0.015625
aF0.4765625
atp571
a(I00
(lp572
F0.04746835443037975
aF0.015625
aF0.4765625
atp573
a(I01
(lp574
F0.04746835443037975
aF0.015625
aF0.8359375
atp575
a(I01
(lp576
F0.04746835443037975
aF0.015625
aF0.8359375
atp577
a(I00
(lp578
F0.12658227848101267
aF0.4296875
aF0.796875
atp579
a(I01
(lp580
F0.12658227848101267
aF0.4296875
aF0.796875
atp581
a(I01
(lp582
F0.04746835443037975
aF0.015625
aF0.8359375
atp583
a(I00
(lp584
F0.04746835443037975
aF0.015625
aF0.4765625
atp585
a(I00
(lp586
F0.04746835443037975
aF0.015625
aF0.4765625
atp587
a(I00
(lp588
F0.04746835443037975
aF0.015625
aF0.4765625
atp589
a(I01
(lp590
F0.04746835443037975
aF0.015625
aF0.8359375
atp591
a(I01
(lp592
F0.04746835443037975
aF0.015625
aF0.8359375
atp593
a(I01
(lp594
F0.04746835443037975
aF0.015625
aF0.8359375
atp595
a(I01
(lp596
F0.04746835443037975
aF0.015625
aF0.8359375
atp597
a(I01
(lp598
F0.04746835443037975
aF0.015625
aF0.8359375
atp599
a(I00
(lp600
F0.04746835443037975
aF0.015625
aF0.4765625
atp601
a(I00
(lp602
F0.04746835443037975
aF0.015625
aF0.4765625
atp603
a(I00
(lp604
F0.04746835443037975
aF0.015625
aF0.4765625
atp605
aa(lp606
(I00
(lp607
F0.46835443037974683
aF0.234375
aF0.53125
atp608
a(I00
(lp609
F0.46835443037974683
aF0.234375
aF0.53125
atp610
a(I00
(lp611
F0.04746835443037975
aF0.015625
aF0.4765625
atp612
a(I01
(lp613
F0.04746835443037975
aF0.015625
aF0.8359375
atp614
a(I00
(lp615
F0.04746835443037975
aF0.015625
aF0.8359375
atp616
a(I01
(lp617
F0.04746835443037975
aF0.015625
aF0.8359375
atp618
a(I00
(lp619
F0.12658227848101267
aF0.4296875
aF0.796875
atp620
a(I01
(lp621
F0.12658227848101267
aF0.4296875
aF0.796875
atp622
a(I00
(lp623
F0.04746835443037975
aF0.015625
aF0.8359375
atp624
a(I01
(lp625
F0.04746835443037975
aF0.015625
aF0.8359375
atp626
a(I00
(lp627
F0.04746835443037975
aF0.015625
aF0.4765625
atp628
a(I01
(lp629
F0.04746835443037975
aF0.015625
aF0.8359375
atp630
a(I00
(lp631
F0.04746835443037975
aF0.015625
aF0.8359375
atp632
a(I00
(lp633
F0.04746835443037975
aF0.015625
aF0.8359375
atp634
a(I00
(lp635
F0.04746835443037975
aF0.015625
aF0.8359375
atp636
a(I00
(lp637
F0.04746835443037975
aF0.015625
aF0.8359375
atp638
a(I00
(lp639
F0.04746835443037975
aF0.015625
aF0.8359375
atp640
a(I01
(lp641
F0.04746835443037975
aF0.015625
aF0.8359375
atp642
a(I00
(lp643
F0.04746835443037975
aF0.015625
aF0.4765625
atp644
a(I00
(lp645
F0.09177215189873418
aF0.1171875
aF0.5625
atp646
aa(lp647
(I01
(lp648
F0.4873417721518987
aF0.734375
aF0.953125
atp649
a(I01
(lp650
F0.4873417721518987
aF0.734375
aF0.953125
atp651
a(I00
(lp652
F0.04746835443037975
aF0.015625
aF0.4765625
atp653
a(I01
(lp654
F0.04746835443037975
aF0.015625
aF0.8359375
atp655
a(I00
(lp656
F0.04746835443037975
aF0.015625
aF0.8359375
atp657
a(I00
(lp658
F0.04746835443037975
aF0.015625
aF0.8359375
atp659
a(I01
(lp660
F0.04746835443037975
aF0.015625
aF0.8359375
atp661
a(I01
(lp662
F0.04746835443037975
aF0.015625
aF0.8359375
atp663
a(I00
(lp664
F0.04746835443037975
aF0.015625
aF0.8359375
atp665
a(I01
(lp666
F0.04746835443037975
aF0.015625
aF0.8359375
atp667
a(I00
(lp668
F0.04746835443037975
aF0.015625
aF0.4765625
atp669
a(I01
(lp670
F0.04746835443037975
aF0.015625
aF0.8359375
atp671
a(I00
(lp672
F0.04746835443037975
aF0.015625
aF0.8359375
atp673
a(I00
(lp674
F0.04746835443037975
aF0.015625
aF0.8359375
atp675
a(I01
(lp676
F0.04746835443037975
aF0.015625
aF0.3515625
atp677
a(I00
(lp678
F0.04746835443037975
aF0.015625
aF0.8359375
atp679
a(I00
(lp680
F0.04746835443037975
aF0.015625
aF0.8359375
atp681
a(I01
(lp682
F0.04746835443037975
aF0.015625
aF0.8359375
atp683
a(I00
(lp684
F0.04746835443037975
aF0.015625
aF0.4765625
atp685
a(I01
(lp686
F0.17088607594936708
aF0.625
aF0.953125
atp687
aa(lp688
(I00
(lp689
F0.46835443037974683
aF0.234375
aF0.53125
atp690
a(I00
(lp691
F0.46835443037974683
aF0.234375
aF0.53125
atp692
a(I00
(lp693
F0.04746835443037975
aF0.015625
aF0.4765625
atp694
a(I01
(lp695
F0.04746835443037975
aF0.015625
aF0.8359375
atp696
a(I00
(lp697
F0.04746835443037975
aF0.015625
aF0.8359375
atp698
a(I00
(lp699
F0.04746835443037975
aF0.015625
aF0.8359375
atp700
a(I00
(lp701
F0.04746835443037975
aF0.015625
aF0.8359375
atp702
a(I00
(lp703
F0.04746835443037975
aF0.015625
aF0.8359375
atp704
a(I00
(lp705
F0.04746835443037975
aF0.015625
aF0.8359375
atp706
a(I01
(lp707
F0.04746835443037975
aF0.015625
aF0.8359375
atp708
a(I00
(lp709
F0.04746835443037975
aF0.015625
aF0.4765625
atp710
a(I01
(lp711
F0.04746835443037975
aF0.015625
aF0.8359375
atp712
a(I00
(lp713
F0.04746835443037975
aF0.015625
aF0.8359375
atp714
a(I00
(lp715
F0.04746835443037975
aF0.015625
aF0.8359375
atp716
a(I00
(lp717
F0.04746835443037975
aF0.015625
aF0.8359375
atp718
a(I01
(lp719
F0.04746835443037975
aF0.015625
aF0.3515625
atp720
a(I00
(lp721
F0.04746835443037975
aF0.015625
aF0.8359375
atp722
a(I01
(lp723
F0.04746835443037975
aF0.015625
aF0.8359375
atp724
a(I00
(lp725
F0.04746835443037975
aF0.015625
aF0.4765625
atp726
a(I00
(lp727
F0.09177215189873418
aF0.1171875
aF0.5625
atp728
aa(lp729
(I01
(lp730
F0.4873417721518987
aF0.734375
aF0.953125
atp731
a(I01
(lp732
F0.4873417721518987
aF0.734375
aF0.953125
atp733
a(I00
(lp734
F0.04746835443037975
aF0.015625
aF0.4765625
atp735
a(I00
(lp736
F0.04746835443037975
aF0.015625
aF0.4765625
atp737
a(I01
(lp738
F0.04746835443037975
aF0.015625
aF0.8359375
atp739
a(I01
(lp740
F0.04746835443037975
aF0.015625
aF0.8359375
atp741
a(I01
(lp742
F0.04746835443037975
aF0.015625
aF0.8359375
atp743
a(I01
(lp744
F0.04746835443037975
aF0.015625
aF0.8359375
atp745
a(I01
(lp746
F0.04746835443037975
aF0.015625
aF0.8359375
atp747
a(I00
(lp748
F0.04746835443037975
aF0.015625
aF0.4765625
atp749
a(I00
(lp750
F0.04746835443037975
aF0.015625
aF0.4765625
atp751
a(I00
(lp752
F0.04746835443037975
aF0.015625
aF0.4765625
atp753
a(I01
(lp754
F0.04746835443037975
aF0.015625
aF0.8359375
atp755
a(I01
(lp756
F0.04746835443037975
aF0.015625
aF0.8359375
atp757
a(I01
(lp758
F0.04746835443037975
aF0.015625
aF0.8359375
atp759
a(I01
(lp760
F0.04746835443037975
aF0.015625
aF0.3515625
atp761
a(I01
(lp762
F0.04746835443037975
aF0.015625
aF0.8359375
atp763
a(I00
(lp764
F0.04746835443037975
aF0.015625
aF0.4765625
atp765
a(I00
(lp766
F0.04746835443037975
aF0.015625
aF0.4765625
atp767
a(I01
(lp768
F0.17088607594936708
aF0.625
aF0.953125
atp769
aa(lp770
(I00
(lp771
F0.04746835443037975
aF0.015625
aF0.4765625
atp772
a(I00
(lp773
F0.04746835443037975
aF0.015625
aF0.4765625
atp774
a(I00
(lp775
F0.04746835443037975
aF0.015625
aF0.4765625
atp776
a(I00
(lp777
F0.3322784810126582
aF0.2109375
aF0.5234375
atp778
a(I00
(lp779
F0.04746835443037975
aF0.015625
aF0.4765625
atp780
a(I00
(lp781
F0.3322784810126582
aF0.2109375
aF0.5234375
atp782
a(I00
(lp783
F0.04746835443037975
aF0.015625
aF0.4765625
atp784
a(I00
(lp785
F0.3322784810126582
aF0.2109375
aF0.5234375
atp786
a(I00
(lp787
F0.04746835443037975
aF0.015625
aF0.4765625
atp788
a(I00
(lp789
F0.04746835443037975
aF0.015625
aF0.4765625
atp790
a(I00
(lp791
F0.5791139240506329
aF0.171875
aF0.546875
atp792
a(I00
(lp793
F0.04746835443037975
aF0.015625
aF0.4765625
atp794
a(I00
(lp795
F0.0031645569620253164
aF0.1796875
aF0.578125
atp796
a(I00
(lp797
F0.04746835443037975
aF0.015625
aF0.4765625
atp798
a(I00
(lp799
F0.0031645569620253164
aF0.1796875
aF0.578125
atp800
a(I00
(lp801
F0.04746835443037975
aF0.015625
aF0.4765625
atp802
a(I00
(lp803
F0.04746835443037975
aF0.015625
aF0.4765625
atp804
a(I00
(lp805
F0.8354430379746836
aF0.15625
aF0.5703125
atp806
a(I00
(lp807
F0.04746835443037975
aF0.015625
aF0.4765625
atp808
a(I00
(lp809
F0.04746835443037975
aF0.015625
aF0.4765625
atp810
aa(lp811
(I00
(lp812
F0.04746835443037975
aF0.015625
aF0.4765625
atp813
a(I00
(lp814
F0.04746835443037975
aF0.015625
aF0.4765625
atp815
a(I00
(lp816
F0.04746835443037975
aF0.015625
aF0.4765625
atp817
a(I01
(lp818
F0.34177215189873417
aF0.9609375
aF0.8984375
atp819
a(I00
(lp820
F0.04746835443037975
aF0.015625
aF0.4765625
atp821
a(I01
(lp822
F0.34177215189873417
aF0.9609375
aF0.8984375
atp823
a(I00
(lp824
F0.04746835443037975
aF0.015625
aF0.4765625
atp825
a(I01
(lp826
F0.34177215189873417
aF0.9609375
aF0.8984375
atp827
a(I00
(lp828
F0.04746835443037975
aF0.015625
aF0.4765625
atp829
a(I00
(lp830
F0.04746835443037975
aF0.015625
aF0.4765625
atp831
a(I01
(lp832
F0.6012658227848101
aF0.8828125
aF0.953125
atp833
a(I00
(lp834
F0.04746835443037975
aF0.015625
aF0.4765625
atp835
a(I01
(lp836
F0.0031645569620253164
aF0.859375
aF0.9921875
atp837
a(I00
(lp838
F0.04746835443037975
aF0.015625
aF0.4765625
atp839
a(I01
(lp840
F0.0031645569620253164
aF0.859375
aF0.9921875
atp841
a(I00
(lp842
F0.04746835443037975
aF0.015625
aF0.4765625
atp843
a(I00
(lp844
F0.04746835443037975
aF0.015625
aF0.4765625
atp845
a(I01
(lp846
F0.8544303797468354
aF0.8515625
aF0.953125
atp847
a(I00
(lp848
F0.04746835443037975
aF0.015625
aF0.4765625
atp849
a(I00
(lp850
F0.04746835443037975
aF0.015625
aF0.4765625
atp851
aasS'height'
p852
I20
sS'width'
p853
I20
sS'column_numbers'
p854
(lp855
(I2
I10
I1
I1
tp856
a(I1
I4
I4
I1
I1
tp857
a(I2
I4
I3
tp858
a(I8
I4
I3
I1
tp859
a(I11
I2
I1
tp860
a(I10
I2
I1
I1
tp861
a(I5
I3
I1
I1
I1
tp862
a(I4
I1
I6
I1
I1
tp863
a(I3
I4
I2
I1
tp864
a(I2
I1
I1
I1
I1
I3
tp865
a(I2
I1
I1
I1
I1
I1
tp866
a(I2
I1
I1
I1
I1
I3
tp867
a(I3
I4
I2
I1
I1
tp868
a(I4
I1
I4
I1
tp869
a(I5
I2
I4
I1
I1
I1
tp870
a(I4
I1
I4
I2
tp871
a(I6
I5
I1
tp872
a(I1
I5
I4
I3
I1
tp873
a(I10
tp874
a(I1
I11
I1
I1
tp875
asS'background'
p876
S'blue'
p877
sb.