ccopy_reg
_reconstructor
p0
(cpuzzle
Puzzle
p1
c__builtin__
object
p2
Ntp3
Rp4
(dp5
S'row_numbers'
p6
(lp7
(I15
tp8
a(I2
I1
I2
tp9
a(I1
I1
I3
I1
I1
tp10
a(I1
I2
I3
I2
I1
tp11
a(I4
I2
I3
I2
I1
tp12
a(I2
I2
I3
I2
I1
tp13
a(I2
I2
I1
I3
I3
I1
tp14
a(I2
I3
I1
I4
I1
tp15
a(I4
I12
I1
tp16
a(I1
I10
I1
tp17
a(I1
I8
I1
tp18
a(I2
I1
I1
I2
tp19
a(I15
tp20
a(I9
tp21
a(I13
tp22
asS'name'
p23
VShip in a Bottle
p24
sS'cells'
p25
(lp26
(lp27
(I00
(lp28
F0.14556962025316456
aF0.109375
aF0.8984375
atp29
a(I00
(lp30
F0.14556962025316456
aF0.109375
aF0.8984375
atp31
a(I00
(lp32
F0.14556962025316456
aF0.109375
aF0.8984375
atp33
a(I00
(lp34
F0.14556962025316456
aF0.109375
aF0.8984375
atp35
a(I01
(lp36
F0.5284810126582279
aF0.3671875
aF0.6328125
atp37
a(I01
(lp38
F0.5284810126582279
aF0.3671875
aF0.6328125
atp39
a(I01
(lp40
F0.5284810126582279
aF0.3671875
aF0.6328125
atp41
a(I01
(lp42
F0.5284810126582279
aF0.3671875
aF0.6328125
atp43
a(I01
(lp44
F0.5284810126582279
aF0.3671875
aF0.6328125
atp45
a(I01
(lp46
F0.5284810126582279
aF0.3671875
aF0.6328125
atp47
a(I01
(lp48
F0.5284810126582279
aF0.3671875
aF0.6328125
atp49
a(I01
(lp50
F0.5284810126582279
aF0.3671875
aF0.6328125
atp51
a(I01
(lp52
F0.5284810126582279
aF0.3671875
aF0.6328125
atp53
a(I01
(lp54
F0.5284810126582279
aF0.3671875
aF0.6328125
atp55
a(I01
(lp56
F0.5284810126582279
aF0.3671875
aF0.6328125
atp57
a(I01
(lp58
F0.5284810126582279
aF0.3671875
aF0.6328125
atp59
a(I01
(lp60
F0.5284810126582279
aF0.3671875
aF0.6328125
atp61
a(I01
(lp62
F0.5284810126582279
aF0.3671875
aF0.6328125
atp63
a(I01
(lp64
F0.5284810126582279
aF0.3671875
aF0.6328125
atp65
a(I00
(lp66
F0.14556962025316456
aF0.109375
aF0.8984375
atp67
aa(lp68
(I00
(lp69
F0.14556962025316456
aF0.109375
aF0.8984375
atp70
a(I00
(lp71
F0.14556962025316456
aF0.109375
aF0.8984375
atp72
a(I00
(lp73
F0.14556962025316456
aF0.109375
aF0.8984375
atp74
a(I01
(lp75
F0.5284810126582279
aF0.3671875
aF0.6328125
atp76
a(I01
(lp77
F0.5284810126582279
aF0.3671875
aF0.6328125
atp78
a(I00
(lp79
F0.25
aF0.0703125
aF0.8984375
atp80
a(I00
(lp81
F0.25
aF0.0703125
aF0.8984375
atp82
a(I00
(lp83
F0.25
aF0.0703125
aF0.8984375
atp84
a(I00
(lp85
F0.25
aF0.0703125
aF0.8984375
atp86
a(I00
(lp87
F0.25
aF0.0703125
aF0.8984375
atp88
a(I00
(lp89
F0.25
aF0.0703125
aF0.8984375
atp90
a(I01
(lp91
F0.11708860759493671
aF0.4453125
aF0.3125
atp92
a(I00
(lp93
F0.25
aF0.0703125
aF0.8984375
atp94
a(I00
(lp95
F0.25
aF0.0703125
aF0.8984375
atp96
a(I00
(lp97
F0.25
aF0.0703125
aF0.8984375
atp98
a(I00
(lp99
F0.25
aF0.0703125
aF0.8984375
atp100
a(I00
(lp101
F0.25
aF0.0703125
aF0.8984375
atp102
a(I00
(lp103
F0.25
aF0.0703125
aF0.8984375
atp104
a(I01
(lp105
F0.5284810126582279
aF0.3671875
aF0.6328125
atp106
a(I01
(lp107
F0.5284810126582279
aF0.3671875
aF0.6328125
atp108
aa(lp109
(I00
(lp110
F0.14556962025316456
aF0.109375
aF0.8984375
atp111
a(I00
(lp112
F0.14556962025316456
aF0.109375
aF0.8984375
atp113
a(I00
(lp114
F0.14556962025316456
aF0.109375
aF0.8984375
atp115
a(I01
(lp116
F0.5284810126582279
aF0.3671875
aF0.6328125
atp117
a(I00
(lp118
F0.5063291139240507
aF0.09375
aF0.9921875
atp119
a(I00
(lp120
F0.5063291139240507
aF0.09375
aF0.9921875
atp121
a(I00
(lp122
F0.5063291139240507
aF0.09375
aF0.9921875
atp123
a(I00
(lp124
F0.25
aF0.0703125
aF0.8984375
atp125
a(I01
(lp126
F0.11708860759493671
aF0.4453125
aF0.3125
atp127
a(I00
(lp128
F0.25
aF0.0703125
aF0.8984375
atp129
a(I01
(lp130
F0.14873417721518986
aF0.140625
aF0.7734375
atp131
a(I01
(lp132
F0.14873417721518986
aF0.140625
aF0.7734375
atp133
a(I01
(lp134
F0.12974683544303797
aF0.0703125
aF0.65625
atp135
a(I00
(lp136
F0.25
aF0.0703125
aF0.8984375
atp137
a(I00
(lp138
F0.25
aF0.0703125
aF0.8984375
atp139
a(I01
(lp140
F0.11708860759493671
aF0.4453125
aF0.3125
atp141
a(I00
(lp142
F0.25
aF0.0703125
aF0.8984375
atp143
a(I00
(lp144
F0.5063291139240507
aF0.09375
aF0.9921875
atp145
a(I00
(lp146
F0.5063291139240507
aF0.09375
aF0.9921875
atp147
a(I01
(lp148
F0.5284810126582279
aF0.3671875
aF0.6328125
atp149
aa(lp150
(I00
(lp151
F0.14556962025316456
aF0.109375
aF0.8984375
atp152
a(I00
(lp153
F0.14556962025316456
aF0.109375
aF0.8984375
atp154
a(I00
(lp155
F0.14556962025316456
aF0.109375
aF0.8984375
atp156
a(I01
(lp157
F0.5284810126582279
aF0.3671875
aF0.6328125
atp158
a(I00
(lp159
F0.5063291139240507
aF0.09375
aF0.9921875
atp160
a(I00
(lp161
F0.25
aF0.0703125
aF0.8984375
atp162
a(I00
(lp163
F0.25
aF0.0703125
aF0.8984375
atp164
a(I01
(lp165
F0.14873417721518986
aF0.140625
aF0.7734375
atp166
a(I01
(lp167
F0.14873417721518986
aF0.140625
aF0.7734375
atp168
a(I00
(lp169
F0.25
aF0.0703125
aF0.8984375
atp170
a(I01
(lp171
F0.14873417721518986
aF0.140625
aF0.7734375
atp172
a(I01
(lp173
F0.12974683544303797
aF0.0703125
aF0.65625
atp174
a(I01
(lp175
F0.12974683544303797
aF0.0703125
aF0.65625
atp176
a(I00
(lp177
F0.25
aF0.0703125
aF0.8984375
atp178
a(I01
(lp179
F0.14873417721518986
aF0.140625
aF0.7734375
atp180
a(I01
(lp181
F0.14873417721518986
aF0.140625
aF0.7734375
atp182
a(I00
(lp183
F0.25
aF0.0703125
aF0.8984375
atp184
a(I00
(lp185
F0.25
aF0.0703125
aF0.8984375
atp186
a(I00
(lp187
F0.25
aF0.0703125
aF0.8984375
atp188
a(I01
(lp189
F0.5284810126582279
aF0.3671875
aF0.6328125
atp190
aa(lp191
(I01
(lp192
F0.10759493670886076
aF0.609375
aF0.6171875
atp193
a(I01
(lp194
F0.10759493670886076
aF0.609375
aF0.6171875
atp195
a(I01
(lp196
F0.5284810126582279
aF0.3671875
aF0.6328125
atp197
a(I01
(lp198
F0.5284810126582279
aF0.3671875
aF0.6328125
atp199
a(I00
(lp200
F0.25
aF0.0703125
aF0.8984375
atp201
a(I00
(lp202
F0.25
aF0.0703125
aF0.8984375
atp203
a(I00
(lp204
F0.25
aF0.0703125
aF0.8984375
atp205
a(I01
(lp206
F0.14873417721518986
aF0.140625
aF0.7734375
atp207
a(I01
(lp208
F0.12974683544303797
aF0.0703125
aF0.65625
atp209
a(I00
(lp210
F0.25
aF0.0703125
aF0.8984375
atp211
a(I01
(lp212
F0.14873417721518986
aF0.140625
aF0.7734375
atp213
a(I01
(lp214
F0.12974683544303797
aF0.0703125
aF0.65625
atp215
a(I01
(lp216
F0.12974683544303797
aF0.0703125
aF0.65625
atp217
a(I00
(lp218
F0.25
aF0.0703125
aF0.8984375
atp219
a(I01
(lp220
F0.14873417721518986
aF0.140625
aF0.7734375
atp221
a(I01
(lp222
F0.12974683544303797
aF0.0703125
aF0.65625
atp223
a(I00
(lp224
F0.25
aF0.0703125
aF0.8984375
atp225
a(I00
(lp226
F0.25
aF0.0703125
aF0.8984375
atp227
a(I00
(lp228
F0.25
aF0.0703125
aF0.8984375
atp229
a(I01
(lp230
F0.5284810126582279
aF0.3671875
aF0.6328125
atp231
aa(lp232
(I01
(lp233
F0.10759493670886076
aF0.609375
aF0.7578125
atp234
a(I01
(lp235
F0.10759493670886076
aF0.609375
aF0.7578125
atp236
a(I00
(lp237
F0.25
aF0.0703125
aF0.8984375
atp238
a(I00
(lp239
F0.25
aF0.0703125
aF0.8984375
atp240
a(I00
(lp241
F0.25
aF0.0703125
aF0.8984375
atp242
a(I00
(lp243
F0.25
aF0.0703125
aF0.8984375
atp244
a(I00
(lp245
F0.25
aF0.0703125
aF0.8984375
atp246
a(I01
(lp247
F0.14873417721518986
aF0.140625
aF0.7734375
atp248
a(I01
(lp249
F0.12974683544303797
aF0.0703125
aF0.65625
atp250
a(I00
(lp251
F0.25
aF0.0703125
aF0.8984375
atp252
a(I01
(lp253
F0.14873417721518986
aF0.140625
aF0.7734375
atp254
a(I01
(lp255
F0.12974683544303797
aF0.0703125
aF0.65625
atp256
a(I01
(lp257
F0.12974683544303797
aF0.0703125
aF0.65625
atp258
a(I00
(lp259
F0.25
aF0.0703125
aF0.8984375
atp260
a(I01
(lp261
F0.14873417721518986
aF0.140625
aF0.7734375
atp262
a(I01
(lp263
F0.12974683544303797
aF0.0703125
aF0.65625
atp264
a(I00
(lp265
F0.25
aF0.0703125
aF0.8984375
atp266
a(I00
(lp267
F0.25
aF0.0703125
aF0.8984375
atp268
a(I00
(lp269
F0.25
aF0.0703125
aF0.8984375
atp270
a(I01
(lp271
F0.5284810126582279
aF0.3671875
aF0.6328125
atp272
aa(lp273
(I01
(lp274
F0.10759493670886076
aF0.609375
aF0.7578125
atp275
a(I01
(lp276
F0.10759493670886076
aF0.609375
aF0.7578125
atp277
a(I00
(lp278
F0.25
aF0.0703125
aF0.8984375
atp279
a(I00
(lp280
F0.25
aF0.0703125
aF0.8984375
atp281
a(I01
(lp282
F0.11708860759493671
aF0.4453125
aF0.5390625
atp283
a(I01
(lp284
F0.11708860759493671
aF0.4453125
aF0.5390625
atp285
a(I00
(lp286
F0.25
aF0.0703125
aF0.8984375
atp287
a(I00
(lp288
F0.25
aF0.0703125
aF0.8984375
atp289
a(I01
(lp290
F0.11708860759493671
aF0.4453125
aF0.3125
atp291
a(I00
(lp292
F0.25
aF0.0703125
aF0.8984375
atp293
a(I01
(lp294
F0.14873417721518986
aF0.140625
aF0.7734375
atp295
a(I01
(lp296
F0.12974683544303797
aF0.0703125
aF0.65625
atp297
a(I01
(lp298
F0.12974683544303797
aF0.0703125
aF0.65625
atp299
a(I00
(lp300
F0.25
aF0.0703125
aF0.8984375
atp301
a(I00
(lp302
F0.25
aF0.0703125
aF0.8984375
atp303
a(I01
(lp304
F0.11708860759493671
aF0.4453125
aF0.5390625
atp305
a(I01
(lp306
F0.11708860759493671
aF0.4453125
aF0.5390625
atp307
a(I01
(lp308
F0.11708860759493671
aF0.4453125
aF0.5390625
atp309
a(I00
(lp310
F0.25
aF0.0703125
aF0.8984375
atp311
a(I01
(lp312
F0.5284810126582279
aF0.3671875
aF0.6328125
atp313
aa(lp314
(I01
(lp315
F0.10759493670886076
aF0.609375
aF0.6171875
atp316
a(I01
(lp317
F0.10759493670886076
aF0.609375
aF0.6171875
atp318
a(I00
(lp319
F0.25
aF0.0703125
aF0.8984375
atp320
a(I00
(lp321
F0.25
aF0.0703125
aF0.8984375
atp322
a(I00
(lp323
F0.25
aF0.0703125
aF0.8984375
atp324
a(I00
(lp325
F0.25
aF0.0703125
aF0.8984375
atp326
a(I01
(lp327
F0.11708860759493671
aF0.4453125
aF0.5390625
atp328
a(I01
(lp329
F0.11708860759493671
aF0.4453125
aF0.5390625
atp330
a(I01
(lp331
F0.11708860759493671
aF0.4453125
aF0.5390625
atp332
a(I00
(lp333
F0.25
aF0.0703125
aF0.8984375
atp334
a(I00
(lp335
F0.25
aF0.0703125
aF0.8984375
atp336
a(I01
(lp337
F0.11708860759493671
aF0.4453125
aF0.3125
atp338
a(I00
(lp339
F0.25
aF0.0703125
aF0.8984375
atp340
a(I00
(lp341
F0.25
aF0.0703125
aF0.8984375
atp342
a(I01
(lp343
F0.11708860759493671
aF0.4453125
aF0.5390625
atp344
a(I01
(lp345
F0.11708860759493671
aF0.4453125
aF0.5390625
atp346
a(I01
(lp347
F0.11708860759493671
aF0.4453125
aF0.5390625
atp348
a(I01
(lp349
F0.11708860759493671
aF0.4453125
aF0.5390625
atp350
a(I00
(lp351
F0.25
aF0.0703125
aF0.8984375
atp352
a(I01
(lp353
F0.5284810126582279
aF0.3671875
aF0.6328125
atp354
aa(lp355
(I01
(lp356
F0.10759493670886076
aF0.609375
aF0.5234375
atp357
a(I01
(lp358
F0.10759493670886076
aF0.609375
aF0.5234375
atp359
a(I01
(lp360
F0.5284810126582279
aF0.3671875
aF0.6328125
atp361
a(I01
(lp362
F0.5284810126582279
aF0.3671875
aF0.6328125
atp363
a(I00
(lp364
F0.25
aF0.0703125
aF0.8984375
atp365
a(I00
(lp366
F0.25
aF0.0703125
aF0.8984375
atp367
a(I01
(lp368
F0.11708860759493671
aF0.4453125
aF0.4453125
atp369
a(I01
(lp370
F0.11708860759493671
aF0.4453125
aF0.5390625
atp371
a(I01
(lp372
F0.11708860759493671
aF0.4453125
aF0.5390625
atp373
a(I01
(lp374
F0.11708860759493671
aF0.4453125
aF0.5390625
atp375
a(I01
(lp376
F0.11708860759493671
aF0.4453125
aF0.5390625
atp377
a(I01
(lp378
F0.11708860759493671
aF0.4453125
aF0.5390625
atp379
a(I01
(lp380
F0.11708860759493671
aF0.4453125
aF0.5390625
atp381
a(I01
(lp382
F0.11708860759493671
aF0.4453125
aF0.5390625
atp383
a(I01
(lp384
F0.11708860759493671
aF0.4453125
aF0.5390625
atp385
a(I01
(lp386
F0.11708860759493671
aF0.4453125
aF0.5390625
atp387
a(I01
(lp388
F0.11708860759493671
aF0.4453125
aF0.5390625
atp389
a(I01
(lp390
F0.11708860759493671
aF0.4453125
aF0.4453125
atp391
a(I00
(lp392
F0.25
aF0.0703125
aF0.8984375
atp393
a(I01
(lp394
F0.5284810126582279
aF0.3671875
aF0.6328125
atp395
aa(lp396
(I00
(lp397
F0.14556962025316456
aF0.109375
aF0.8984375
atp398
a(I00
(lp399
F0.14556962025316456
aF0.109375
aF0.8984375
atp400
a(I00
(lp401
F0.14556962025316456
aF0.109375
aF0.8984375
atp402
a(I01
(lp403
F0.5284810126582279
aF0.3671875
aF0.6328125
atp404
a(I00
(lp405
F0.25
aF0.0703125
aF0.8984375
atp406
a(I00
(lp407
F0.25
aF0.0703125
aF0.8984375
atp408
a(I00
(lp409
F0.25
aF0.0703125
aF0.8984375
atp410
a(I01
(lp411
F0.11708860759493671
aF0.4453125
aF0.4453125
atp412
a(I01
(lp413
F0.11708860759493671
aF0.4453125
aF0.4453125
atp414
a(I01
(lp415
F0.11708860759493671
aF0.4453125
aF0.4453125
atp416
a(I01
(lp417
F0.11708860759493671
aF0.4453125
aF0.4453125
atp418
a(I01
(lp419
F0.11708860759493671
aF0.4453125
aF0.4453125
atp420
a(I01
(lp421
F0.11708860759493671
aF0.4453125
aF0.4453125
atp422
a(I01
(lp423
F0.11708860759493671
aF0.4453125
aF0.4453125
atp424
a(I01
(lp425
F0.11708860759493671
aF0.4453125
aF0.4453125
atp426
a(I01
(lp427
F0.11708860759493671
aF0.4453125
aF0.4453125
atp428
a(I01
(lp429
F0.11708860759493671
aF0.4453125
aF0.4453125
atp430
a(I00
(lp431
F0.25
aF0.0703125
aF0.8984375
atp432
a(I00
(lp433
F0.25
aF0.0703125
aF0.8984375
atp434
a(I01
(lp435
F0.5284810126582279
aF0.3671875
aF0.6328125
atp436
aa(lp437
(I00
(lp438
F0.14556962025316456
aF0.109375
aF0.8984375
atp439
a(I00
(lp440
F0.14556962025316456
aF0.109375
aF0.8984375
atp441
a(I00
(lp442
F0.14556962025316456
aF0.109375
aF0.8984375
atp443
a(I01
(lp444
F0.5284810126582279
aF0.3671875
aF0.6328125
atp445
a(I00
(lp446
F0.25
aF0.0703125
aF0.8984375
atp447
a(I00
(lp448
F0.25
aF0.0703125
aF0.8984375
atp449
a(I00
(lp450
F0.25
aF0.0703125
aF0.8984375
atp451
a(I00
(lp452
F0.25
aF0.0703125
aF0.8984375
atp453
a(I01
(lp454
F0.11708860759493671
aF0.4453125
aF0.3125
atp455
a(I01
(lp456
F0.11708860759493671
aF0.4453125
aF0.3125
atp457
a(I01
(lp458
F0.11708860759493671
aF0.4453125
aF0.3125
atp459
a(I01
(lp460
F0.11708860759493671
aF0.4453125
aF0.3125
atp461
a(I01
(lp462
F0.11708860759493671
aF0.4453125
aF0.3125
atp463
a(I01
(lp464
F0.11708860759493671
aF0.4453125
aF0.3125
atp465
a(I01
(lp466
F0.11708860759493671
aF0.4453125
aF0.3125
atp467
a(I01
(lp468
F0.11708860759493671
aF0.4453125
aF0.3125
atp469
a(I00
(lp470
F0.25
aF0.0703125
aF0.8984375
atp471
a(I00
(lp472
F0.25
aF0.0703125
aF0.8984375
atp473
a(I00
(lp474
F0.25
aF0.0703125
aF0.8984375
atp475
a(I01
(lp476
F0.5284810126582279
aF0.3671875
aF0.6328125
atp477
aa(lp478
(I00
(lp479
F0.14556962025316456
aF0.109375
aF0.8984375
atp480
a(I00
(lp481
F0.14556962025316456
aF0.109375
aF0.8984375
atp482
a(I00
(lp483
F0.14556962025316456
aF0.109375
aF0.8984375
atp484
a(I01
(lp485
F0.5284810126582279
aF0.3671875
aF0.6328125
atp486
a(I01
(lp487
F0.5284810126582279
aF0.3671875
aF0.6328125
atp488
a(I00
(lp489
F0.25
aF0.0703125
aF0.8984375
atp490
a(I00
(lp491
F0.25
aF0.0703125
aF0.8984375
atp492
a(I00
(lp493
F0.25
aF0.0703125
aF0.8984375
atp494
a(I00
(lp495
F0.25
aF0.0703125
aF0.8984375
atp496
a(I01
(lp497
F0.04746835443037975
aF0.3984375
aF0.3125
atp498
a(I00
(lp499
F0.25
aF0.0703125
aF0.8984375
atp500
a(I00
(lp501
F0.25
aF0.0703125
aF0.8984375
atp502
a(I00
(lp503
F0.25
aF0.0703125
aF0.8984375
atp504
a(I00
(lp505
F0.25
aF0.0703125
aF0.8984375
atp506
a(I01
(lp507
F0.04746835443037975
aF0.3984375
aF0.3125
atp508
a(I00
(lp509
F0.25
aF0.0703125
aF0.8984375
atp510
a(I00
(lp511
F0.25
aF0.0703125
aF0.8984375
atp512
a(I00
(lp513
F0.25
aF0.0703125
aF0.8984375
atp514
a(I01
(lp515
F0.5284810126582279
aF0.3671875
aF0.6328125
atp516
a(I01
(lp517
F0.5284810126582279
aF0.3671875
aF0.6328125
atp518
aa(lp519
(I00
(lp520
F0.14556962025316456
aF0.109375
aF0.8984375
atp521
a(I00
(lp522
F0.14556962025316456
aF0.109375
aF0.8984375
atp523
a(I00
(lp524
F0.14556962025316456
aF0.109375
aF0.8984375
atp525
a(I00
(lp526
F0.14556962025316456
aF0.109375
aF0.8984375
atp527
a(I01
(lp528
F0.5284810126582279
aF0.3671875
aF0.6328125
atp529
a(I01
(lp530
F0.5284810126582279
aF0.3671875
aF0.6328125
atp531
a(I01
(lp532
F0.5284810126582279
aF0.3671875
aF0.6328125
atp533
a(I01
(lp534
F0.5284810126582279
aF0.3671875
aF0.6328125
atp535
a(I01
(lp536
F0.5284810126582279
aF0.3671875
aF0.6328125
atp537
a(I01
(lp538
F0.5284810126582279
aF0.3671875
aF0.6328125
atp539
a(I01
(lp540
F0.5284810126582279
aF0.3671875
aF0.6328125
atp541
a(I01
(lp542
F0.5284810126582279
aF0.3671875
aF0.6328125
atp543
a(I01
(lp544
F0.5284810126582279
aF0.3671875
aF0.6328125
atp545
a(I01
(lp546
F0.5284810126582279
aF0.3671875
aF0.6328125
atp547
a(I01
(lp548
F0.5284810126582279
aF0.3671875
aF0.6328125
atp549
a(I01
(lp550
F0.5284810126582279
aF0.3671875
aF0.6328125
atp551
a(I01
(lp552
F0.5284810126582279
aF0.3671875
aF0.6328125
atp553
a(I01
(lp554
F0.5284810126582279
aF0.3671875
aF0.6328125
atp555
a(I01
(lp556
F0.5284810126582279
aF0.3671875
aF0.6328125
atp557
a(I00
(lp558
F0.14556962025316456
aF0.109375
aF0.8984375
atp559
aa(lp560
(I00
(lp561
F0.14556962025316456
aF0.109375
aF0.8984375
atp562
a(I00
(lp563
F0.14556962025316456
aF0.109375
aF0.8984375
atp564
a(I00
(lp565
F0.14556962025316456
aF0.109375
aF0.8984375
atp566
a(I00
(lp567
F0.14556962025316456
aF0.109375
aF0.8984375
atp568
a(I00
(lp569
F0.14556962025316456
aF0.109375
aF0.8984375
atp570
a(I00
(lp571
F0.14556962025316456
aF0.109375
aF0.8984375
atp572
a(I00
(lp573
F0.14556962025316456
aF0.109375
aF0.8984375
atp574
a(I01
(lp575
F0.04746835443037975
aF0.3984375
aF0.3125
atp576
a(I01
(lp577
F0.04746835443037975
aF0.3984375
aF0.3125
atp578
a(I01
(lp579
F0.04746835443037975
aF0.3984375
aF0.3125
atp580
a(I01
(lp581
F0.04746835443037975
aF0.3984375
aF0.3125
atp582
a(I01
(lp583
F0.04746835443037975
aF0.3984375
aF0.3125
atp584
a(I01
(lp585
F0.04746835443037975
aF0.3984375
aF0.3125
atp586
a(I01
(lp587
F0.04746835443037975
aF0.3984375
aF0.3125
atp588
a(I01
(lp589
F0.04746835443037975
aF0.3984375
aF0.3125
atp590
a(I01
(lp591
F0.04746835443037975
aF0.3984375
aF0.3125
atp592
a(I00
(lp593
F0.14556962025316456
aF0.109375
aF0.8984375
atp594
a(I00
(lp595
F0.14556962025316456
aF0.109375
aF0.8984375
atp596
a(I00
(lp597
F0.14556962025316456
aF0.109375
aF0.8984375
atp598
a(I00
(lp599
F0.14556962025316456
aF0.109375
aF0.8984375
atp600
aa(lp601
(I00
(lp602
F0.14556962025316456
aF0.109375
aF0.8984375
atp603
a(I00
(lp604
F0.14556962025316456
aF0.109375
aF0.8984375
atp605
a(I00
(lp606
F0.14556962025316456
aF0.109375
aF0.8984375
atp607
a(I00
(lp608
F0.14556962025316456
aF0.109375
aF0.8984375
atp609
a(I00
(lp610
F0.14556962025316456
aF0.109375
aF0.8984375
atp611
a(I01
(lp612
F0.04746835443037975
aF0.3984375
aF0.3125
atp613
a(I01
(lp614
F0.04746835443037975
aF0.3984375
aF0.3125
atp615
a(I01
(lp616
F0.04746835443037975
aF0.3984375
aF0.3125
atp617
a(I01
(lp618
F0.04746835443037975
aF0.3984375
aF0.3125
atp619
a(I01
(lp620
F0.04746835443037975
aF0.3984375
aF0.3125
atp621
a(I01
(lp622
F0.04746835443037975
aF0.3984375
aF0.3125
atp623
a(I01
(lp624
F0.04746835443037975
aF0.3984375
aF0.3125
atp625
a(I01
(lp626
F0.04746835443037975
aF0.3984375
aF0.3125
atp627
a(I01
(lp628
F0.04746835443037975
aF0.3984375
aF0.3125
atp629
a(I01
(lp630
F0.04746835443037975
aF0.3984375
aF0.3125
atp631
a(I01
(lp632
F0.04746835443037975
aF0.3984375
aF0.3125
atp633
a(I01
(lp634
F0.04746835443037975
aF0.3984375
aF0.3125
atp635
a(I01
(lp636
F0.04746835443037975
aF0.3984375
aF0.3125
atp637
a(I00
(lp638
F0.14556962025316456
aF0.109375
aF0.8984375
atp639
a(I00
(lp640
F0.14556962025316456
aF0.109375
aF0.8984375
atp641
aasS'height'
p642
I15
sS'width'
p643
I20
sS'column_numbers'
p644
(lp645
(I5
tp646
a(I5
tp647
a(I1
I1
tp648
a(I4
I4
tp649
a(I2
I1
I2
tp650
a(I1
I1
I1
I1
tp651
a(I1
I2
I1
I1
tp652
a(I1
I3
I3
I3
tp653
a(I1
I9
I3
tp654
a(I1
I7
tp655
a(I1
I5
I3
I3
tp656
a(I11
I3
tp657
a(I1
I5
I3
I3
tp658
a(I1
I3
I3
tp659
a(I1
I3
I8
tp660
a(I1
I9
I3
tp661
a(I1
I4
I1
I1
tp662
a(I1
I3
I1
I1
tp663
a(I2
I2
tp664
a(I11
tp665
asS'background'
p666
S'blue'
p667
sb.