ccopy_reg
_reconstructor
p1
(cpuzzle
Puzzle
p2
c__builtin__
object
p3
NtRp4
(dp5
S'row_numbers'
p6
(lp7
(I3
tp8
a(I1
I1
tp9
a(I1
I3
tp10
a(I1
I1
I1
tp11
a(I3
tp12
asS'name'
p13
VClock
p14
sS'cells'
p15
(lp16
(lp17
(N(lp18
F0.2848101265822785
aF0.296875
aF0.8671875
atp19
a(I01
(lp20
F0
aF0
aF0.484375
atp21
a(I01
(lp22
F0
aF0
aF0.484375
atp23
a(I01
(lp24
F0
aF0
aF0.484375
atp25
a(N(lp26
F0.2848101265822785
aF0.296875
aF0.8671875
atp27
aa(lp28
(I01
(lp29
F0
aF0
aF0.484375
atp30
a(N(lp31
F0.50632911392405067
aF0.0390625
aF0.8984375
atp32
a(N(lp33
F0.50632911392405067
aF0.0390625
aF0.8984375
atp34
a(N(lp35
F0.51265822784810122
aF0.1171875
aF0.8984375
atp36
a(I01
(lp37
F0
aF0
aF0.546875
atp38
aa(lp39
(I01
(lp40
F0
aF0
aF0.484375
atp41
a(N(lp42
F0.51265822784810122
aF0.1171875
aF0.8984375
atp43
a(I01
(lp44
F0
aF0
aF0.203125
atp45
a(I01
(lp46
F0
aF0
aF0.3359375
atp47
a(I01
(lp48
F0
aF0
aF0.546875
atp49
aa(lp50
(I01
(lp51
F0
aF0
aF0.484375
atp52
a(N(lp53
F0.51265822784810122
aF0.1171875
aF0.8984375
atp54
a(I01
(lp55
F0
aF0
aF0.3359375
atp56
a(N(lp57
F0.51265822784810122
aF0.1171875
aF0.8984375
atp58
a(I01
(lp59
F0
aF0
aF0.546875
atp60
aa(lp61
(N(lp62
F0.2848101265822785
aF0.296875
aF0.8671875
atp63
a(I01
(lp64
F0
aF0
aF0.546875
atp65
a(I01
(lp66
F0
aF0
aF0.546875
atp67
a(I01
(lp68
F0
aF0
aF0.546875
atp69
a(N(lp70
F0.2848101265822785
aF0.296875
aF0.8671875
atp71
aasS'height'
p72
I5
sS'width'
p73
I5
sS'column_numbers'
p74
(lp75
(I3
tp76
a(I1
I1
tp77
a(I1
I3
tp78
a(I1
I1
I1
tp79
a(I3
tp80
asS'background'
p81
S'blue'
p82
sb.