ccopy_reg
_reconstructor
p1
(cpuzzle
Pack
p2
c__builtin__
object
p3
NtRp4
(dp5
S'uuid'
p6
S'd0437bd8-7886-44c3-80b6-592915c74d04'
p7
sS'author_name'
p8
VStompy Blondie
p9
sS'name'
p10
Vsonic-05-2013
p11
sS'puzzles'
p12
(dp13
S'0001.puz'
p14
(lp15
VQR Code
p16
aI25
aI25
assS'author_id'
p17
S'dac22d94-8d0c-4ec3-acd9-55fe5a50533a'
p18
sS'order'
p19
(lp20
g14
asS'freemode'
p21
I00
sb.