ccopy_reg
_reconstructor
p1
(cpuzzle
Pack
p2
c__builtin__
object
p3
NtRp4
(dp5
S'uuid'
p6
S'4aa1db9b-7526-4174-b8b8-dc47221dabcc'
p7
sS'author_name'
p8
VStompy Blondie
p9
sS'name'
p10
Vlenovo-06-2013
p11
sS'puzzles'
p12
(dp13
S'0001.puz'
p14
(lp15
VSuperhero
p16
aI20
aI15
asS'0002.puz'
p17
(lp18
VGraffiti
p19
aI25
aI15
assS'author_id'
p20
S'0c3a976c-5926-4804-8c2f-8d0b5224863f'
p21
sS'order'
p22
(lp23
g14
ag17
asS'freemode'
p24
I00
sb.