ccopy_reg
_reconstructor
p0
(cpuzzle
Pack
p1
c__builtin__
object
p2
Ntp3
Rp4
(dp5
S'uuid'
p6
S'd42f1f29-d679-4aee-a6bc-4de633f71a1b'
p7
sS'author_name'
p8
S'Stompy Blondie'
p9
sS'name'
p10
S'Tutorial'
p11
sS'puzzles'
p12
(dp13
S'0001.puz'
p14
(lp15
VGarden Faucet
p16
aI5
aI5
assS'author_id'
p17
S'dc4d7a02-662f-404d-9bc5-d6dda5513a63'
p18
sS'order'
p19
(lp20
g14
asS'freemode'
p21
I00
sb.