ccopy_reg
_reconstructor
p0
(cpuzzle
Pack
p1
c__builtin__
object
p2
Ntp3
Rp4
(dp5
S'name'
p6
VTutorial
p7
sS'author_name'
p8
VStompy Blondie
p9
sS'puzzles'
p10
(dp11
S'0001.puz'
p12
(lp13
VTutorial 1
p14
aI5
aI5
assS'uud'
p15
S'40d522b9-ac3a-4e7b-9346-e3042442b679'
p16
sS'author_id'
p17
S'eedbf8fb-cb1d-4268-bef7-9118bf5054df'
p18
sS'order'
p19
(lp20
g12
asS'freemode'
p21
I00
sb.