ccopy_reg
_reconstructor
p0
(cpuzzle
Pack
p1
c__builtin__
object
p2
Ntp3
Rp4
(dp5
S'uuid'
p6
S'd42f1f29-d679-4aee-a6bc-4de633f71a1b'
p7
sS'author_name'
p8
S'Stompy Blondie'
p9
sS'name'
p10
S'Puzzles'
p11
sS'puzzles'
p12
(dp13
S'0001.puz'
p14
(lp15
VTutorial 1
p16
aI5
aI5
assS'author_id'
p17
S'7a59ed8e-65ce-41d6-ae00-92389e651ad0'
p18
sS'order'
p19
(lp20
g14
asS'freemode'
p21
I00
sb.