ccopy_reg
_reconstructor
p1
(cpuzzle
Puzzle
p2
c__builtin__
object
p3
NtRp4
(dp5
S'row_numbers'
p6
(lp7
(I20
tp8
a(I10
I8
tp9
a(I9
I7
tp10
a(I8
I6
tp11
a(I3
I1
I1
I3
tp12
a(I1
I1
I1
tp13
a(I4
I2
I2
I2
tp14
a(I2
I3
I2
I2
tp15
a(I1
I1
I1
I3
I3
tp16
a(I1
I2
I2
I2
tp17
a(I2
I2
I2
I1
tp18
a(I8
I5
tp19
a(I0
tp20
a(I4
I3
tp21
a(I20
tp22
asS'name'
p23
VCaterpillar
p24
sS'cells'
p25
(lp26
(lp27
(I01
(lp28
F0.27531645569620256
aF0.3559322033898305
aF0.17796610169491525
atp29
a(I01
g28
tp30
a(I01
g28
tp31
a(I01
g28
tp32
a(I01
g28
tp33
a(I01
g28
tp34
a(I01
g28
tp35
a(I01
g28
tp36
a(I01
g28
tp37
a(I01
(lp38
F0.091772151898734181
aF0.82203389830508478
aF0.75423728813559321
atp39
a(I01
(lp40
F0.091772151898734181
aF0.82203389830508478
aF0.75423728813559321
atp41
a(I01
(lp42
F0.091772151898734181
aF0.82203389830508478
aF0.75423728813559321
atp43
a(I01
(lp44
F0.091772151898734181
aF0.82203389830508478
aF0.75423728813559321
atp45
a(I01
(lp46
F0.27531645569620256
aF0.3559322033898305
aF0.17796610169491525
atp47
a(I01
g46
tp48
a(I01
g46
tp49
a(I01
g46
tp50
a(I01
g46
tp51
a(I01
g46
tp52
a(I01
g46
tp53
aa(lp54
(I01
g28
tp55
a(I01
g28
tp56
a(I01
g28
tp57
a(I01
g28
tp58
a(I01
g28
tp59
a(I01
g28
tp60
a(I01
g28
tp61
a(I01
g28
tp62
a(I01
(lp63
F0.091772151898734181
aF0.82203389830508478
aF0.75423728813559321
atp64
a(I01
(lp65
F0.098101265822784806
aF0.78813559322033899
aF0.88135593220338981
atp66
a(N(lp67
F0.12974683544303797
aF0.76271186440677963
aF0.9152542372881356
atp68
a(Ng67
tp69
a(I01
(lp70
F0.098101265822784806
aF0.78813559322033899
aF0.88135593220338981
atp71
a(I01
(lp72
F0.091772151898734181
aF0.82203389830508478
aF0.75423728813559321
atp73
a(I01
g46
tp74
a(I01
g46
tp75
a(I01
g46
tp76
a(I01
g46
tp77
a(I01
g46
tp78
a(I01
g46
tp79
aa(lp80
(I01
g28
tp81
a(I01
g28
tp82
a(I01
g28
tp83
a(I01
g28
tp84
a(I01
g28
tp85
a(I01
g28
tp86
a(I01
g28
tp87
a(I01
g28
tp88
a(I01
(lp89
F0.091772151898734181
aF0.82203389830508478
aF0.75423728813559321
atp90
a(Ng67
tp91
a(Ng67
tp92
a(Ng67
tp93
a(Ng67
tp94
a(I01
(lp95
F0.098101265822784806
aF0.78813559322033899
aF0.88135593220338981
atp96
a(I01
(lp97
F0.091772151898734181
aF0.82203389830508478
aF0.75423728813559321
atp98
a(I01
g46
tp99
a(I01
g46
tp100
a(I01
g46
tp101
a(I01
g46
tp102
a(I01
g46
tp103
aa(lp104
(I01
g28
tp105
a(I01
g28
tp106
a(I01
g28
tp107
a(I01
g28
tp108
a(I01
g28
tp109
a(I01
g28
tp110
a(I01
g28
tp111
a(I01
(lp112
F0.091772151898734181
aF0.82203389830508478
aF0.75423728813559321
atp113
a(N(lp114
F0.098101265822784806
aF0.78813559322033899
aF0.88135593220338981
atp115
a(Ng67
tp116
a(Ng67
tp117
a(Ng67
tp118
a(Ng67
tp119
a(Ng67
tp120
a(I01
(lp121
F0.091772151898734181
aF0.82203389830508478
aF0.75423728813559321
atp122
a(I01
g46
tp123
a(I01
g46
tp124
a(I01
g46
tp125
a(I01
g46
tp126
a(I01
g46
tp127
aa(lp128
(I01
g28
tp129
a(I01
g28
tp130
a(I01
(lp131
F0.27531645569620256
aF0.3559322033898305
aF0.24576271186440679
atp132
a(N(lp133
F0.27215189873417722
aF0.47457627118644069
aF0.38135593220338981
atp134
a(N(lp135
F0.27215189873417722
aF0.47457627118644069
aF0.38135593220338981
atp136
a(N(lp137
F0.27531645569620256
aF0.60169491525423724
aF0.5847457627118644
atp138
a(N(lp139
F0.27531645569620256
aF0.60169491525423724
aF0.74576271186440679
atp140
a(I01
(lp141
F0.091772151898734181
aF0.82203389830508478
aF0.75423728813559321
atp142
a(Ng67
tp143
a(Ng67
tp144
a(Ng67
tp145
a(N(lp146
F0.12341772151898735
aF0.77118644067796616
aF0.83050847457627119
atp147
a(Ng67
tp148
a(Ng67
tp149
a(I01
(lp150
F0.091772151898734181
aF0.82203389830508478
aF0.75423728813559321
atp151
a(N(lp152
F0.27531645569620256
aF0.60169491525423724
aF0.5847457627118644
atp153
a(N(lp154
F0.27215189873417722
aF0.47457627118644069
aF0.38135593220338981
atp155
a(I01
(lp156
F0.27215189873417722
aF0.47457627118644069
aF0.38135593220338981
atp157
a(I01
(lp158
F0.27531645569620256
aF0.3559322033898305
aF0.24576271186440679
atp159
a(I01
g46
tp160
aa(lp161
(N(lp162
F0.27531645569620256
aF0.60169491525423724
aF0.74576271186440679
atp163
a(N(lp164
F0.27531645569620256
aF0.60169491525423724
aF0.74576271186440679
atp165
a(N(lp166
F0.27531645569620256
aF0.60169491525423724
aF0.74576271186440679
atp167
a(N(lp168
F0.27531645569620256
aF0.60169491525423724
aF0.74576271186440679
atp169
a(N(lp170
F0.27531645569620256
aF0.60169491525423724
aF0.74576271186440679
atp171
a(N(lp172
F0.27531645569620256
aF0.60169491525423724
aF0.74576271186440679
atp173
a(N(lp174
F0.27531645569620256
aF0.60169491525423724
aF0.74576271186440679
atp175
a(I01
(lp176
F0.091772151898734181
aF0.82203389830508478
aF0.75423728813559321
atp177
a(Ng67
tp178
a(Ng67
tp179
a(N(lp180
F0.12341772151898735
aF0.77118644067796616
aF0.83050847457627119
atp181
a(I01
(lp182
F0.091772151898734181
aF0.82203389830508478
aF0.5
atp183
a(Ng67
tp184
a(Ng67
tp185
a(I01
(lp186
F0.091772151898734181
aF0.82203389830508478
aF0.75423728813559321
atp187
a(N(lp188
F0.27531645569620256
aF0.60169491525423724
aF0.74576271186440679
atp189
a(N(lp190
F0.27531645569620256
aF0.60169491525423724
aF0.74576271186440679
atp191
a(N(lp192
F0.27531645569620256
aF0.60169491525423724
aF0.74576271186440679
atp193
a(N(lp194
F0.27531645569620256
aF0.60169491525423724
aF0.74576271186440679
atp195
a(N(lp196
F0.27531645569620256
aF0.60169491525423724
aF0.74576271186440679
atp197
aa(lp198
(N(lp199
F0.27531645569620256
aF0.60169491525423724
aF0.74576271186440679
atp200
a(I01
(lp201
F0.091772151898734181
aF0.82203389830508478
aF0.75423728813559321
atp202
a(I01
(lp203
F0.091772151898734181
aF0.82203389830508478
aF0.75423728813559321
atp204
a(I01
(lp205
F0.091772151898734181
aF0.82203389830508478
aF0.75423728813559321
atp206
a(I01
(lp207
F0.091772151898734181
aF0.82203389830508478
aF0.75423728813559321
atp208
a(N(lp209
F0.27531645569620256
aF0.60169491525423724
aF0.74576271186440679
atp210
a(I01
(lp211
F0.091772151898734181
aF0.82203389830508478
aF0.75423728813559321
atp212
a(I01
(lp213
F0.098101265822784806
aF0.78813559322033899
aF0.88135593220338981
atp214
a(Ng67
tp215
a(Ng67
tp216
a(I01
(lp217
F0.10443037974683544
aF0.79661016949152541
aF0.57627118644067798
atp218
a(I01
(lp219
F0.091772151898734181
aF0.82203389830508478
aF0.5
atp220
a(Ng67
tp221
a(Ng67
tp222
a(I01
(lp223
F0.098101265822784806
aF0.78813559322033899
aF0.88135593220338981
atp224
a(I01
(lp225
F0.091772151898734181
aF0.82203389830508478
aF0.75423728813559321
atp226
a(N(lp227
F0.27531645569620256
aF0.60169491525423724
aF0.74576271186440679
atp228
a(N(lp229
F0.27531645569620256
aF0.60169491525423724
aF0.74576271186440679
atp230
a(N(lp231
F0.27531645569620256
aF0.60169491525423724
aF0.74576271186440679
atp232
a(N(lp233
F0.27531645569620256
aF0.60169491525423724
aF0.74576271186440679
atp234
aa(lp235
(I01
(lp236
F0.091772151898734181
aF0.82203389830508478
aF0.75423728813559321
atp237
a(I01
(lp238
F0.098101265822784806
aF0.78813559322033899
aF0.88135593220338981
atp239
a(Ng67
tp240
a(Ng67
tp241
a(I01
(lp242
F0.098101265822784806
aF0.78813559322033899
aF0.88135593220338981
atp243
a(I01
(lp244
F0.091772151898734181
aF0.82203389830508478
aF0.75423728813559321
atp245
a(I01
(lp246
F0.091772151898734181
aF0.82203389830508478
aF0.75423728813559321
atp247
a(N(lp248
F0.12974683544303797
aF0.76271186440677963
aF0.9152542372881356
atp249
a(N(lp250
F0.12974683544303797
aF0.76271186440677963
aF0.9152542372881356
atp251
a(Ng67
tp252
a(I01
(lp253
F0.091772151898734181
aF0.82203389830508478
aF0.5
atp254
a(I01
(lp255
F0.091772151898734181
aF0.82203389830508478
aF0.5
atp256
a(N(lp257
F0.12341772151898735
aF0.77118644067796616
aF0.83050847457627119
atp258
a(Ng67
tp259
a(Ng67
tp260
a(I01
(lp261
F0.091772151898734181
aF0.82203389830508478
aF0.75423728813559321
atp262
a(I01
(lp263
F0.091772151898734181
aF0.82203389830508478
aF0.75423728813559321
atp264
a(N(lp265
F0.27531645569620256
aF0.60169491525423724
aF0.74576271186440679
atp266
a(N(lp267
F0.27531645569620256
aF0.60169491525423724
aF0.74576271186440679
atp268
a(N(lp269
F0.27531645569620256
aF0.60169491525423724
aF0.74576271186440679
atp270
aa(lp271
(I01
(lp272
F0.091772151898734181
aF0.82203389830508478
aF0.75423728813559321
atp273
a(Ng67
tp274
a(Ng67
tp275
a(I01
(lp276
F0.085443037974683542
aF0.49152542372881358
aF0.33898305084745761
atp277
a(Ng67
tp278
a(I01
(lp279
F0.091772151898734181
aF0.82203389830508478
aF0.75423728813559321
atp280
a(Ng67
tp281
a(Ng67
tp282
a(N(lp283
F0.12974683544303797
aF0.76271186440677963
aF0.9152542372881356
atp284
a(N(lp285
F0.12341772151898735
aF0.77118644067796616
aF0.83050847457627119
atp286
a(I01
(lp287
F0.091772151898734181
aF0.82203389830508478
aF0.5
atp288
a(I01
(lp289
F0.091772151898734181
aF0.82203389830508478
aF0.5
atp290
a(I01
(lp291
F0.091772151898734181
aF0.82203389830508478
aF0.5
atp292
a(Ng67
tp293
a(Ng67
tp294
a(Ng67
tp295
a(I01
(lp296
F0.098101265822784806
aF0.78813559322033899
aF0.88135593220338981
atp297
a(I01
(lp298
F0.091772151898734181
aF0.82203389830508478
aF0.75423728813559321
atp299
a(I01
(lp300
F0.091772151898734181
aF0.82203389830508478
aF0.75423728813559321
atp301
a(N(lp302
F0.27531645569620256
aF0.60169491525423724
aF0.74576271186440679
atp303
aa(lp304
(I01
(lp305
F0.091772151898734181
aF0.82203389830508478
aF0.75423728813559321
atp306
a(Ng67
tp307
a(Ng67
tp308
a(Ng67
tp309
a(Ng67
tp310
a(N(lp311
F0.12974683544303797
aF0.76271186440677963
aF0.9152542372881356
atp312
a(Ng67
tp313
a(Ng67
tp314
a(Ng67
tp315
a(I01
(lp316
F0.10443037974683544
aF0.79661016949152541
aF0.57627118644067798
atp317
a(I01
(lp318
F0.091772151898734181
aF0.82203389830508478
aF0.5
atp319
a(N(lp320
F0.27531645569620256
aF0.60169491525423724
aF0.74576271186440679
atp321
a(I01
(lp322
F0.091772151898734181
aF0.82203389830508478
aF0.5
atp323
a(I01
(lp324
F0.10443037974683544
aF0.79661016949152541
aF0.57627118644067798
atp325
a(Ng67
tp326
a(Ng67
tp327
a(Ng67
tp328
a(Ng67
tp329
a(I01
(lp330
F0.098101265822784806
aF0.78813559322033899
aF0.88135593220338981
atp331
a(I01
(lp332
F0.091772151898734181
aF0.82203389830508478
aF0.75423728813559321
atp333
aa(lp334
(I01
(lp335
F0.091772151898734181
aF0.82203389830508478
aF0.75423728813559321
atp336
a(I01
(lp337
F0.098101265822784806
aF0.78813559322033899
aF0.88135593220338981
atp338
a(N(lp339
F0.12341772151898735
aF0.77118644067796616
aF0.83050847457627119
atp340
a(N(lp341
F0.12341772151898735
aF0.77118644067796616
aF0.83050847457627119
atp342
a(N(lp343
F0.12341772151898735
aF0.77118644067796616
aF0.83050847457627119
atp344
a(N(lp345
F0.12341772151898735
aF0.77118644067796616
aF0.83050847457627119
atp346
a(N(lp347
F0.12341772151898735
aF0.77118644067796616
aF0.83050847457627119
atp348
a(N(lp349
F0.12341772151898735
aF0.77118644067796616
aF0.83050847457627119
atp350
a(I01
(lp351
F0.10443037974683544
aF0.79661016949152541
aF0.57627118644067798
atp352
a(I01
(lp353
F0.091772151898734181
aF0.82203389830508478
aF0.5
atp354
a(N(lp355
F0.27531645569620256
aF0.60169491525423724
aF0.74576271186440679
atp356
a(N(lp357
F0.27531645569620256
aF0.60169491525423724
aF0.74576271186440679
atp358
a(N(lp359
F0.27531645569620256
aF0.60169491525423724
aF0.74576271186440679
atp360
a(I01
(lp361
F0.091772151898734181
aF0.82203389830508478
aF0.5
atp362
a(I01
(lp363
F0.10443037974683544
aF0.79661016949152541
aF0.57627118644067798
atp364
a(N(lp365
F0.12341772151898735
aF0.77118644067796616
aF0.83050847457627119
atp366
a(N(lp367
F0.12341772151898735
aF0.77118644067796616
aF0.83050847457627119
atp368
a(N(lp369
F0.12341772151898735
aF0.77118644067796616
aF0.83050847457627119
atp370
a(N(lp371
F0.12341772151898735
aF0.77118644067796616
aF0.83050847457627119
atp372
a(I01
(lp373
F0.091772151898734181
aF0.82203389830508478
aF0.75423728813559321
atp374
aa(lp375
(N(lp376
F0.27531645569620256
aF0.60169491525423724
aF0.50847457627118642
atp377
a(I01
(lp378
F0.091772151898734181
aF0.82203389830508478
aF0.5
atp379
a(I01
(lp380
F0.091772151898734181
aF0.82203389830508478
aF0.5
atp381
a(I01
(lp382
F0.091772151898734181
aF0.82203389830508478
aF0.5
atp383
a(I01
(lp384
F0.091772151898734181
aF0.82203389830508478
aF0.5
atp385
a(I01
(lp386
F0.091772151898734181
aF0.82203389830508478
aF0.5
atp387
a(I01
(lp388
F0.091772151898734181
aF0.82203389830508478
aF0.5
atp389
a(I01
(lp390
F0.091772151898734181
aF0.82203389830508478
aF0.5
atp391
a(I01
(lp392
F0.091772151898734181
aF0.82203389830508478
aF0.5
atp393
a(N(lp394
F0.27531645569620256
aF0.60169491525423724
aF0.50847457627118642
atp395
a(N(lp396
F0.27531645569620256
aF0.60169491525423724
aF0.50847457627118642
atp397
a(N(lp398
F0.27531645569620256
aF0.60169491525423724
aF0.50847457627118642
atp399
a(N(lp400
F0.27531645569620256
aF0.60169491525423724
aF0.50847457627118642
atp401
a(N(lp402
F0.27531645569620256
aF0.60169491525423724
aF0.50847457627118642
atp403
a(I01
(lp404
F0.091772151898734181
aF0.82203389830508478
aF0.5
atp405
a(I01
(lp406
F0.091772151898734181
aF0.82203389830508478
aF0.5
atp407
a(I01
(lp408
F0.091772151898734181
aF0.82203389830508478
aF0.5
atp409
a(I01
(lp410
F0.091772151898734181
aF0.82203389830508478
aF0.5
atp411
a(I01
(lp412
F0.091772151898734181
aF0.82203389830508478
aF0.5
atp413
a(N(lp414
F0.27531645569620256
aF0.60169491525423724
aF0.50847457627118642
atp415
aa(lp416
(N(lp417
F0.27531645569620256
aF0.60169491525423724
aF0.74576271186440679
atp418
a(N(lp419
F0.27531645569620256
aF0.60169491525423724
aF0.74576271186440679
atp420
a(N(lp421
F0.27531645569620256
aF0.60169491525423724
aF0.74576271186440679
atp422
a(N(lp423
F0.27531645569620256
aF0.60169491525423724
aF0.74576271186440679
atp424
a(N(lp425
F0.27531645569620256
aF0.60169491525423724
aF0.74576271186440679
atp426
a(N(lp427
F0.27531645569620256
aF0.60169491525423724
aF0.74576271186440679
atp428
a(N(lp429
F0.27531645569620256
aF0.60169491525423724
aF0.74576271186440679
atp430
a(N(lp431
F0.27531645569620256
aF0.60169491525423724
aF0.74576271186440679
atp432
a(N(lp433
F0.27531645569620256
aF0.60169491525423724
aF0.74576271186440679
atp434
a(N(lp435
F0.27531645569620256
aF0.60169491525423724
aF0.74576271186440679
atp436
a(N(lp437
F0.27531645569620256
aF0.60169491525423724
aF0.74576271186440679
atp438
a(N(lp439
F0.27531645569620256
aF0.60169491525423724
aF0.74576271186440679
atp440
a(N(lp441
F0.27531645569620256
aF0.60169491525423724
aF0.74576271186440679
atp442
a(N(lp443
F0.27531645569620256
aF0.60169491525423724
aF0.74576271186440679
atp444
a(N(lp445
F0.27531645569620256
aF0.60169491525423724
aF0.74576271186440679
atp446
a(N(lp447
F0.27531645569620256
aF0.60169491525423724
aF0.74576271186440679
atp448
a(N(lp449
F0.27531645569620256
aF0.60169491525423724
aF0.74576271186440679
atp450
a(N(lp451
F0.27531645569620256
aF0.60169491525423724
aF0.74576271186440679
atp452
a(N(lp453
F0.27531645569620256
aF0.60169491525423724
aF0.74576271186440679
atp454
a(N(lp455
F0.27531645569620256
aF0.60169491525423724
aF0.74576271186440679
atp456
aa(lp457
(I01
(lp458
F0.27531645569620256
aF0.3559322033898305
aF0.17796610169491525
atp459
a(I01
g458
tp460
a(I01
(lp461
F0.27531645569620256
aF0.3559322033898305
aF0.24576271186440679
atp462
a(I01
(lp463
F0.27215189873417722
aF0.47457627118644069
aF0.38135593220338981
atp464
a(N(lp465
F0.27215189873417722
aF0.47457627118644069
aF0.38135593220338981
atp466
a(N(lp467
F0.27531645569620256
aF0.60169491525423724
aF0.5847457627118644
atp468
a(N(lp469
F0.27531645569620256
aF0.60169491525423724
aF0.74576271186440679
atp470
a(N(lp471
F0.27531645569620256
aF0.60169491525423724
aF0.74576271186440679
atp472
a(N(lp473
F0.27531645569620256
aF0.60169491525423724
aF0.74576271186440679
atp474
a(N(lp475
F0.27531645569620256
aF0.60169491525423724
aF0.74576271186440679
atp476
a(N(lp477
F0.27531645569620256
aF0.60169491525423724
aF0.74576271186440679
atp478
a(N(lp479
F0.27531645569620256
aF0.60169491525423724
aF0.74576271186440679
atp480
a(N(lp481
F0.27531645569620256
aF0.60169491525423724
aF0.74576271186440679
atp482
a(N(lp483
F0.27531645569620256
aF0.60169491525423724
aF0.74576271186440679
atp484
a(N(lp485
F0.27531645569620256
aF0.60169491525423724
aF0.74576271186440679
atp486
a(N(lp487
F0.27531645569620256
aF0.60169491525423724
aF0.5847457627118644
atp488
a(N(lp489
F0.27215189873417722
aF0.47457627118644069
aF0.38135593220338981
atp490
a(I01
(lp491
F0.27215189873417722
aF0.47457627118644069
aF0.38135593220338981
atp492
a(I01
(lp493
F0.27531645569620256
aF0.3559322033898305
aF0.24576271186440679
atp494
a(I01
g458
tp495
aa(lp496
(I01
g458
tp497
a(I01
g458
tp498
a(I01
g458
tp499
a(I01
g458
tp500
a(I01
g458
tp501
a(I01
g458
tp502
a(I01
g458
tp503
a(I01
g458
tp504
a(I01
g458
tp505
a(I01
g458
tp506
a(I01
g458
tp507
a(I01
g458
tp508
a(I01
g458
tp509
a(I01
g458
tp510
a(I01
g458
tp511
a(I01
g458
tp512
a(I01
g458
tp513
a(I01
g458
tp514
a(I01
g458
tp515
a(I01
g458
tp516
aasS'height'
p517
I15
sS'width'
p518
I20
sS'column_numbers'
p519
(lp520
(I5
I4
I2
tp521
a(I5
I2
I2
I2
tp522
a(I5
I1
I1
I2
tp523
a(I4
I1
I1
I1
I2
tp524
a(I4
I2
I1
I1
tp525
a(I4
I2
I1
I1
tp526
a(I4
I2
I1
I1
tp527
a(I7
I1
I1
tp528
a(I3
I2
I1
tp529
a(I2
I2
I1
tp530
a(I1
I4
I1
tp531
a(I1
I4
I1
tp532
a(I2
I2
I1
tp533
a(I3
I2
I1
tp534
a(I7
I2
I1
tp535
a(I4
I2
I1
I1
tp536
a(I4
I2
I1
I1
tp537
a(I5
I1
I1
I2
tp538
a(I5
I2
I1
I2
tp539
a(I5
I2
I2
tp540
asS'background'
p541
S'blue'
p542
sb.