ccopy_reg
_reconstructor
p0
(cpuzzle
Puzzle
p1
c__builtin__
object
p2
Ntp3
Rp4
(dp5
S'row_numbers'
p6
(lp7
(I6
tp8
a(I2
I2
tp9
a(I2
I2
tp10
a(I1
I1
tp11
a(I1
I2
I1
tp12
a(I1
I1
I2
I1
tp13
a(I1
I1
I1
I1
tp14
a(I2
I1
I1
I2
tp15
a(I3
I3
tp16
a(I6
tp17
a(I1
I1
tp18
a(I4
tp19
a(I1
I1
tp20
a(I4
tp21
a(I2
tp22
asS'name'
p23
VLight Bulb
p24
sS'cells'
p25
(lp26
(lp27
(I00
(lp28
F0.0031645569620253164
aF0.0078125
aF0.984375
atp29
a(I00
g28
tp30
a(I01
(lp31
F0.5537974683544303
aF0.1875
aF0.765625
atp32
a(I01
g31
tp33
a(I01
g31
tp34
a(I01
g31
tp35
a(I01
g31
tp36
a(I01
g31
tp37
a(I00
(lp38
F0.0031645569620253164
aF0.0078125
aF0.984375
atp39
a(I00
g38
tp40
aa(lp41
(I00
g28
tp42
a(I01
g31
tp43
a(I01
g31
tp44
a(I00
(lp45
F0.0031645569620253164
aF0.0078125
aF0.984375
atp46
a(I00
g45
tp47
a(I00
g45
tp48
a(I00
g45
tp49
a(I01
g31
tp50
a(I01
g31
tp51
a(I00
g38
tp52
aa(lp53
(I01
g31
tp54
a(I01
g31
tp55
a(I00
(lp56
F0.5506329113924051
aF0.1875
aF0.9921875
atp57
a(I00
g56
tp58
a(I00
g45
tp59
a(I00
g45
tp60
a(I00
g45
tp61
a(I00
g45
tp62
a(I01
g31
tp63
a(I01
g31
tp64
aa(lp65
(I01
g31
tp66
a(N(lp67
F0.0031645569620253164
aF0.0078125
aF0.984375
atp68
a(I00
g56
tp69
a(I00
g56
tp70
a(I00
g45
tp71
a(I00
g45
tp72
a(I00
g45
tp73
a(I00
g45
tp74
a(Ng45
tp75
a(I01
g31
tp76
aa(lp77
(I01
g31
tp78
a(Ng67
tp79
a(I00
g67
tp80
a(I01
(lp81
F0.5221518987341772
aF0.0546875
aF0.6484375
atp82
a(I01
g81
tp83
a(Ng45
tp84
a(I00
g45
tp85
a(I00
g45
tp86
a(Ng45
tp87
a(I01
g31
tp88
aa(lp89
(I01
g31
tp90
a(Ng67
tp91
a(I00
g67
tp92
a(I01
g81
tp93
a(N(lp94
F0.0031645569620253164
aF0.0078125
aF0.984375
atp95
a(I01
(lp96
F0.5221518987341772
aF0.0546875
aF0.6484375
atp97
a(I01
g96
tp98
a(I00
g45
tp99
a(N(lp100
F0.5506329113924051
aF0.1875
aF0.9921875
atp101
a(I01
g31
tp102
aa(lp103
(I01
g31
tp104
a(I00
g67
tp105
a(Ng67
tp106
a(I01
g81
tp107
a(Ng94
tp108
a(Ng94
tp109
a(I01
g96
tp110
a(Ng45
tp111
a(Ng100
tp112
a(I01
g31
tp113
aa(lp114
(I01
g31
tp115
a(I01
g31
tp116
a(I00
g67
tp117
a(I01
g81
tp118
a(Ng94
tp119
a(Ng94
tp120
a(I01
g96
tp121
a(I00
(lp122
F0.5506329113924051
aF0.1875
aF0.9921875
atp123
a(I01
g31
tp124
a(I01
g31
tp125
aa(lp126
(I00
(lp127
F0.0031645569620253164
aF0.0078125
aF0.984375
atp128
a(I01
g31
tp129
a(I01
g31
tp130
a(I01
g81
tp131
a(I00
g94
tp132
a(I00
(lp133
F0.5506329113924051
aF0.1875
aF0.9921875
atp134
a(I01
g133
tp135
a(I01
g31
tp136
a(I01
g31
tp137
a(I00
(lp138
F0.0031645569620253164
aF0.0078125
aF0.984375
atp139
aa(lp140
(I00
g127
tp141
a(I00
g127
tp142
a(I01
g31
tp143
a(I01
g31
tp144
a(I01
g31
tp145
a(I01
g31
tp146
a(I01
g31
tp147
a(I01
g31
tp148
a(I00
g138
tp149
a(I00
g138
tp150
aa(lp151
(I00
g127
tp152
a(I00
g127
tp153
a(I00
g127
tp154
a(I01
(lp155
F0.5221518987341772
aF0.0546875
aF0.703125
atp156
a(I00
(lp157
F0.5221518987341772
aF0.0546875
aF0.5703125
atp158
a(I00
(lp159
F0.5221518987341772
aF0.0546875
aF0.5703125
atp160
a(I01
(lp161
F0.5221518987341772
aF0.0546875
aF0.40625
atp162
a(I00
g138
tp163
a(I00
g138
tp164
a(I00
g138
tp165
aa(lp166
(I00
g127
tp167
a(I00
g127
tp168
a(I00
g127
tp169
a(I01
(lp170
F0.5221518987341772
aF0.0546875
aF0.5703125
atp171
a(I01
(lp172
F0.5221518987341772
aF0.0546875
aF0.40625
atp173
a(I01
(lp174
F0.5221518987341772
aF0.0546875
aF0.40625
atp175
a(I01
(lp176
F0.5221518987341772
aF0.0546875
aF0.2578125
atp177
a(I00
g138
tp178
a(I00
g138
tp179
a(I00
g138
tp180
aa(lp181
(I00
g127
tp182
a(I00
g127
tp183
a(I00
g127
tp184
a(I01
(lp185
F0.5221518987341772
aF0.0546875
aF0.703125
atp186
a(I00
(lp187
F0.5221518987341772
aF0.0546875
aF0.5703125
atp188
a(I00
(lp189
F0.5221518987341772
aF0.0546875
aF0.5703125
atp190
a(I01
(lp191
F0.5221518987341772
aF0.0546875
aF0.40625
atp192
a(I00
g138
tp193
a(I00
g138
tp194
a(I00
g138
tp195
aa(lp196
(I00
g127
tp197
a(I00
g127
tp198
a(I00
g127
tp199
a(I01
(lp200
F0.5221518987341772
aF0.0546875
aF0.5703125
atp201
a(I01
(lp202
F0.5221518987341772
aF0.0546875
aF0.40625
atp203
a(I01
(lp204
F0.5221518987341772
aF0.0546875
aF0.40625
atp205
a(I01
(lp206
F0.5221518987341772
aF0.0546875
aF0.2578125
atp207
a(I00
g138
tp208
a(I00
g138
tp209
a(I00
g138
tp210
aa(lp211
(I00
g127
tp212
a(I00
g127
tp213
a(I00
g127
tp214
a(I00
g127
tp215
a(I01
(lp216
F0.5221518987341772
aF0.0546875
aF0.1640625
atp217
a(I01
(lp218
F0.5221518987341772
aF0.0546875
aF0.1640625
atp219
a(I00
g138
tp220
a(I00
g138
tp221
a(I00
g138
tp222
a(I00
g138
tp223
aasS'height'
p224
I15
sS'width'
p225
I10
sS'column_numbers'
p226
(lp227
(I6
tp228
a(I2
I2
tp229
a(I2
I2
tp230
a(I1
I10
tp231
a(I1
I1
I1
I1
I2
tp232
a(I1
I1
I1
I1
I2
tp233
a(I1
I9
tp234
a(I2
I2
tp235
a(I2
I2
tp236
a(I6
tp237
asS'background'
p238
S'blue'
p239
sb.